GAS LISTING /tmp/ccQ6OdaV.s 			page 1


   1              		.file	"cipher-vec.c"
   2              		.section	.debug_abbrev,"",@progbits
   3              	.Ldebug_abbrev0:
   4              		.section	.debug_info,"",@progbits
   5              	.Ldebug_info0:
   6              		.section	.debug_line,"",@progbits
   7              	.Ldebug_line0:
   8 0000 D4030000 		.text
   8      0200E801 
   8      00000101 
   8      FB0E0D00 
   8      01010101 
   9              	.Ltext0:
  10              	.globl KCipherVecClassName
  11              		.section	.rodata
  12              		.type	KCipherVecClassName, @object
  13              		.size	KCipherVecClassName, 12
  14              	KCipherVecClassName:
  15 0000 43495048 		.string	"CIPHER_IMPL"
  15      45525F49 
  15      4D504C00 
  16              		.text
  17              		.type	CipherVecIn, @function
  18              	CipherVecIn:
  19              	.LFB508:
  20              		.file 1 "/home/rodarmer/sra_sdk-2.3.1/libs/krypto/cipher-vec.c"
   1:/home/rodarmer/sra_sdk-2.3.1/libs/krypto/cipher-vec.c **** /*===========================================================================
   2:/home/rodarmer/sra_sdk-2.3.1/libs/krypto/cipher-vec.c ****  *
   3:/home/rodarmer/sra_sdk-2.3.1/libs/krypto/cipher-vec.c ****  *                            PUBLIC DOMAIN NOTICE
   4:/home/rodarmer/sra_sdk-2.3.1/libs/krypto/cipher-vec.c ****  *               National Center for Biotechnology Information
   5:/home/rodarmer/sra_sdk-2.3.1/libs/krypto/cipher-vec.c ****  *
   6:/home/rodarmer/sra_sdk-2.3.1/libs/krypto/cipher-vec.c ****  *  This software/database is a "United States Government Work" under the
   7:/home/rodarmer/sra_sdk-2.3.1/libs/krypto/cipher-vec.c ****  *  terms of the United States Copyright Act.  It was written as part of
   8:/home/rodarmer/sra_sdk-2.3.1/libs/krypto/cipher-vec.c ****  *  the author's official duties as a United States Government employee and
   9:/home/rodarmer/sra_sdk-2.3.1/libs/krypto/cipher-vec.c ****  *  thus cannot be copyrighted.  This software/database is freely available
  10:/home/rodarmer/sra_sdk-2.3.1/libs/krypto/cipher-vec.c ****  *  to the public for use. The National Library of Medicine and the U.S.
  11:/home/rodarmer/sra_sdk-2.3.1/libs/krypto/cipher-vec.c ****  *  Government have not placed any restriction on its use or reproduction.
  12:/home/rodarmer/sra_sdk-2.3.1/libs/krypto/cipher-vec.c ****  *
  13:/home/rodarmer/sra_sdk-2.3.1/libs/krypto/cipher-vec.c ****  *  Although all reasonable efforts have been taken to ensure the accuracy
  14:/home/rodarmer/sra_sdk-2.3.1/libs/krypto/cipher-vec.c ****  *  and reliability of the software and data, the NLM and the U.S.
  15:/home/rodarmer/sra_sdk-2.3.1/libs/krypto/cipher-vec.c ****  *  Government do not and cannot warrant the performance or results that
  16:/home/rodarmer/sra_sdk-2.3.1/libs/krypto/cipher-vec.c ****  *  may be obtained by using this software or data. The NLM and the U.S.
  17:/home/rodarmer/sra_sdk-2.3.1/libs/krypto/cipher-vec.c ****  *  Government disclaim all warranties, express or implied, including
  18:/home/rodarmer/sra_sdk-2.3.1/libs/krypto/cipher-vec.c ****  *  warranties of performance, merchantability or fitness for any particular
  19:/home/rodarmer/sra_sdk-2.3.1/libs/krypto/cipher-vec.c ****  *  purpose.
  20:/home/rodarmer/sra_sdk-2.3.1/libs/krypto/cipher-vec.c ****  *
  21:/home/rodarmer/sra_sdk-2.3.1/libs/krypto/cipher-vec.c ****  *  Please cite the author in any work or product based on this material.
  22:/home/rodarmer/sra_sdk-2.3.1/libs/krypto/cipher-vec.c ****  *
  23:/home/rodarmer/sra_sdk-2.3.1/libs/krypto/cipher-vec.c ****  * ===========================================================================
  24:/home/rodarmer/sra_sdk-2.3.1/libs/krypto/cipher-vec.c ****  */
  25:/home/rodarmer/sra_sdk-2.3.1/libs/krypto/cipher-vec.c **** 
  26:/home/rodarmer/sra_sdk-2.3.1/libs/krypto/cipher-vec.c **** #include <krypto/extern.h>
  27:/home/rodarmer/sra_sdk-2.3.1/libs/krypto/cipher-vec.c **** #include <klib/defs.h>
  28:/home/rodarmer/sra_sdk-2.3.1/libs/krypto/cipher-vec.c **** 
  29:/home/rodarmer/sra_sdk-2.3.1/libs/krypto/cipher-vec.c **** /* CIPHER_IMPL and BLOCKCIPHER_IMPL are defined in this header */
  30:/home/rodarmer/sra_sdk-2.3.1/libs/krypto/cipher-vec.c **** #include "ncbi-priv.h"
  31:/home/rodarmer/sra_sdk-2.3.1/libs/krypto/cipher-vec.c **** /* CIPHER_IMPL is used in this header */
GAS LISTING /tmp/ccQ6OdaV.s 			page 2


  32:/home/rodarmer/sra_sdk-2.3.1/libs/krypto/cipher-vec.c **** #include "cipher-impl.h"
  33:/home/rodarmer/sra_sdk-2.3.1/libs/krypto/cipher-vec.c **** /* BLOCKCIPHER_IMPL is used in this header */
  34:/home/rodarmer/sra_sdk-2.3.1/libs/krypto/cipher-vec.c **** #include "blockcipher-impl.h"
  35:/home/rodarmer/sra_sdk-2.3.1/libs/krypto/cipher-vec.c **** 
  36:/home/rodarmer/sra_sdk-2.3.1/libs/krypto/cipher-vec.c **** #include "aes-ncbi-priv.h"
  37:/home/rodarmer/sra_sdk-2.3.1/libs/krypto/cipher-vec.c **** #include "null-ncbi-priv.h"
  38:/home/rodarmer/sra_sdk-2.3.1/libs/krypto/cipher-vec.c **** #include "cipher-priv.h"
  39:/home/rodarmer/sra_sdk-2.3.1/libs/krypto/cipher-vec.c **** #include "blockcipher-priv.h"
  40:/home/rodarmer/sra_sdk-2.3.1/libs/krypto/cipher-vec.c **** 
  41:/home/rodarmer/sra_sdk-2.3.1/libs/krypto/cipher-vec.c **** #include <krypto/cipher.h>
  42:/home/rodarmer/sra_sdk-2.3.1/libs/krypto/cipher-vec.c **** #include <krypto/ciphermgr.h>
  43:/home/rodarmer/sra_sdk-2.3.1/libs/krypto/cipher-vec.c **** 
  44:/home/rodarmer/sra_sdk-2.3.1/libs/krypto/cipher-vec.c **** #include <klib/defs.h>
  45:/home/rodarmer/sra_sdk-2.3.1/libs/krypto/cipher-vec.c **** #include <klib/refcount.h>
  46:/home/rodarmer/sra_sdk-2.3.1/libs/krypto/cipher-vec.c **** #include <klib/out.h>
  47:/home/rodarmer/sra_sdk-2.3.1/libs/krypto/cipher-vec.c **** #include <klib/rc.h>
  48:/home/rodarmer/sra_sdk-2.3.1/libs/krypto/cipher-vec.c **** 
  49:/home/rodarmer/sra_sdk-2.3.1/libs/krypto/cipher-vec.c **** #include <stdlib.h>
  50:/home/rodarmer/sra_sdk-2.3.1/libs/krypto/cipher-vec.c **** #include <string.h>
  51:/home/rodarmer/sra_sdk-2.3.1/libs/krypto/cipher-vec.c **** #include <assert.h>
  52:/home/rodarmer/sra_sdk-2.3.1/libs/krypto/cipher-vec.c **** 
  53:/home/rodarmer/sra_sdk-2.3.1/libs/krypto/cipher-vec.c **** 
  54:/home/rodarmer/sra_sdk-2.3.1/libs/krypto/cipher-vec.c **** const char CMEMBER(ClassName)[] = CLASS_STRING(CIPHER_IMPL);
  55:/home/rodarmer/sra_sdk-2.3.1/libs/krypto/cipher-vec.c **** 
  56:/home/rodarmer/sra_sdk-2.3.1/libs/krypto/cipher-vec.c **** 
  57:/home/rodarmer/sra_sdk-2.3.1/libs/krypto/cipher-vec.c **** 
  58:/home/rodarmer/sra_sdk-2.3.1/libs/krypto/cipher-vec.c **** struct CIPHER_IMPL
  59:/home/rodarmer/sra_sdk-2.3.1/libs/krypto/cipher-vec.c **** {
  60:/home/rodarmer/sra_sdk-2.3.1/libs/krypto/cipher-vec.c ****     KCipher dad;
  61:/home/rodarmer/sra_sdk-2.3.1/libs/krypto/cipher-vec.c ****     const KBlockCipherVec * block_cipher;
  62:/home/rodarmer/sra_sdk-2.3.1/libs/krypto/cipher-vec.c **** };
  63:/home/rodarmer/sra_sdk-2.3.1/libs/krypto/cipher-vec.c **** 
  64:/home/rodarmer/sra_sdk-2.3.1/libs/krypto/cipher-vec.c **** typedef union CipherVec_u
  65:/home/rodarmer/sra_sdk-2.3.1/libs/krypto/cipher-vec.c **** {
  66:/home/rodarmer/sra_sdk-2.3.1/libs/krypto/cipher-vec.c ****     CipherVec   vec;
  67:/home/rodarmer/sra_sdk-2.3.1/libs/krypto/cipher-vec.c ****     CipherBlock block;
  68:/home/rodarmer/sra_sdk-2.3.1/libs/krypto/cipher-vec.c **** } CipherVec_u;
  69:/home/rodarmer/sra_sdk-2.3.1/libs/krypto/cipher-vec.c **** 
  70:/home/rodarmer/sra_sdk-2.3.1/libs/krypto/cipher-vec.c **** /*
  71:/home/rodarmer/sra_sdk-2.3.1/libs/krypto/cipher-vec.c ****  * Read a blocks worth of bytes into an AESState
  72:/home/rodarmer/sra_sdk-2.3.1/libs/krypto/cipher-vec.c ****  */
  73:/home/rodarmer/sra_sdk-2.3.1/libs/krypto/cipher-vec.c **** static __inline__ CipherVec CipherVecIn (const void * cvin)
  74:/home/rodarmer/sra_sdk-2.3.1/libs/krypto/cipher-vec.c **** {
  21              		.loc 1 74 0
  22              		.cfi_startproc
  23 0000 55       		pushq	%rbp
  24              	.LCFI0:
  25              		.cfi_def_cfa_offset 16
  26 0001 4889E5   		movq	%rsp, %rbp
  27              		.cfi_offset 6, -16
  28              	.LCFI1:
  29              		.cfi_def_cfa_register 6
  30 0004 4883EC20 		subq	$32, %rsp
  31 0008 48897DE8 		movq	%rdi, -24(%rbp)
  75:/home/rodarmer/sra_sdk-2.3.1/libs/krypto/cipher-vec.c **** #if USE_VEC_REG
  76:/home/rodarmer/sra_sdk-2.3.1/libs/krypto/cipher-vec.c ****     register CipherVec cv;
  77:/home/rodarmer/sra_sdk-2.3.1/libs/krypto/cipher-vec.c **** 
GAS LISTING /tmp/ccQ6OdaV.s 			page 3


  78:/home/rodarmer/sra_sdk-2.3.1/libs/krypto/cipher-vec.c ****     __asm__ (
  79:/home/rodarmer/sra_sdk-2.3.1/libs/krypto/cipher-vec.c ****         "movdqu (%[a]),%[s]" : [s] "=x" (cv) : [a] "D" (cvin)
  80:/home/rodarmer/sra_sdk-2.3.1/libs/krypto/cipher-vec.c ****         );
  81:/home/rodarmer/sra_sdk-2.3.1/libs/krypto/cipher-vec.c **** 
  82:/home/rodarmer/sra_sdk-2.3.1/libs/krypto/cipher-vec.c ****     return cv;
  83:/home/rodarmer/sra_sdk-2.3.1/libs/krypto/cipher-vec.c **** #else
  84:/home/rodarmer/sra_sdk-2.3.1/libs/krypto/cipher-vec.c ****     CipherVec_u u;
  85:/home/rodarmer/sra_sdk-2.3.1/libs/krypto/cipher-vec.c **** 
  86:/home/rodarmer/sra_sdk-2.3.1/libs/krypto/cipher-vec.c ****     memmove (&u.block, cvin, sizeof (u));
  32              		.loc 1 86 0
  33 000c 488B4DE8 		movq	-24(%rbp), %rcx
  34 0010 488D45F0 		leaq	-16(%rbp), %rax
  35 0014 BA100000 		movl	$16, %edx
  35      00
  36 0019 4889CE   		movq	%rcx, %rsi
  37 001c 4889C7   		movq	%rax, %rdi
  38 001f E8000000 		call	memmove@PLT
  38      00
  87:/home/rodarmer/sra_sdk-2.3.1/libs/krypto/cipher-vec.c ****     return u.vec;
  39              		.loc 1 87 0
  40 0024 F30F6F45 		movdqu	-16(%rbp), %xmm0
  40      F0
  88:/home/rodarmer/sra_sdk-2.3.1/libs/krypto/cipher-vec.c **** #endif
  89:/home/rodarmer/sra_sdk-2.3.1/libs/krypto/cipher-vec.c **** }
  41              		.loc 1 89 0
  42 0029 C9       		leave
  43 002a C3       		ret
  44              		.cfi_endproc
  45              	.LFE508:
  46              		.size	CipherVecIn, .-CipherVecIn
  47              		.type	CipherVecOut, @function
  48              	CipherVecOut:
  49              	.LFB509:
  90:/home/rodarmer/sra_sdk-2.3.1/libs/krypto/cipher-vec.c **** 
  91:/home/rodarmer/sra_sdk-2.3.1/libs/krypto/cipher-vec.c **** 
  92:/home/rodarmer/sra_sdk-2.3.1/libs/krypto/cipher-vec.c **** 
  93:/home/rodarmer/sra_sdk-2.3.1/libs/krypto/cipher-vec.c **** /*
  94:/home/rodarmer/sra_sdk-2.3.1/libs/krypto/cipher-vec.c ****  * Write a block's worth of bytes out from an AESState
  95:/home/rodarmer/sra_sdk-2.3.1/libs/krypto/cipher-vec.c ****  */
  96:/home/rodarmer/sra_sdk-2.3.1/libs/krypto/cipher-vec.c **** static __inline__ void CipherVecOut (const CipherVec cv, void * cvout)
  97:/home/rodarmer/sra_sdk-2.3.1/libs/krypto/cipher-vec.c **** {
  50              		.loc 1 97 0
  51              		.cfi_startproc
  52 002b 55       		pushq	%rbp
  53              	.LCFI2:
  54              		.cfi_def_cfa_offset 16
  55 002c 4889E5   		movq	%rsp, %rbp
  56              		.cfi_offset 6, -16
  57              	.LCFI3:
  58              		.cfi_def_cfa_register 6
  59 002f 4883EC30 		subq	$48, %rsp
  60 0033 660F7F45 		movdqa	%xmm0, -32(%rbp)
  60      E0
  61 0038 48897DD8 		movq	%rdi, -40(%rbp)
  98:/home/rodarmer/sra_sdk-2.3.1/libs/krypto/cipher-vec.c **** #if USE_VEC_REG
  99:/home/rodarmer/sra_sdk-2.3.1/libs/krypto/cipher-vec.c ****     register CipherVec rcv = cv;
 100:/home/rodarmer/sra_sdk-2.3.1/libs/krypto/cipher-vec.c **** 
GAS LISTING /tmp/ccQ6OdaV.s 			page 4


 101:/home/rodarmer/sra_sdk-2.3.1/libs/krypto/cipher-vec.c ****     __asm__ (
 102:/home/rodarmer/sra_sdk-2.3.1/libs/krypto/cipher-vec.c ****         "movdqu %[s],(%[a])" : : [s] "x" (rcv), [a] "D" (cvout)
 103:/home/rodarmer/sra_sdk-2.3.1/libs/krypto/cipher-vec.c ****         );
 104:/home/rodarmer/sra_sdk-2.3.1/libs/krypto/cipher-vec.c **** #else
 105:/home/rodarmer/sra_sdk-2.3.1/libs/krypto/cipher-vec.c ****     CipherVec lcv = cv;
  62              		.loc 1 105 0
  63 003c 660F6F45 		movdqa	-32(%rbp), %xmm0
  63      E0
  64 0041 F30F7F45 		movdqu	%xmm0, -16(%rbp)
  64      F0
 106:/home/rodarmer/sra_sdk-2.3.1/libs/krypto/cipher-vec.c ****     memmove (cvout, &lcv, sizeof (lcv));
  65              		.loc 1 106 0
  66 0046 488D4DF0 		leaq	-16(%rbp), %rcx
  67 004a 488B45D8 		movq	-40(%rbp), %rax
  68 004e BA100000 		movl	$16, %edx
  68      00
  69 0053 4889CE   		movq	%rcx, %rsi
  70 0056 4889C7   		movq	%rax, %rdi
  71 0059 E8000000 		call	memmove@PLT
  71      00
 107:/home/rodarmer/sra_sdk-2.3.1/libs/krypto/cipher-vec.c **** #endif
 108:/home/rodarmer/sra_sdk-2.3.1/libs/krypto/cipher-vec.c **** }
  72              		.loc 1 108 0
  73 005e C9       		leave
  74 005f C3       		ret
  75              		.cfi_endproc
  76              	.LFE509:
  77              		.size	CipherVecOut, .-CipherVecOut
  78              		.type	KCipherVecDestroy, @function
  79              	KCipherVecDestroy:
  80              	.LFB510:
 109:/home/rodarmer/sra_sdk-2.3.1/libs/krypto/cipher-vec.c **** 
 110:/home/rodarmer/sra_sdk-2.3.1/libs/krypto/cipher-vec.c **** 
 111:/home/rodarmer/sra_sdk-2.3.1/libs/krypto/cipher-vec.c **** static rc_t CMEMBER(Destroy) (CIPHER_IMPL * self)
 112:/home/rodarmer/sra_sdk-2.3.1/libs/krypto/cipher-vec.c **** {
  81              		.loc 1 112 0
  82              		.cfi_startproc
  83 0060 55       		pushq	%rbp
  84              	.LCFI4:
  85              		.cfi_def_cfa_offset 16
  86 0061 4889E5   		movq	%rsp, %rbp
  87              		.cfi_offset 6, -16
  88              	.LCFI5:
  89              		.cfi_def_cfa_register 6
  90 0064 4883EC20 		subq	$32, %rsp
  91 0068 48897DE8 		movq	%rdi, -24(%rbp)
 113:/home/rodarmer/sra_sdk-2.3.1/libs/krypto/cipher-vec.c ****     rc_t rc = 0;
  92              		.loc 1 113 0
  93 006c C745FC00 		movl	$0, -4(%rbp)
  93      000000
 114:/home/rodarmer/sra_sdk-2.3.1/libs/krypto/cipher-vec.c **** 
 115:/home/rodarmer/sra_sdk-2.3.1/libs/krypto/cipher-vec.c ****     if (self)
  94              		.loc 1 115 0
  95 0073 48837DE8 		cmpq	$0, -24(%rbp)
  95      00
  96 0078 741B     		je	.L6
 116:/home/rodarmer/sra_sdk-2.3.1/libs/krypto/cipher-vec.c ****     {
GAS LISTING /tmp/ccQ6OdaV.s 			page 5


 117:/home/rodarmer/sra_sdk-2.3.1/libs/krypto/cipher-vec.c ****         rc =  KCipherDestroy (&self->dad);
  97              		.loc 1 117 0
  98 007a 488B45E8 		movq	-24(%rbp), %rax
  99 007e 4889C7   		movq	%rax, %rdi
 100 0081 E8000000 		call	KCipherDestroy@PLT
 100      00
 101 0086 8945FC   		movl	%eax, -4(%rbp)
 118:/home/rodarmer/sra_sdk-2.3.1/libs/krypto/cipher-vec.c ****         free (self);
 102              		.loc 1 118 0
 103 0089 488B45E8 		movq	-24(%rbp), %rax
 104 008d 4889C7   		movq	%rax, %rdi
 105 0090 E8000000 		call	free@PLT
 105      00
 106              	.L6:
 119:/home/rodarmer/sra_sdk-2.3.1/libs/krypto/cipher-vec.c ****     }
 120:/home/rodarmer/sra_sdk-2.3.1/libs/krypto/cipher-vec.c ****     return rc;
 107              		.loc 1 120 0
 108 0095 8B45FC   		movl	-4(%rbp), %eax
 121:/home/rodarmer/sra_sdk-2.3.1/libs/krypto/cipher-vec.c **** }
 109              		.loc 1 121 0
 110 0098 C9       		leave
 111 0099 C3       		ret
 112              		.cfi_endproc
 113              	.LFE510:
 114              		.size	KCipherVecDestroy, .-KCipherVecDestroy
 115              		.section	.rodata
 116 000c 00000000 		.align 8
 117              	.LC0:
 118 0010 2F686F6D 		.string	"/home/rodarmer/sra_sdk-2.3.1/libs/krypto/cipher-vec.c"
 118      652F726F 
 118      6461726D 
 118      65722F73 
 118      72615F73 
 119              	.LC1:
 120 0046 73656C66 		.string	"self"
 120      00
 121              	.LC2:
 122 004b 75736572 		.string	"user_key"
 122      5F6B6579 
 122      00
 123              	.LC3:
 124 0054 75736572 		.string	"user_key_bits"
 124      5F6B6579 
 124      5F626974 
 124      7300
 125              		.text
 126              		.type	KCipherVecSetEncryptKey, @function
 127              	KCipherVecSetEncryptKey:
 128              	.LFB511:
 122:/home/rodarmer/sra_sdk-2.3.1/libs/krypto/cipher-vec.c **** 
 123:/home/rodarmer/sra_sdk-2.3.1/libs/krypto/cipher-vec.c **** 
 124:/home/rodarmer/sra_sdk-2.3.1/libs/krypto/cipher-vec.c **** static rc_t CMEMBER(SetEncryptKey)(CIPHER_IMPL * self,
 125:/home/rodarmer/sra_sdk-2.3.1/libs/krypto/cipher-vec.c ****                                   const char * user_key,
 126:/home/rodarmer/sra_sdk-2.3.1/libs/krypto/cipher-vec.c ****                                   uint32_t user_key_bits)
 127:/home/rodarmer/sra_sdk-2.3.1/libs/krypto/cipher-vec.c **** {
 129              		.loc 1 127 0
 130              		.cfi_startproc
GAS LISTING /tmp/ccQ6OdaV.s 			page 6


 131 009a 55       		pushq	%rbp
 132              	.LCFI6:
 133              		.cfi_def_cfa_offset 16
 134 009b 4889E5   		movq	%rsp, %rbp
 135              		.cfi_offset 6, -16
 136              	.LCFI7:
 137              		.cfi_def_cfa_register 6
 138 009e 53       		pushq	%rbx
 139 009f 4883EC38 		subq	$56, %rsp
 140 00a3 48897DD8 		movq	%rdi, -40(%rbp)
 141 00a7 488975D0 		movq	%rsi, -48(%rbp)
 142 00ab 8955CC   		movl	%edx, -52(%rbp)
 128:/home/rodarmer/sra_sdk-2.3.1/libs/krypto/cipher-vec.c ****     rc_t rc = 0;
 143              		.loc 1 128 0
 144 00ae C745EC00 		movl	$0, -20(%rbp)
 144      000000
 129:/home/rodarmer/sra_sdk-2.3.1/libs/krypto/cipher-vec.c **** 
 130:/home/rodarmer/sra_sdk-2.3.1/libs/krypto/cipher-vec.c ****     assert (self);
 145              		.loc 1 130 0
 146 00b5 48837DD8 		cmpq	$0, -40(%rbp)
 146      00
 147 00ba 751F     		jne	.L9
 148              		.cfi_offset 3, -24
 149 00bc 488D0D00 		leaq	__PRETTY_FUNCTION__.6562(%rip), %rcx
 149      000000
 150 00c3 BA820000 		movl	$130, %edx
 150      00
 151 00c8 488D3500 		leaq	.LC0(%rip), %rsi
 151      000000
 152 00cf 488D3D00 		leaq	.LC1(%rip), %rdi
 152      000000
 153 00d6 E8000000 		call	__assert_fail@PLT
 153      00
 154              	.L9:
 131:/home/rodarmer/sra_sdk-2.3.1/libs/krypto/cipher-vec.c ****     assert (user_key);
 155              		.loc 1 131 0
 156 00db 48837DD0 		cmpq	$0, -48(%rbp)
 156      00
 157 00e0 751F     		jne	.L10
 158 00e2 488D0D00 		leaq	__PRETTY_FUNCTION__.6562(%rip), %rcx
 158      000000
 159 00e9 BA830000 		movl	$131, %edx
 159      00
 160 00ee 488D3500 		leaq	.LC0(%rip), %rsi
 160      000000
 161 00f5 488D3D00 		leaq	.LC2(%rip), %rdi
 161      000000
 162 00fc E8000000 		call	__assert_fail@PLT
 162      00
 163              	.L10:
 132:/home/rodarmer/sra_sdk-2.3.1/libs/krypto/cipher-vec.c ****     assert (user_key_bits);
 164              		.loc 1 132 0
 165 0101 837DCC00 		cmpl	$0, -52(%rbp)
 166 0105 751F     		jne	.L11
 167 0107 488D0D00 		leaq	__PRETTY_FUNCTION__.6562(%rip), %rcx
 167      000000
 168 010e BA840000 		movl	$132, %edx
GAS LISTING /tmp/ccQ6OdaV.s 			page 7


 168      00
 169 0113 488D3500 		leaq	.LC0(%rip), %rsi
 169      000000
 170 011a 488D3D00 		leaq	.LC3(%rip), %rdi
 170      000000
 171 0121 E8000000 		call	__assert_fail@PLT
 171      00
 172              	.L11:
 133:/home/rodarmer/sra_sdk-2.3.1/libs/krypto/cipher-vec.c **** 
 134:/home/rodarmer/sra_sdk-2.3.1/libs/krypto/cipher-vec.c ****     switch (self->block_cipher->version.maj)
 173              		.loc 1 134 0
 174 0126 488B45D8 		movq	-40(%rbp), %rax
 175 012a 488B4048 		movq	72(%rax), %rax
 176 012e 8B00     		movl	(%rax), %eax
 177 0130 83F801   		cmpl	$1, %eax
 178 0133 7422     		je	.L13
 135:/home/rodarmer/sra_sdk-2.3.1/libs/krypto/cipher-vec.c ****     {
 136:/home/rodarmer/sra_sdk-2.3.1/libs/krypto/cipher-vec.c ****     default:
 137:/home/rodarmer/sra_sdk-2.3.1/libs/krypto/cipher-vec.c ****         rc = RC (rcKrypto, rcCipher, rcUpdating, rcBlockCipher, rcBadVersion);
 179              		.loc 1 137 0
 180 0135 B9890000 		movl	$137, %ecx
 180      00
 181 013a 488D1500 		leaq	__func__.6564(%rip), %rdx
 181      000000
 182 0141 488D3500 		leaq	.LC0(%rip), %rsi
 182      000000
 183 0148 BF088E04 		movl	$-2029744632, %edi
 183      87
 184 014d E8000000 		call	SetRCFileFuncLine@PLT
 184      00
 185 0152 8945EC   		movl	%eax, -20(%rbp)
 138:/home/rodarmer/sra_sdk-2.3.1/libs/krypto/cipher-vec.c ****         break;
 186              		.loc 1 138 0
 187 0155 EB23     		jmp	.L14
 188              	.L13:
 139:/home/rodarmer/sra_sdk-2.3.1/libs/krypto/cipher-vec.c **** 
 140:/home/rodarmer/sra_sdk-2.3.1/libs/krypto/cipher-vec.c ****     case 1:
 141:/home/rodarmer/sra_sdk-2.3.1/libs/krypto/cipher-vec.c ****         self->block_cipher->v1.set_encrypt_key (self->dad.encrypt_key, user_key,
 189              		.loc 1 141 0
 190 0157 488B45D8 		movq	-40(%rbp), %rax
 191 015b 488B4048 		movq	72(%rax), %rax
 192 015f 488B5820 		movq	32(%rax), %rbx
 193 0163 488B45D8 		movq	-40(%rbp), %rax
 194 0167 488B4018 		movq	24(%rax), %rax
 195 016b 8B55CC   		movl	-52(%rbp), %edx
 196 016e 488B4DD0 		movq	-48(%rbp), %rcx
 197 0172 4889CE   		movq	%rcx, %rsi
 198 0175 4889C7   		movq	%rax, %rdi
 199 0178 FFD3     		call	*%rbx
 200              	.L14:
 142:/home/rodarmer/sra_sdk-2.3.1/libs/krypto/cipher-vec.c ****                                                 user_key_bits);
 143:/home/rodarmer/sra_sdk-2.3.1/libs/krypto/cipher-vec.c ****         break;
 144:/home/rodarmer/sra_sdk-2.3.1/libs/krypto/cipher-vec.c ****     }
 145:/home/rodarmer/sra_sdk-2.3.1/libs/krypto/cipher-vec.c ****     return rc;
 201              		.loc 1 145 0
 202 017a 8B45EC   		movl	-20(%rbp), %eax
 146:/home/rodarmer/sra_sdk-2.3.1/libs/krypto/cipher-vec.c **** }
GAS LISTING /tmp/ccQ6OdaV.s 			page 8


 203              		.loc 1 146 0
 204 017d 4883C438 		addq	$56, %rsp
 205 0181 5B       		popq	%rbx
 206 0182 C9       		leave
 207 0183 C3       		ret
 208              		.cfi_endproc
 209              	.LFE511:
 210              		.size	KCipherVecSetEncryptKey, .-KCipherVecSetEncryptKey
 211              		.type	KCipherVecSetDecryptKey, @function
 212              	KCipherVecSetDecryptKey:
 213              	.LFB512:
 147:/home/rodarmer/sra_sdk-2.3.1/libs/krypto/cipher-vec.c **** 
 148:/home/rodarmer/sra_sdk-2.3.1/libs/krypto/cipher-vec.c **** 
 149:/home/rodarmer/sra_sdk-2.3.1/libs/krypto/cipher-vec.c **** static rc_t CMEMBER(SetDecryptKey)(CIPHER_IMPL * self,
 150:/home/rodarmer/sra_sdk-2.3.1/libs/krypto/cipher-vec.c ****                                   const char * user_key,
 151:/home/rodarmer/sra_sdk-2.3.1/libs/krypto/cipher-vec.c ****                                   uint32_t user_key_bits)
 152:/home/rodarmer/sra_sdk-2.3.1/libs/krypto/cipher-vec.c **** {
 214              		.loc 1 152 0
 215              		.cfi_startproc
 216 0184 55       		pushq	%rbp
 217              	.LCFI8:
 218              		.cfi_def_cfa_offset 16
 219 0185 4889E5   		movq	%rsp, %rbp
 220              		.cfi_offset 6, -16
 221              	.LCFI9:
 222              		.cfi_def_cfa_register 6
 223 0188 53       		pushq	%rbx
 224 0189 4883EC38 		subq	$56, %rsp
 225 018d 48897DD8 		movq	%rdi, -40(%rbp)
 226 0191 488975D0 		movq	%rsi, -48(%rbp)
 227 0195 8955CC   		movl	%edx, -52(%rbp)
 153:/home/rodarmer/sra_sdk-2.3.1/libs/krypto/cipher-vec.c ****     rc_t rc = 0;
 228              		.loc 1 153 0
 229 0198 C745EC00 		movl	$0, -20(%rbp)
 229      000000
 154:/home/rodarmer/sra_sdk-2.3.1/libs/krypto/cipher-vec.c **** 
 155:/home/rodarmer/sra_sdk-2.3.1/libs/krypto/cipher-vec.c ****     assert (self);
 230              		.loc 1 155 0
 231 019f 48837DD8 		cmpq	$0, -40(%rbp)
 231      00
 232 01a4 751F     		jne	.L17
 233              		.cfi_offset 3, -24
 234 01a6 488D0D00 		leaq	__PRETTY_FUNCTION__.6586(%rip), %rcx
 234      000000
 235 01ad BA9B0000 		movl	$155, %edx
 235      00
 236 01b2 488D3500 		leaq	.LC0(%rip), %rsi
 236      000000
 237 01b9 488D3D00 		leaq	.LC1(%rip), %rdi
 237      000000
 238 01c0 E8000000 		call	__assert_fail@PLT
 238      00
 239              	.L17:
 156:/home/rodarmer/sra_sdk-2.3.1/libs/krypto/cipher-vec.c ****     assert (user_key);
 240              		.loc 1 156 0
 241 01c5 48837DD0 		cmpq	$0, -48(%rbp)
 241      00
GAS LISTING /tmp/ccQ6OdaV.s 			page 9


 242 01ca 751F     		jne	.L18
 243 01cc 488D0D00 		leaq	__PRETTY_FUNCTION__.6586(%rip), %rcx
 243      000000
 244 01d3 BA9C0000 		movl	$156, %edx
 244      00
 245 01d8 488D3500 		leaq	.LC0(%rip), %rsi
 245      000000
 246 01df 488D3D00 		leaq	.LC2(%rip), %rdi
 246      000000
 247 01e6 E8000000 		call	__assert_fail@PLT
 247      00
 248              	.L18:
 157:/home/rodarmer/sra_sdk-2.3.1/libs/krypto/cipher-vec.c ****     assert (user_key_bits);
 249              		.loc 1 157 0
 250 01eb 837DCC00 		cmpl	$0, -52(%rbp)
 251 01ef 751F     		jne	.L19
 252 01f1 488D0D00 		leaq	__PRETTY_FUNCTION__.6586(%rip), %rcx
 252      000000
 253 01f8 BA9D0000 		movl	$157, %edx
 253      00
 254 01fd 488D3500 		leaq	.LC0(%rip), %rsi
 254      000000
 255 0204 488D3D00 		leaq	.LC3(%rip), %rdi
 255      000000
 256 020b E8000000 		call	__assert_fail@PLT
 256      00
 257              	.L19:
 158:/home/rodarmer/sra_sdk-2.3.1/libs/krypto/cipher-vec.c **** 
 159:/home/rodarmer/sra_sdk-2.3.1/libs/krypto/cipher-vec.c ****     switch (self->block_cipher->version.maj)
 258              		.loc 1 159 0
 259 0210 488B45D8 		movq	-40(%rbp), %rax
 260 0214 488B4048 		movq	72(%rax), %rax
 261 0218 8B00     		movl	(%rax), %eax
 262 021a 83F801   		cmpl	$1, %eax
 263 021d 7422     		je	.L21
 160:/home/rodarmer/sra_sdk-2.3.1/libs/krypto/cipher-vec.c ****     {
 161:/home/rodarmer/sra_sdk-2.3.1/libs/krypto/cipher-vec.c ****     default:
 162:/home/rodarmer/sra_sdk-2.3.1/libs/krypto/cipher-vec.c ****         rc = RC (rcKrypto, rcCipher, rcUpdating, rcBlockCipher, rcBadVersion);
 264              		.loc 1 162 0
 265 021f B9A20000 		movl	$162, %ecx
 265      00
 266 0224 488D1500 		leaq	__func__.6588(%rip), %rdx
 266      000000
 267 022b 488D3500 		leaq	.LC0(%rip), %rsi
 267      000000
 268 0232 BF088E04 		movl	$-2029744632, %edi
 268      87
 269 0237 E8000000 		call	SetRCFileFuncLine@PLT
 269      00
 270 023c 8945EC   		movl	%eax, -20(%rbp)
 163:/home/rodarmer/sra_sdk-2.3.1/libs/krypto/cipher-vec.c ****         break;
 271              		.loc 1 163 0
 272 023f EB23     		jmp	.L22
 273              	.L21:
 164:/home/rodarmer/sra_sdk-2.3.1/libs/krypto/cipher-vec.c **** 
 165:/home/rodarmer/sra_sdk-2.3.1/libs/krypto/cipher-vec.c ****     case 1:
 166:/home/rodarmer/sra_sdk-2.3.1/libs/krypto/cipher-vec.c ****         self->block_cipher->v1.set_decrypt_key (self->dad.decrypt_key, user_key,
GAS LISTING /tmp/ccQ6OdaV.s 			page 10


 274              		.loc 1 166 0
 275 0241 488B45D8 		movq	-40(%rbp), %rax
 276 0245 488B4048 		movq	72(%rax), %rax
 277 0249 488B5828 		movq	40(%rax), %rbx
 278 024d 488B45D8 		movq	-40(%rbp), %rax
 279 0251 488B4020 		movq	32(%rax), %rax
 280 0255 8B55CC   		movl	-52(%rbp), %edx
 281 0258 488B4DD0 		movq	-48(%rbp), %rcx
 282 025c 4889CE   		movq	%rcx, %rsi
 283 025f 4889C7   		movq	%rax, %rdi
 284 0262 FFD3     		call	*%rbx
 285              	.L22:
 167:/home/rodarmer/sra_sdk-2.3.1/libs/krypto/cipher-vec.c ****                                                     user_key_bits);
 168:/home/rodarmer/sra_sdk-2.3.1/libs/krypto/cipher-vec.c ****         break;
 169:/home/rodarmer/sra_sdk-2.3.1/libs/krypto/cipher-vec.c ****     }
 170:/home/rodarmer/sra_sdk-2.3.1/libs/krypto/cipher-vec.c ****     return rc;
 286              		.loc 1 170 0
 287 0264 8B45EC   		movl	-20(%rbp), %eax
 171:/home/rodarmer/sra_sdk-2.3.1/libs/krypto/cipher-vec.c **** }
 288              		.loc 1 171 0
 289 0267 4883C438 		addq	$56, %rsp
 290 026b 5B       		popq	%rbx
 291 026c C9       		leave
 292 026d C3       		ret
 293              		.cfi_endproc
 294              	.LFE512:
 295              		.size	KCipherVecSetDecryptKey, .-KCipherVecSetDecryptKey
 296              		.section	.rodata
 297              	.LC4:
 298 0062 69766563 		.string	"ivec"
 298      00
 299              		.text
 300              		.type	KCipherVecSetEncryptIvec, @function
 301              	KCipherVecSetEncryptIvec:
 302              	.LFB513:
 172:/home/rodarmer/sra_sdk-2.3.1/libs/krypto/cipher-vec.c **** 
 173:/home/rodarmer/sra_sdk-2.3.1/libs/krypto/cipher-vec.c **** 
 174:/home/rodarmer/sra_sdk-2.3.1/libs/krypto/cipher-vec.c **** static
 175:/home/rodarmer/sra_sdk-2.3.1/libs/krypto/cipher-vec.c **** rc_t CMEMBER(SetEncryptIvec) (CIPHER_IMPL * self,
 176:/home/rodarmer/sra_sdk-2.3.1/libs/krypto/cipher-vec.c ****                              const void * ivec)
 177:/home/rodarmer/sra_sdk-2.3.1/libs/krypto/cipher-vec.c **** {
 303              		.loc 1 177 0
 304              		.cfi_startproc
 305 026e 55       		pushq	%rbp
 306              	.LCFI10:
 307              		.cfi_def_cfa_offset 16
 308 026f 4889E5   		movq	%rsp, %rbp
 309              		.cfi_offset 6, -16
 310              	.LCFI11:
 311              		.cfi_def_cfa_register 6
 312 0272 4883EC10 		subq	$16, %rsp
 313 0276 48897DF8 		movq	%rdi, -8(%rbp)
 314 027a 488975F0 		movq	%rsi, -16(%rbp)
 178:/home/rodarmer/sra_sdk-2.3.1/libs/krypto/cipher-vec.c ****     assert (self);
 315              		.loc 1 178 0
 316 027e 48837DF8 		cmpq	$0, -8(%rbp)
 316      00
GAS LISTING /tmp/ccQ6OdaV.s 			page 11


 317 0283 751F     		jne	.L25
 318 0285 488D0D00 		leaq	__PRETTY_FUNCTION__.6608(%rip), %rcx
 318      000000
 319 028c BAB20000 		movl	$178, %edx
 319      00
 320 0291 488D3500 		leaq	.LC0(%rip), %rsi
 320      000000
 321 0298 488D3D00 		leaq	.LC1(%rip), %rdi
 321      000000
 322 029f E8000000 		call	__assert_fail@PLT
 322      00
 323              	.L25:
 179:/home/rodarmer/sra_sdk-2.3.1/libs/krypto/cipher-vec.c ****     assert (ivec);
 324              		.loc 1 179 0
 325 02a4 48837DF0 		cmpq	$0, -16(%rbp)
 325      00
 326 02a9 751F     		jne	.L26
 327 02ab 488D0D00 		leaq	__PRETTY_FUNCTION__.6608(%rip), %rcx
 327      000000
 328 02b2 BAB30000 		movl	$179, %edx
 328      00
 329 02b7 488D3500 		leaq	.LC0(%rip), %rsi
 329      000000
 330 02be 488D3D00 		leaq	.LC4(%rip), %rdi
 330      000000
 331 02c5 E8000000 		call	__assert_fail@PLT
 331      00
 332              	.L26:
 180:/home/rodarmer/sra_sdk-2.3.1/libs/krypto/cipher-vec.c **** 
 181:/home/rodarmer/sra_sdk-2.3.1/libs/krypto/cipher-vec.c ****     memcpy (self->dad.encrypt_ivec, ivec, self->dad.block_size);
 333              		.loc 1 181 0
 334 02ca 488B45F8 		movq	-8(%rbp), %rax
 335 02ce 8B4004   		movl	4(%rax), %eax
 336 02d1 89C2     		mov	%eax, %edx
 337 02d3 488B45F8 		movq	-8(%rbp), %rax
 338 02d7 488B4028 		movq	40(%rax), %rax
 339 02db 488B4DF0 		movq	-16(%rbp), %rcx
 340 02df 4889CE   		movq	%rcx, %rsi
 341 02e2 4889C7   		movq	%rax, %rdi
 342 02e5 E8000000 		call	memcpy@PLT
 342      00
 182:/home/rodarmer/sra_sdk-2.3.1/libs/krypto/cipher-vec.c **** 
 183:/home/rodarmer/sra_sdk-2.3.1/libs/krypto/cipher-vec.c ****     return 0;
 343              		.loc 1 183 0
 344 02ea B8000000 		movl	$0, %eax
 344      00
 184:/home/rodarmer/sra_sdk-2.3.1/libs/krypto/cipher-vec.c **** }
 345              		.loc 1 184 0
 346 02ef C9       		leave
 347 02f0 C3       		ret
 348              		.cfi_endproc
 349              	.LFE513:
 350              		.size	KCipherVecSetEncryptIvec, .-KCipherVecSetEncryptIvec
 351              		.type	KCipherVecSetDecryptIvec, @function
 352              	KCipherVecSetDecryptIvec:
 353              	.LFB514:
 185:/home/rodarmer/sra_sdk-2.3.1/libs/krypto/cipher-vec.c **** 
GAS LISTING /tmp/ccQ6OdaV.s 			page 12


 186:/home/rodarmer/sra_sdk-2.3.1/libs/krypto/cipher-vec.c **** 
 187:/home/rodarmer/sra_sdk-2.3.1/libs/krypto/cipher-vec.c **** static
 188:/home/rodarmer/sra_sdk-2.3.1/libs/krypto/cipher-vec.c **** rc_t CMEMBER(SetDecryptIvec) (CIPHER_IMPL * self,
 189:/home/rodarmer/sra_sdk-2.3.1/libs/krypto/cipher-vec.c ****                              const void * ivec)
 190:/home/rodarmer/sra_sdk-2.3.1/libs/krypto/cipher-vec.c **** {
 354              		.loc 1 190 0
 355              		.cfi_startproc
 356 02f1 55       		pushq	%rbp
 357              	.LCFI12:
 358              		.cfi_def_cfa_offset 16
 359 02f2 4889E5   		movq	%rsp, %rbp
 360              		.cfi_offset 6, -16
 361              	.LCFI13:
 362              		.cfi_def_cfa_register 6
 363 02f5 4883EC10 		subq	$16, %rsp
 364 02f9 48897DF8 		movq	%rdi, -8(%rbp)
 365 02fd 488975F0 		movq	%rsi, -16(%rbp)
 191:/home/rodarmer/sra_sdk-2.3.1/libs/krypto/cipher-vec.c ****     assert (self);
 366              		.loc 1 191 0
 367 0301 48837DF8 		cmpq	$0, -8(%rbp)
 367      00
 368 0306 751F     		jne	.L29
 369 0308 488D0D00 		leaq	__PRETTY_FUNCTION__.6621(%rip), %rcx
 369      000000
 370 030f BABF0000 		movl	$191, %edx
 370      00
 371 0314 488D3500 		leaq	.LC0(%rip), %rsi
 371      000000
 372 031b 488D3D00 		leaq	.LC1(%rip), %rdi
 372      000000
 373 0322 E8000000 		call	__assert_fail@PLT
 373      00
 374              	.L29:
 192:/home/rodarmer/sra_sdk-2.3.1/libs/krypto/cipher-vec.c ****     assert (ivec);
 375              		.loc 1 192 0
 376 0327 48837DF0 		cmpq	$0, -16(%rbp)
 376      00
 377 032c 751F     		jne	.L30
 378 032e 488D0D00 		leaq	__PRETTY_FUNCTION__.6621(%rip), %rcx
 378      000000
 379 0335 BAC00000 		movl	$192, %edx
 379      00
 380 033a 488D3500 		leaq	.LC0(%rip), %rsi
 380      000000
 381 0341 488D3D00 		leaq	.LC4(%rip), %rdi
 381      000000
 382 0348 E8000000 		call	__assert_fail@PLT
 382      00
 383              	.L30:
 193:/home/rodarmer/sra_sdk-2.3.1/libs/krypto/cipher-vec.c **** 
 194:/home/rodarmer/sra_sdk-2.3.1/libs/krypto/cipher-vec.c ****     memcpy (self->dad.decrypt_ivec, ivec, self->dad.block_size);
 384              		.loc 1 194 0
 385 034d 488B45F8 		movq	-8(%rbp), %rax
 386 0351 8B4004   		movl	4(%rax), %eax
 387 0354 89C2     		mov	%eax, %edx
 388 0356 488B45F8 		movq	-8(%rbp), %rax
 389 035a 488B4030 		movq	48(%rax), %rax
GAS LISTING /tmp/ccQ6OdaV.s 			page 13


 390 035e 488B4DF0 		movq	-16(%rbp), %rcx
 391 0362 4889CE   		movq	%rcx, %rsi
 392 0365 4889C7   		movq	%rax, %rdi
 393 0368 E8000000 		call	memcpy@PLT
 393      00
 195:/home/rodarmer/sra_sdk-2.3.1/libs/krypto/cipher-vec.c **** 
 196:/home/rodarmer/sra_sdk-2.3.1/libs/krypto/cipher-vec.c ****     return 0;
 394              		.loc 1 196 0
 395 036d B8000000 		movl	$0, %eax
 395      00
 197:/home/rodarmer/sra_sdk-2.3.1/libs/krypto/cipher-vec.c **** }
 396              		.loc 1 197 0
 397 0372 C9       		leave
 398 0373 C3       		ret
 399              		.cfi_endproc
 400              	.LFE514:
 401              		.size	KCipherVecSetDecryptIvec, .-KCipherVecSetDecryptIvec
 402              		.section	.rodata
 403              	.LC5:
 404 0067 66756E63 		.string	"func"
 404      00
 405              		.text
 406              		.type	KCipherVecSetEncryptCounterFunc, @function
 407              	KCipherVecSetEncryptCounterFunc:
 408              	.LFB515:
 198:/home/rodarmer/sra_sdk-2.3.1/libs/krypto/cipher-vec.c **** 
 199:/home/rodarmer/sra_sdk-2.3.1/libs/krypto/cipher-vec.c **** 
 200:/home/rodarmer/sra_sdk-2.3.1/libs/krypto/cipher-vec.c **** static
 201:/home/rodarmer/sra_sdk-2.3.1/libs/krypto/cipher-vec.c **** rc_t CMEMBER(SetEncryptCounterFunc) (CIPHER_IMPL * self,
 202:/home/rodarmer/sra_sdk-2.3.1/libs/krypto/cipher-vec.c ****                                     cipher_ctr_func func)
 203:/home/rodarmer/sra_sdk-2.3.1/libs/krypto/cipher-vec.c **** {
 409              		.loc 1 203 0
 410              		.cfi_startproc
 411 0374 55       		pushq	%rbp
 412              	.LCFI14:
 413              		.cfi_def_cfa_offset 16
 414 0375 4889E5   		movq	%rsp, %rbp
 415              		.cfi_offset 6, -16
 416              	.LCFI15:
 417              		.cfi_def_cfa_register 6
 418 0378 4883EC10 		subq	$16, %rsp
 419 037c 48897DF8 		movq	%rdi, -8(%rbp)
 420 0380 488975F0 		movq	%rsi, -16(%rbp)
 204:/home/rodarmer/sra_sdk-2.3.1/libs/krypto/cipher-vec.c ****     assert (self);
 421              		.loc 1 204 0
 422 0384 48837DF8 		cmpq	$0, -8(%rbp)
 422      00
 423 0389 751F     		jne	.L33
 424 038b 488D0D00 		leaq	__PRETTY_FUNCTION__.6634(%rip), %rcx
 424      000000
 425 0392 BACC0000 		movl	$204, %edx
 425      00
 426 0397 488D3500 		leaq	.LC0(%rip), %rsi
 426      000000
 427 039e 488D3D00 		leaq	.LC1(%rip), %rdi
 427      000000
 428 03a5 E8000000 		call	__assert_fail@PLT
GAS LISTING /tmp/ccQ6OdaV.s 			page 14


 428      00
 429              	.L33:
 205:/home/rodarmer/sra_sdk-2.3.1/libs/krypto/cipher-vec.c ****     assert (func);
 430              		.loc 1 205 0
 431 03aa 48837DF0 		cmpq	$0, -16(%rbp)
 431      00
 432 03af 751F     		jne	.L34
 433 03b1 488D0D00 		leaq	__PRETTY_FUNCTION__.6634(%rip), %rcx
 433      000000
 434 03b8 BACD0000 		movl	$205, %edx
 434      00
 435 03bd 488D3500 		leaq	.LC0(%rip), %rsi
 435      000000
 436 03c4 488D3D00 		leaq	.LC5(%rip), %rdi
 436      000000
 437 03cb E8000000 		call	__assert_fail@PLT
 437      00
 438              	.L34:
 206:/home/rodarmer/sra_sdk-2.3.1/libs/krypto/cipher-vec.c **** 
 207:/home/rodarmer/sra_sdk-2.3.1/libs/krypto/cipher-vec.c ****     self->dad.encrypt_counter_func = func;
 439              		.loc 1 207 0
 440 03d0 488B45F8 		movq	-8(%rbp), %rax
 441 03d4 488B55F0 		movq	-16(%rbp), %rdx
 442 03d8 48895038 		movq	%rdx, 56(%rax)
 208:/home/rodarmer/sra_sdk-2.3.1/libs/krypto/cipher-vec.c **** 
 209:/home/rodarmer/sra_sdk-2.3.1/libs/krypto/cipher-vec.c ****     return 0;
 443              		.loc 1 209 0
 444 03dc B8000000 		movl	$0, %eax
 444      00
 210:/home/rodarmer/sra_sdk-2.3.1/libs/krypto/cipher-vec.c **** }
 445              		.loc 1 210 0
 446 03e1 C9       		leave
 447 03e2 C3       		ret
 448              		.cfi_endproc
 449              	.LFE515:
 450              		.size	KCipherVecSetEncryptCounterFunc, .-KCipherVecSetEncryptCounterFunc
 451              		.type	KCipherVecSetDecryptCounterFunc, @function
 452              	KCipherVecSetDecryptCounterFunc:
 453              	.LFB516:
 211:/home/rodarmer/sra_sdk-2.3.1/libs/krypto/cipher-vec.c **** 
 212:/home/rodarmer/sra_sdk-2.3.1/libs/krypto/cipher-vec.c **** 
 213:/home/rodarmer/sra_sdk-2.3.1/libs/krypto/cipher-vec.c **** static
 214:/home/rodarmer/sra_sdk-2.3.1/libs/krypto/cipher-vec.c **** rc_t CMEMBER(SetDecryptCounterFunc) (CIPHER_IMPL * self,
 215:/home/rodarmer/sra_sdk-2.3.1/libs/krypto/cipher-vec.c ****                                     cipher_ctr_func func)
 216:/home/rodarmer/sra_sdk-2.3.1/libs/krypto/cipher-vec.c **** {
 454              		.loc 1 216 0
 455              		.cfi_startproc
 456 03e3 55       		pushq	%rbp
 457              	.LCFI16:
 458              		.cfi_def_cfa_offset 16
 459 03e4 4889E5   		movq	%rsp, %rbp
 460              		.cfi_offset 6, -16
 461              	.LCFI17:
 462              		.cfi_def_cfa_register 6
 463 03e7 4883EC10 		subq	$16, %rsp
 464 03eb 48897DF8 		movq	%rdi, -8(%rbp)
 465 03ef 488975F0 		movq	%rsi, -16(%rbp)
GAS LISTING /tmp/ccQ6OdaV.s 			page 15


 217:/home/rodarmer/sra_sdk-2.3.1/libs/krypto/cipher-vec.c ****     assert (self);
 466              		.loc 1 217 0
 467 03f3 48837DF8 		cmpq	$0, -8(%rbp)
 467      00
 468 03f8 751F     		jne	.L37
 469 03fa 488D0D00 		leaq	__PRETTY_FUNCTION__.6644(%rip), %rcx
 469      000000
 470 0401 BAD90000 		movl	$217, %edx
 470      00
 471 0406 488D3500 		leaq	.LC0(%rip), %rsi
 471      000000
 472 040d 488D3D00 		leaq	.LC1(%rip), %rdi
 472      000000
 473 0414 E8000000 		call	__assert_fail@PLT
 473      00
 474              	.L37:
 218:/home/rodarmer/sra_sdk-2.3.1/libs/krypto/cipher-vec.c ****     assert (func);
 475              		.loc 1 218 0
 476 0419 48837DF0 		cmpq	$0, -16(%rbp)
 476      00
 477 041e 751F     		jne	.L38
 478 0420 488D0D00 		leaq	__PRETTY_FUNCTION__.6644(%rip), %rcx
 478      000000
 479 0427 BADA0000 		movl	$218, %edx
 479      00
 480 042c 488D3500 		leaq	.LC0(%rip), %rsi
 480      000000
 481 0433 488D3D00 		leaq	.LC5(%rip), %rdi
 481      000000
 482 043a E8000000 		call	__assert_fail@PLT
 482      00
 483              	.L38:
 219:/home/rodarmer/sra_sdk-2.3.1/libs/krypto/cipher-vec.c **** 
 220:/home/rodarmer/sra_sdk-2.3.1/libs/krypto/cipher-vec.c ****     self->dad.decrypt_counter_func = func;
 484              		.loc 1 220 0
 485 043f 488B45F8 		movq	-8(%rbp), %rax
 486 0443 488B55F0 		movq	-16(%rbp), %rdx
 487 0447 48895040 		movq	%rdx, 64(%rax)
 221:/home/rodarmer/sra_sdk-2.3.1/libs/krypto/cipher-vec.c **** 
 222:/home/rodarmer/sra_sdk-2.3.1/libs/krypto/cipher-vec.c ****     return 0;
 488              		.loc 1 222 0
 489 044b B8000000 		movl	$0, %eax
 489      00
 223:/home/rodarmer/sra_sdk-2.3.1/libs/krypto/cipher-vec.c **** }
 490              		.loc 1 223 0
 491 0450 C9       		leave
 492 0451 C3       		ret
 493              		.cfi_endproc
 494              	.LFE516:
 495              		.size	KCipherVecSetDecryptCounterFunc, .-KCipherVecSetDecryptCounterFunc
 496              		.type	KCipherVecEncryptV1, @function
 497              	KCipherVecEncryptV1:
 498              	.LFB517:
 224:/home/rodarmer/sra_sdk-2.3.1/libs/krypto/cipher-vec.c **** 
 225:/home/rodarmer/sra_sdk-2.3.1/libs/krypto/cipher-vec.c **** 
 226:/home/rodarmer/sra_sdk-2.3.1/libs/krypto/cipher-vec.c **** static CipherVec __inline__ CMEMBER(EncryptV1)(const CIPHER_IMPL * self,
 227:/home/rodarmer/sra_sdk-2.3.1/libs/krypto/cipher-vec.c ****                                               register CipherVec cv)
GAS LISTING /tmp/ccQ6OdaV.s 			page 16


 228:/home/rodarmer/sra_sdk-2.3.1/libs/krypto/cipher-vec.c **** {
 499              		.loc 1 228 0
 500              		.cfi_startproc
 501 0452 55       		pushq	%rbp
 502              	.LCFI18:
 503              		.cfi_def_cfa_offset 16
 504 0453 4889E5   		movq	%rsp, %rbp
 505              		.cfi_offset 6, -16
 506              	.LCFI19:
 507              		.cfi_def_cfa_register 6
 508 0456 4883EC10 		subq	$16, %rsp
 509 045a 48897DF8 		movq	%rdi, -8(%rbp)
 229:/home/rodarmer/sra_sdk-2.3.1/libs/krypto/cipher-vec.c ****     return self->block_cipher->v1.encrypt (cv, self->dad.encrypt_key);
 510              		.loc 1 229 0
 511 045e 488B45F8 		movq	-8(%rbp), %rax
 512 0462 488B4048 		movq	72(%rax), %rax
 513 0466 488B5030 		movq	48(%rax), %rdx
 514 046a 488B45F8 		movq	-8(%rbp), %rax
 515 046e 488B4018 		movq	24(%rax), %rax
 516 0472 4889C7   		movq	%rax, %rdi
 517 0475 FFD2     		call	*%rdx
 230:/home/rodarmer/sra_sdk-2.3.1/libs/krypto/cipher-vec.c **** }
 518              		.loc 1 230 0
 519 0477 C9       		leave
 520 0478 C3       		ret
 521              		.cfi_endproc
 522              	.LFE517:
 523              		.size	KCipherVecEncryptV1, .-KCipherVecEncryptV1
 524              		.type	KCipherVecDecryptV1, @function
 525              	KCipherVecDecryptV1:
 526              	.LFB518:
 231:/home/rodarmer/sra_sdk-2.3.1/libs/krypto/cipher-vec.c **** 
 232:/home/rodarmer/sra_sdk-2.3.1/libs/krypto/cipher-vec.c **** 
 233:/home/rodarmer/sra_sdk-2.3.1/libs/krypto/cipher-vec.c **** static CipherVec __inline__ CMEMBER(DecryptV1)(const CIPHER_IMPL * self,
 234:/home/rodarmer/sra_sdk-2.3.1/libs/krypto/cipher-vec.c ****                                               register CipherVec cv)
 235:/home/rodarmer/sra_sdk-2.3.1/libs/krypto/cipher-vec.c **** {
 527              		.loc 1 235 0
 528              		.cfi_startproc
 529 0479 55       		pushq	%rbp
 530              	.LCFI20:
 531              		.cfi_def_cfa_offset 16
 532 047a 4889E5   		movq	%rsp, %rbp
 533              		.cfi_offset 6, -16
 534              	.LCFI21:
 535              		.cfi_def_cfa_register 6
 536 047d 4883EC10 		subq	$16, %rsp
 537 0481 48897DF8 		movq	%rdi, -8(%rbp)
 236:/home/rodarmer/sra_sdk-2.3.1/libs/krypto/cipher-vec.c ****     return self->block_cipher->v1.decrypt (cv, self->dad.decrypt_key);
 538              		.loc 1 236 0
 539 0485 488B45F8 		movq	-8(%rbp), %rax
 540 0489 488B4048 		movq	72(%rax), %rax
 541 048d 488B5038 		movq	56(%rax), %rdx
 542 0491 488B45F8 		movq	-8(%rbp), %rax
 543 0495 488B4020 		movq	32(%rax), %rax
 544 0499 4889C7   		movq	%rax, %rdi
 545 049c FFD2     		call	*%rdx
 237:/home/rodarmer/sra_sdk-2.3.1/libs/krypto/cipher-vec.c **** }
GAS LISTING /tmp/ccQ6OdaV.s 			page 17


 546              		.loc 1 237 0
 547 049e C9       		leave
 548 049f C3       		ret
 549              		.cfi_endproc
 550              	.LFE518:
 551              		.size	KCipherVecDecryptV1, .-KCipherVecDecryptV1
 552              		.type	KCipherVecEncryptV1Int, @function
 553              	KCipherVecEncryptV1Int:
 554              	.LFB519:
 238:/home/rodarmer/sra_sdk-2.3.1/libs/krypto/cipher-vec.c **** 
 239:/home/rodarmer/sra_sdk-2.3.1/libs/krypto/cipher-vec.c **** 
 240:/home/rodarmer/sra_sdk-2.3.1/libs/krypto/cipher-vec.c **** static rc_t __inline__ CMEMBER(EncryptV1Int)(const CIPHER_IMPL * self,
 241:/home/rodarmer/sra_sdk-2.3.1/libs/krypto/cipher-vec.c ****                                             const void * in, void * out)
 242:/home/rodarmer/sra_sdk-2.3.1/libs/krypto/cipher-vec.c **** {
 555              		.loc 1 242 0
 556              		.cfi_startproc
 557 04a0 55       		pushq	%rbp
 558              	.LCFI22:
 559              		.cfi_def_cfa_offset 16
 560 04a1 4889E5   		movq	%rsp, %rbp
 561              		.cfi_offset 6, -16
 562              	.LCFI23:
 563              		.cfi_def_cfa_register 6
 564 04a4 4883EC30 		subq	$48, %rsp
 565 04a8 48897DE8 		movq	%rdi, -24(%rbp)
 566 04ac 488975E0 		movq	%rsi, -32(%rbp)
 567 04b0 488955D8 		movq	%rdx, -40(%rbp)
 243:/home/rodarmer/sra_sdk-2.3.1/libs/krypto/cipher-vec.c ****     CipherVec cv;
 244:/home/rodarmer/sra_sdk-2.3.1/libs/krypto/cipher-vec.c **** 
 245:/home/rodarmer/sra_sdk-2.3.1/libs/krypto/cipher-vec.c ****     cv = CipherVecIn(in);
 568              		.loc 1 245 0
 569 04b4 488B45E0 		movq	-32(%rbp), %rax
 570 04b8 4889C7   		movq	%rax, %rdi
 571 04bb E840FBFF 		call	CipherVecIn
 571      FF
 572 04c0 F30F7F45 		movdqu	%xmm0, -16(%rbp)
 572      F0
 246:/home/rodarmer/sra_sdk-2.3.1/libs/krypto/cipher-vec.c ****     cv = CMEMBER(EncryptV1)(self, cv);
 573              		.loc 1 246 0
 574 04c5 F30F6F45 		movdqu	-16(%rbp), %xmm0
 574      F0
 575 04ca 488B45E8 		movq	-24(%rbp), %rax
 576 04ce 4889C7   		movq	%rax, %rdi
 577 04d1 E87CFFFF 		call	KCipherVecEncryptV1
 577      FF
 578 04d6 F30F7F45 		movdqu	%xmm0, -16(%rbp)
 578      F0
 247:/home/rodarmer/sra_sdk-2.3.1/libs/krypto/cipher-vec.c ****     CipherVecOut(cv, out);
 579              		.loc 1 247 0
 580 04db 488B45D8 		movq	-40(%rbp), %rax
 581 04df F30F6F45 		movdqu	-16(%rbp), %xmm0
 581      F0
 582 04e4 4889C7   		movq	%rax, %rdi
 583 04e7 E83FFBFF 		call	CipherVecOut
 583      FF
 248:/home/rodarmer/sra_sdk-2.3.1/libs/krypto/cipher-vec.c ****     return 0;
 584              		.loc 1 248 0
GAS LISTING /tmp/ccQ6OdaV.s 			page 18


 585 04ec B8000000 		movl	$0, %eax
 585      00
 249:/home/rodarmer/sra_sdk-2.3.1/libs/krypto/cipher-vec.c **** }
 586              		.loc 1 249 0
 587 04f1 C9       		leave
 588 04f2 C3       		ret
 589              		.cfi_endproc
 590              	.LFE519:
 591              		.size	KCipherVecEncryptV1Int, .-KCipherVecEncryptV1Int
 592              		.type	KCipherVecDecryptV1Int, @function
 593              	KCipherVecDecryptV1Int:
 594              	.LFB520:
 250:/home/rodarmer/sra_sdk-2.3.1/libs/krypto/cipher-vec.c **** 
 251:/home/rodarmer/sra_sdk-2.3.1/libs/krypto/cipher-vec.c **** 
 252:/home/rodarmer/sra_sdk-2.3.1/libs/krypto/cipher-vec.c **** static rc_t __inline__ CMEMBER(DecryptV1Int)(const CIPHER_IMPL * self,
 253:/home/rodarmer/sra_sdk-2.3.1/libs/krypto/cipher-vec.c ****                                             const void * in, void * out)
 254:/home/rodarmer/sra_sdk-2.3.1/libs/krypto/cipher-vec.c **** {
 595              		.loc 1 254 0
 596              		.cfi_startproc
 597 04f3 55       		pushq	%rbp
 598              	.LCFI24:
 599              		.cfi_def_cfa_offset 16
 600 04f4 4889E5   		movq	%rsp, %rbp
 601              		.cfi_offset 6, -16
 602              	.LCFI25:
 603              		.cfi_def_cfa_register 6
 604 04f7 4883EC30 		subq	$48, %rsp
 605 04fb 48897DE8 		movq	%rdi, -24(%rbp)
 606 04ff 488975E0 		movq	%rsi, -32(%rbp)
 607 0503 488955D8 		movq	%rdx, -40(%rbp)
 255:/home/rodarmer/sra_sdk-2.3.1/libs/krypto/cipher-vec.c ****     CipherVec cv;
 256:/home/rodarmer/sra_sdk-2.3.1/libs/krypto/cipher-vec.c **** 
 257:/home/rodarmer/sra_sdk-2.3.1/libs/krypto/cipher-vec.c ****     cv = CipherVecIn(in);
 608              		.loc 1 257 0
 609 0507 488B45E0 		movq	-32(%rbp), %rax
 610 050b 4889C7   		movq	%rax, %rdi
 611 050e E8EDFAFF 		call	CipherVecIn
 611      FF
 612 0513 F30F7F45 		movdqu	%xmm0, -16(%rbp)
 612      F0
 258:/home/rodarmer/sra_sdk-2.3.1/libs/krypto/cipher-vec.c ****     cv = CMEMBER(DecryptV1)(self, cv);
 613              		.loc 1 258 0
 614 0518 F30F6F45 		movdqu	-16(%rbp), %xmm0
 614      F0
 615 051d 488B45E8 		movq	-24(%rbp), %rax
 616 0521 4889C7   		movq	%rax, %rdi
 617 0524 E850FFFF 		call	KCipherVecDecryptV1
 617      FF
 618 0529 F30F7F45 		movdqu	%xmm0, -16(%rbp)
 618      F0
 259:/home/rodarmer/sra_sdk-2.3.1/libs/krypto/cipher-vec.c ****     CipherVecOut(cv, out);
 619              		.loc 1 259 0
 620 052e 488B45D8 		movq	-40(%rbp), %rax
 621 0532 F30F6F45 		movdqu	-16(%rbp), %xmm0
 621      F0
 622 0537 4889C7   		movq	%rax, %rdi
 623 053a E8ECFAFF 		call	CipherVecOut
GAS LISTING /tmp/ccQ6OdaV.s 			page 19


 623      FF
 260:/home/rodarmer/sra_sdk-2.3.1/libs/krypto/cipher-vec.c ****     return 0;
 624              		.loc 1 260 0
 625 053f B8000000 		movl	$0, %eax
 625      00
 261:/home/rodarmer/sra_sdk-2.3.1/libs/krypto/cipher-vec.c **** }
 626              		.loc 1 261 0
 627 0544 C9       		leave
 628 0545 C3       		ret
 629              		.cfi_endproc
 630              	.LFE520:
 631              		.size	KCipherVecDecryptV1Int, .-KCipherVecDecryptV1Int
 632              		.type	KCipherVecEncrypt, @function
 633              	KCipherVecEncrypt:
 634              	.LFB521:
 262:/home/rodarmer/sra_sdk-2.3.1/libs/krypto/cipher-vec.c **** 
 263:/home/rodarmer/sra_sdk-2.3.1/libs/krypto/cipher-vec.c **** 
 264:/home/rodarmer/sra_sdk-2.3.1/libs/krypto/cipher-vec.c **** static rc_t CMEMBER(Encrypt) (const CIPHER_IMPL * self, const void * in, void * out)
 265:/home/rodarmer/sra_sdk-2.3.1/libs/krypto/cipher-vec.c **** {
 635              		.loc 1 265 0
 636              		.cfi_startproc
 637 0546 55       		pushq	%rbp
 638              	.LCFI26:
 639              		.cfi_def_cfa_offset 16
 640 0547 4889E5   		movq	%rsp, %rbp
 641              		.cfi_offset 6, -16
 642              	.LCFI27:
 643              		.cfi_def_cfa_register 6
 644 054a 4883EC30 		subq	$48, %rsp
 645 054e 48897DE8 		movq	%rdi, -24(%rbp)
 646 0552 488975E0 		movq	%rsi, -32(%rbp)
 647 0556 488955D8 		movq	%rdx, -40(%rbp)
 266:/home/rodarmer/sra_sdk-2.3.1/libs/krypto/cipher-vec.c ****     rc_t rc;
 267:/home/rodarmer/sra_sdk-2.3.1/libs/krypto/cipher-vec.c **** 
 268:/home/rodarmer/sra_sdk-2.3.1/libs/krypto/cipher-vec.c ****     switch (self->block_cipher->version.maj)
 648              		.loc 1 268 0
 649 055a 488B45E8 		movq	-24(%rbp), %rax
 650 055e 488B4048 		movq	72(%rax), %rax
 651 0562 8B00     		movl	(%rax), %eax
 652 0564 83F801   		cmpl	$1, %eax
 653 0567 7422     		je	.L50
 269:/home/rodarmer/sra_sdk-2.3.1/libs/krypto/cipher-vec.c ****     {
 270:/home/rodarmer/sra_sdk-2.3.1/libs/krypto/cipher-vec.c ****     default:
 271:/home/rodarmer/sra_sdk-2.3.1/libs/krypto/cipher-vec.c ****         rc = RC (rcKrypto, rcCipher, rcEncoding, rcBlockCipher, rcBadVersion);
 654              		.loc 1 271 0
 655 0569 B90F0100 		movl	$271, %ecx
 655      00
 656 056e 488D1500 		leaq	__func__.6694(%rip), %rdx
 656      000000
 657 0575 488D3500 		leaq	.LC0(%rip), %rsi
 657      000000
 658 057c BF080E09 		movl	$-2029449720, %edi
 658      87
 659 0581 E8000000 		call	SetRCFileFuncLine@PLT
 659      00
 660 0586 8945FC   		movl	%eax, -4(%rbp)
 272:/home/rodarmer/sra_sdk-2.3.1/libs/krypto/cipher-vec.c ****         break;
GAS LISTING /tmp/ccQ6OdaV.s 			page 20


 661              		.loc 1 272 0
 662 0589 EB1A     		jmp	.L51
 663              	.L50:
 273:/home/rodarmer/sra_sdk-2.3.1/libs/krypto/cipher-vec.c **** 
 274:/home/rodarmer/sra_sdk-2.3.1/libs/krypto/cipher-vec.c ****     case 1:
 275:/home/rodarmer/sra_sdk-2.3.1/libs/krypto/cipher-vec.c ****         rc = CMEMBER(EncryptV1Int)(self, in, out);
 664              		.loc 1 275 0
 665 058b 488B55D8 		movq	-40(%rbp), %rdx
 666 058f 488B4DE0 		movq	-32(%rbp), %rcx
 667 0593 488B45E8 		movq	-24(%rbp), %rax
 668 0597 4889CE   		movq	%rcx, %rsi
 669 059a 4889C7   		movq	%rax, %rdi
 670 059d E8FEFEFF 		call	KCipherVecEncryptV1Int
 670      FF
 671 05a2 8945FC   		movl	%eax, -4(%rbp)
 672              	.L51:
 276:/home/rodarmer/sra_sdk-2.3.1/libs/krypto/cipher-vec.c ****         break;
 277:/home/rodarmer/sra_sdk-2.3.1/libs/krypto/cipher-vec.c ****     }
 278:/home/rodarmer/sra_sdk-2.3.1/libs/krypto/cipher-vec.c **** 
 279:/home/rodarmer/sra_sdk-2.3.1/libs/krypto/cipher-vec.c ****     return rc;
 673              		.loc 1 279 0
 674 05a5 8B45FC   		movl	-4(%rbp), %eax
 280:/home/rodarmer/sra_sdk-2.3.1/libs/krypto/cipher-vec.c **** }
 675              		.loc 1 280 0
 676 05a8 C9       		leave
 677 05a9 C3       		ret
 678              		.cfi_endproc
 679              	.LFE521:
 680              		.size	KCipherVecEncrypt, .-KCipherVecEncrypt
 681              		.type	KCipherVecDecrypt, @function
 682              	KCipherVecDecrypt:
 683              	.LFB522:
 281:/home/rodarmer/sra_sdk-2.3.1/libs/krypto/cipher-vec.c **** 
 282:/home/rodarmer/sra_sdk-2.3.1/libs/krypto/cipher-vec.c **** 
 283:/home/rodarmer/sra_sdk-2.3.1/libs/krypto/cipher-vec.c **** static
 284:/home/rodarmer/sra_sdk-2.3.1/libs/krypto/cipher-vec.c **** rc_t CMEMBER(Decrypt) (const CIPHER_IMPL * self, const void * in, void * out)
 285:/home/rodarmer/sra_sdk-2.3.1/libs/krypto/cipher-vec.c **** {
 684              		.loc 1 285 0
 685              		.cfi_startproc
 686 05aa 55       		pushq	%rbp
 687              	.LCFI28:
 688              		.cfi_def_cfa_offset 16
 689 05ab 4889E5   		movq	%rsp, %rbp
 690              		.cfi_offset 6, -16
 691              	.LCFI29:
 692              		.cfi_def_cfa_register 6
 693 05ae 4883EC30 		subq	$48, %rsp
 694 05b2 48897DE8 		movq	%rdi, -24(%rbp)
 695 05b6 488975E0 		movq	%rsi, -32(%rbp)
 696 05ba 488955D8 		movq	%rdx, -40(%rbp)
 286:/home/rodarmer/sra_sdk-2.3.1/libs/krypto/cipher-vec.c ****     rc_t rc = 0;
 697              		.loc 1 286 0
 698 05be C745FC00 		movl	$0, -4(%rbp)
 698      000000
 287:/home/rodarmer/sra_sdk-2.3.1/libs/krypto/cipher-vec.c **** 
 288:/home/rodarmer/sra_sdk-2.3.1/libs/krypto/cipher-vec.c ****     switch (self->block_cipher->version.maj)
 699              		.loc 1 288 0
GAS LISTING /tmp/ccQ6OdaV.s 			page 21


 700 05c5 488B45E8 		movq	-24(%rbp), %rax
 701 05c9 488B4048 		movq	72(%rax), %rax
 702 05cd 8B00     		movl	(%rax), %eax
 703 05cf 83F801   		cmpl	$1, %eax
 704 05d2 7422     		je	.L55
 289:/home/rodarmer/sra_sdk-2.3.1/libs/krypto/cipher-vec.c ****     {
 290:/home/rodarmer/sra_sdk-2.3.1/libs/krypto/cipher-vec.c ****     default:
 291:/home/rodarmer/sra_sdk-2.3.1/libs/krypto/cipher-vec.c ****         rc = RC (rcKrypto, rcCipher, rcEncoding, rcBlockCipher, rcBadVersion);
 705              		.loc 1 291 0
 706 05d4 B9230100 		movl	$291, %ecx
 706      00
 707 05d9 488D1500 		leaq	__func__.6710(%rip), %rdx
 707      000000
 708 05e0 488D3500 		leaq	.LC0(%rip), %rsi
 708      000000
 709 05e7 BF080E09 		movl	$-2029449720, %edi
 709      87
 710 05ec E8000000 		call	SetRCFileFuncLine@PLT
 710      00
 711 05f1 8945FC   		movl	%eax, -4(%rbp)
 292:/home/rodarmer/sra_sdk-2.3.1/libs/krypto/cipher-vec.c ****         break;
 712              		.loc 1 292 0
 713 05f4 EB1A     		jmp	.L56
 714              	.L55:
 293:/home/rodarmer/sra_sdk-2.3.1/libs/krypto/cipher-vec.c **** 
 294:/home/rodarmer/sra_sdk-2.3.1/libs/krypto/cipher-vec.c ****     case 1:
 295:/home/rodarmer/sra_sdk-2.3.1/libs/krypto/cipher-vec.c ****         rc = CMEMBER(DecryptV1Int)(self, in, out);
 715              		.loc 1 295 0
 716 05f6 488B55D8 		movq	-40(%rbp), %rdx
 717 05fa 488B4DE0 		movq	-32(%rbp), %rcx
 718 05fe 488B45E8 		movq	-24(%rbp), %rax
 719 0602 4889CE   		movq	%rcx, %rsi
 720 0605 4889C7   		movq	%rax, %rdi
 721 0608 E8E6FEFF 		call	KCipherVecDecryptV1Int
 721      FF
 722 060d 8945FC   		movl	%eax, -4(%rbp)
 723              	.L56:
 296:/home/rodarmer/sra_sdk-2.3.1/libs/krypto/cipher-vec.c ****         break;
 297:/home/rodarmer/sra_sdk-2.3.1/libs/krypto/cipher-vec.c ****     }
 298:/home/rodarmer/sra_sdk-2.3.1/libs/krypto/cipher-vec.c **** 
 299:/home/rodarmer/sra_sdk-2.3.1/libs/krypto/cipher-vec.c ****     return rc;
 724              		.loc 1 299 0
 725 0610 8B45FC   		movl	-4(%rbp), %eax
 300:/home/rodarmer/sra_sdk-2.3.1/libs/krypto/cipher-vec.c **** }
 726              		.loc 1 300 0
 727 0613 C9       		leave
 728 0614 C3       		ret
 729              		.cfi_endproc
 730              	.LFE522:
 731              		.size	KCipherVecDecrypt, .-KCipherVecDecrypt
 732              		.type	KCipherVecEncryptEcb, @function
 733              	KCipherVecEncryptEcb:
 734              	.LFB523:
 301:/home/rodarmer/sra_sdk-2.3.1/libs/krypto/cipher-vec.c **** 
 302:/home/rodarmer/sra_sdk-2.3.1/libs/krypto/cipher-vec.c **** 
 303:/home/rodarmer/sra_sdk-2.3.1/libs/krypto/cipher-vec.c **** /* ====================
 304:/home/rodarmer/sra_sdk-2.3.1/libs/krypto/cipher-vec.c ****  * longer runs of multiple blocks.
GAS LISTING /tmp/ccQ6OdaV.s 			page 22


 305:/home/rodarmer/sra_sdk-2.3.1/libs/krypto/cipher-vec.c ****  *
 306:/home/rodarmer/sra_sdk-2.3.1/libs/krypto/cipher-vec.c ****  * The algorithms are well defined and standard in most cases
 307:/home/rodarmer/sra_sdk-2.3.1/libs/krypto/cipher-vec.c ****  *
 308:/home/rodarmer/sra_sdk-2.3.1/libs/krypto/cipher-vec.c ****  * These aremore or elss equivalent to class functions as they do not depend upon
 309:/home/rodarmer/sra_sdk-2.3.1/libs/krypto/cipher-vec.c ****  * the operation of the cipher and the algorithms are independent of anything about
 310:/home/rodarmer/sra_sdk-2.3.1/libs/krypto/cipher-vec.c ****  * the cipher other than its block size.
 311:/home/rodarmer/sra_sdk-2.3.1/libs/krypto/cipher-vec.c ****  *
 312:/home/rodarmer/sra_sdk-2.3.1/libs/krypto/cipher-vec.c ****  * PT: plain text block
 313:/home/rodarmer/sra_sdk-2.3.1/libs/krypto/cipher-vec.c ****  * CT: cipher text block
 314:/home/rodarmer/sra_sdk-2.3.1/libs/krypto/cipher-vec.c ****  * EK: encryption key
 315:/home/rodarmer/sra_sdk-2.3.1/libs/krypto/cipher-vec.c ****  * DK: decryption key (might be sthe same as EK)
 316:/home/rodarmer/sra_sdk-2.3.1/libs/krypto/cipher-vec.c ****  * ENC: encrypt cipher function on a block using a key
 317:/home/rodarmer/sra_sdk-2.3.1/libs/krypto/cipher-vec.c ****  * DEC: decrypt cipher function on a block using a key
 318:/home/rodarmer/sra_sdk-2.3.1/libs/krypto/cipher-vec.c ****  * IV: initialization vector - used as feedback for chaining
 319:/home/rodarmer/sra_sdk-2.3.1/libs/krypto/cipher-vec.c ****  * N:  number used once (nonce)
 320:/home/rodarmer/sra_sdk-2.3.1/libs/krypto/cipher-vec.c ****  * FB: feedback is the next IV in a chained/feedback mode
 321:/home/rodarmer/sra_sdk-2.3.1/libs/krypto/cipher-vec.c ****  */
 322:/home/rodarmer/sra_sdk-2.3.1/libs/krypto/cipher-vec.c **** 
 323:/home/rodarmer/sra_sdk-2.3.1/libs/krypto/cipher-vec.c **** 
 324:/home/rodarmer/sra_sdk-2.3.1/libs/krypto/cipher-vec.c **** /* -----
 325:/home/rodarmer/sra_sdk-2.3.1/libs/krypto/cipher-vec.c ****  * NOTE:
 326:/home/rodarmer/sra_sdk-2.3.1/libs/krypto/cipher-vec.c ****  * 'in' can be the same as 'out' but other overlaps are dangers as a block at a
 327:/home/rodarmer/sra_sdk-2.3.1/libs/krypto/cipher-vec.c ****  * time is written. The code does not look for overlaps at this point.
 328:/home/rodarmer/sra_sdk-2.3.1/libs/krypto/cipher-vec.c ****  */
 329:/home/rodarmer/sra_sdk-2.3.1/libs/krypto/cipher-vec.c **** 
 330:/home/rodarmer/sra_sdk-2.3.1/libs/krypto/cipher-vec.c **** /* ----------
 331:/home/rodarmer/sra_sdk-2.3.1/libs/krypto/cipher-vec.c ****  * Electronic Code Book - simple cipher with no chaining feedback  just iterate
 332:/home/rodarmer/sra_sdk-2.3.1/libs/krypto/cipher-vec.c ****  * simple encrypt/decrypt with the plain, text, cipher text and key/
 333:/home/rodarmer/sra_sdk-2.3.1/libs/krypto/cipher-vec.c ****  *
 334:/home/rodarmer/sra_sdk-2.3.1/libs/krypto/cipher-vec.c ****  * CT = ENC (PT,EK)
 335:/home/rodarmer/sra_sdk-2.3.1/libs/krypto/cipher-vec.c ****  * PT = DEC (CT,DK)
 336:/home/rodarmer/sra_sdk-2.3.1/libs/krypto/cipher-vec.c ****  */
 337:/home/rodarmer/sra_sdk-2.3.1/libs/krypto/cipher-vec.c **** 
 338:/home/rodarmer/sra_sdk-2.3.1/libs/krypto/cipher-vec.c **** /* -----
 339:/home/rodarmer/sra_sdk-2.3.1/libs/krypto/cipher-vec.c ****  * NOTE: currently an implmentation detail limits us to 8192 bit cipher block
 340:/home/rodarmer/sra_sdk-2.3.1/libs/krypto/cipher-vec.c ****  * size.  Changing MAX_BLOCK_SIZE in cipher.c can up that limit without 
 341:/home/rodarmer/sra_sdk-2.3.1/libs/krypto/cipher-vec.c ****  * causing any other compatibility issues. 
 342:/home/rodarmer/sra_sdk-2.3.1/libs/krypto/cipher-vec.c ****  *
 343:/home/rodarmer/sra_sdk-2.3.1/libs/krypto/cipher-vec.c ****  * Two local byte arrays are defined on the stack of 1024 bytes or 8192 bits.
 344:/home/rodarmer/sra_sdk-2.3.1/libs/krypto/cipher-vec.c ****  */
 345:/home/rodarmer/sra_sdk-2.3.1/libs/krypto/cipher-vec.c **** static
 346:/home/rodarmer/sra_sdk-2.3.1/libs/krypto/cipher-vec.c **** rc_t CMEMBER(EncryptEcb) (const CIPHER_IMPL * self, const void * in, void * out, uint32_t block_cou
 347:/home/rodarmer/sra_sdk-2.3.1/libs/krypto/cipher-vec.c **** {
 735              		.loc 1 347 0
 736              		.cfi_startproc
 737 0615 55       		pushq	%rbp
 738              	.LCFI30:
 739              		.cfi_def_cfa_offset 16
 740 0616 4889E5   		movq	%rsp, %rbp
 741              		.cfi_offset 6, -16
 742              	.LCFI31:
 743              		.cfi_def_cfa_register 6
 744 0619 4883EC30 		subq	$48, %rsp
 745 061d 48897DE8 		movq	%rdi, -24(%rbp)
 746 0621 488975E0 		movq	%rsi, -32(%rbp)
 747 0625 488955D8 		movq	%rdx, -40(%rbp)
 748 0629 894DD4   		movl	%ecx, -44(%rbp)
GAS LISTING /tmp/ccQ6OdaV.s 			page 23


 348:/home/rodarmer/sra_sdk-2.3.1/libs/krypto/cipher-vec.c ****     const uint8_t * pin;
 349:/home/rodarmer/sra_sdk-2.3.1/libs/krypto/cipher-vec.c ****     uint8_t * pout;
 350:/home/rodarmer/sra_sdk-2.3.1/libs/krypto/cipher-vec.c **** 
 351:/home/rodarmer/sra_sdk-2.3.1/libs/krypto/cipher-vec.c ****     for ((pin = in), (pout = out);
 749              		.loc 1 351 0
 750 062c 488B45E0 		movq	-32(%rbp), %rax
 751 0630 488945F0 		movq	%rax, -16(%rbp)
 752 0634 488B45D8 		movq	-40(%rbp), %rax
 753 0638 488945F8 		movq	%rax, -8(%rbp)
 754 063c EB31     		jmp	.L59
 755              	.L60:
 352:/home/rodarmer/sra_sdk-2.3.1/libs/krypto/cipher-vec.c ****          block_count --; 
 353:/home/rodarmer/sra_sdk-2.3.1/libs/krypto/cipher-vec.c ****          (pin += self->dad.block_size), (pout += self->dad.block_size))
 354:/home/rodarmer/sra_sdk-2.3.1/libs/krypto/cipher-vec.c ****     {
 355:/home/rodarmer/sra_sdk-2.3.1/libs/krypto/cipher-vec.c ****         CMEMBER(EncryptV1Int)(self, pin, pout);
 756              		.loc 1 355 0
 757 063e 488B55F8 		movq	-8(%rbp), %rdx
 758 0642 488B4DF0 		movq	-16(%rbp), %rcx
 759 0646 488B45E8 		movq	-24(%rbp), %rax
 760 064a 4889CE   		movq	%rcx, %rsi
 761 064d 4889C7   		movq	%rax, %rdi
 762 0650 E84BFEFF 		call	KCipherVecEncryptV1Int
 762      FF
 353:/home/rodarmer/sra_sdk-2.3.1/libs/krypto/cipher-vec.c ****          (pin += self->dad.block_size), (pout += self->dad.block_size))
 763              		.loc 1 353 0
 764 0655 488B45E8 		movq	-24(%rbp), %rax
 765 0659 8B4004   		movl	4(%rax), %eax
 766 065c 89C0     		mov	%eax, %eax
 767 065e 480145F0 		addq	%rax, -16(%rbp)
 768 0662 488B45E8 		movq	-24(%rbp), %rax
 769 0666 8B4004   		movl	4(%rax), %eax
 770 0669 89C0     		mov	%eax, %eax
 771 066b 480145F8 		addq	%rax, -8(%rbp)
 772              	.L59:
 352:/home/rodarmer/sra_sdk-2.3.1/libs/krypto/cipher-vec.c ****          block_count --; 
 773              		.loc 1 352 0
 774 066f 837DD400 		cmpl	$0, -44(%rbp)
 775 0673 0F95C0   		setne	%al
 776 0676 836DD401 		subl	$1, -44(%rbp)
 351:/home/rodarmer/sra_sdk-2.3.1/libs/krypto/cipher-vec.c ****     for ((pin = in), (pout = out);
 777              		.loc 1 351 0
 778 067a 84C0     		testb	%al, %al
 779 067c 75C0     		jne	.L60
 356:/home/rodarmer/sra_sdk-2.3.1/libs/krypto/cipher-vec.c ****     }
 357:/home/rodarmer/sra_sdk-2.3.1/libs/krypto/cipher-vec.c ****     return 0;
 780              		.loc 1 357 0
 781 067e B8000000 		movl	$0, %eax
 781      00
 358:/home/rodarmer/sra_sdk-2.3.1/libs/krypto/cipher-vec.c **** }
 782              		.loc 1 358 0
 783 0683 C9       		leave
 784 0684 C3       		ret
 785              		.cfi_endproc
 786              	.LFE523:
 787              		.size	KCipherVecEncryptEcb, .-KCipherVecEncryptEcb
 788              		.type	KCipherVecDecryptEcb, @function
 789              	KCipherVecDecryptEcb:
GAS LISTING /tmp/ccQ6OdaV.s 			page 24


 790              	.LFB524:
 359:/home/rodarmer/sra_sdk-2.3.1/libs/krypto/cipher-vec.c **** 
 360:/home/rodarmer/sra_sdk-2.3.1/libs/krypto/cipher-vec.c **** 
 361:/home/rodarmer/sra_sdk-2.3.1/libs/krypto/cipher-vec.c **** static
 362:/home/rodarmer/sra_sdk-2.3.1/libs/krypto/cipher-vec.c **** rc_t CMEMBER(DecryptEcb) (const CIPHER_IMPL * self, const void * in, void * out, uint32_t block_cou
 363:/home/rodarmer/sra_sdk-2.3.1/libs/krypto/cipher-vec.c **** {
 791              		.loc 1 363 0
 792              		.cfi_startproc
 793 0685 55       		pushq	%rbp
 794              	.LCFI32:
 795              		.cfi_def_cfa_offset 16
 796 0686 4889E5   		movq	%rsp, %rbp
 797              		.cfi_offset 6, -16
 798              	.LCFI33:
 799              		.cfi_def_cfa_register 6
 800 0689 4883EC30 		subq	$48, %rsp
 801 068d 48897DE8 		movq	%rdi, -24(%rbp)
 802 0691 488975E0 		movq	%rsi, -32(%rbp)
 803 0695 488955D8 		movq	%rdx, -40(%rbp)
 804 0699 894DD4   		movl	%ecx, -44(%rbp)
 364:/home/rodarmer/sra_sdk-2.3.1/libs/krypto/cipher-vec.c ****     const uint8_t * pin;
 365:/home/rodarmer/sra_sdk-2.3.1/libs/krypto/cipher-vec.c ****     uint8_t * pout;
 366:/home/rodarmer/sra_sdk-2.3.1/libs/krypto/cipher-vec.c **** 
 367:/home/rodarmer/sra_sdk-2.3.1/libs/krypto/cipher-vec.c ****     for ((pin = in), (pout = out);
 805              		.loc 1 367 0
 806 069c 488B45E0 		movq	-32(%rbp), %rax
 807 06a0 488945F0 		movq	%rax, -16(%rbp)
 808 06a4 488B45D8 		movq	-40(%rbp), %rax
 809 06a8 488945F8 		movq	%rax, -8(%rbp)
 810 06ac EB31     		jmp	.L63
 811              	.L64:
 368:/home/rodarmer/sra_sdk-2.3.1/libs/krypto/cipher-vec.c ****          block_count --; 
 369:/home/rodarmer/sra_sdk-2.3.1/libs/krypto/cipher-vec.c ****          (pin += self->dad.block_size), (pout += self->dad.block_size))
 370:/home/rodarmer/sra_sdk-2.3.1/libs/krypto/cipher-vec.c ****     {
 371:/home/rodarmer/sra_sdk-2.3.1/libs/krypto/cipher-vec.c ****         CMEMBER(DecryptV1Int)(self, pin, pout);
 812              		.loc 1 371 0
 813 06ae 488B55F8 		movq	-8(%rbp), %rdx
 814 06b2 488B4DF0 		movq	-16(%rbp), %rcx
 815 06b6 488B45E8 		movq	-24(%rbp), %rax
 816 06ba 4889CE   		movq	%rcx, %rsi
 817 06bd 4889C7   		movq	%rax, %rdi
 818 06c0 E82EFEFF 		call	KCipherVecDecryptV1Int
 818      FF
 369:/home/rodarmer/sra_sdk-2.3.1/libs/krypto/cipher-vec.c ****          (pin += self->dad.block_size), (pout += self->dad.block_size))
 819              		.loc 1 369 0
 820 06c5 488B45E8 		movq	-24(%rbp), %rax
 821 06c9 8B4004   		movl	4(%rax), %eax
 822 06cc 89C0     		mov	%eax, %eax
 823 06ce 480145F0 		addq	%rax, -16(%rbp)
 824 06d2 488B45E8 		movq	-24(%rbp), %rax
 825 06d6 8B4004   		movl	4(%rax), %eax
 826 06d9 89C0     		mov	%eax, %eax
 827 06db 480145F8 		addq	%rax, -8(%rbp)
 828              	.L63:
 368:/home/rodarmer/sra_sdk-2.3.1/libs/krypto/cipher-vec.c ****          block_count --; 
 829              		.loc 1 368 0
 830 06df 837DD400 		cmpl	$0, -44(%rbp)
GAS LISTING /tmp/ccQ6OdaV.s 			page 25


 831 06e3 0F95C0   		setne	%al
 832 06e6 836DD401 		subl	$1, -44(%rbp)
 367:/home/rodarmer/sra_sdk-2.3.1/libs/krypto/cipher-vec.c ****     for ((pin = in), (pout = out);
 833              		.loc 1 367 0
 834 06ea 84C0     		testb	%al, %al
 835 06ec 75C0     		jne	.L64
 372:/home/rodarmer/sra_sdk-2.3.1/libs/krypto/cipher-vec.c ****     }
 373:/home/rodarmer/sra_sdk-2.3.1/libs/krypto/cipher-vec.c **** 
 374:/home/rodarmer/sra_sdk-2.3.1/libs/krypto/cipher-vec.c ****     return 0;
 836              		.loc 1 374 0
 837 06ee B8000000 		movl	$0, %eax
 837      00
 375:/home/rodarmer/sra_sdk-2.3.1/libs/krypto/cipher-vec.c **** }
 838              		.loc 1 375 0
 839 06f3 C9       		leave
 840 06f4 C3       		ret
 841              		.cfi_endproc
 842              	.LFE524:
 843              		.size	KCipherVecDecryptEcb, .-KCipherVecDecryptEcb
 844              		.type	KCipherVecEncryptCbc, @function
 845              	KCipherVecEncryptCbc:
 846              	.LFB525:
 376:/home/rodarmer/sra_sdk-2.3.1/libs/krypto/cipher-vec.c **** 
 377:/home/rodarmer/sra_sdk-2.3.1/libs/krypto/cipher-vec.c **** 
 378:/home/rodarmer/sra_sdk-2.3.1/libs/krypto/cipher-vec.c **** /* ----------
 379:/home/rodarmer/sra_sdk-2.3.1/libs/krypto/cipher-vec.c ****  * Cipher-Block Chaining
 380:/home/rodarmer/sra_sdk-2.3.1/libs/krypto/cipher-vec.c ****  * CT = (FB = ENC (PT^IV, EK))
 381:/home/rodarmer/sra_sdk-2.3.1/libs/krypto/cipher-vec.c ****  * PT = DEC ((FB = CT), DK)
 382:/home/rodarmer/sra_sdk-2.3.1/libs/krypto/cipher-vec.c ****  */
 383:/home/rodarmer/sra_sdk-2.3.1/libs/krypto/cipher-vec.c **** static
 384:/home/rodarmer/sra_sdk-2.3.1/libs/krypto/cipher-vec.c **** rc_t CMEMBER(EncryptCbc) (CIPHER_IMPL * self, const void * in, void * out, uint32_t block_count)
 385:/home/rodarmer/sra_sdk-2.3.1/libs/krypto/cipher-vec.c **** {
 847              		.loc 1 385 0
 848              		.cfi_startproc
 849 06f5 55       		pushq	%rbp
 850              	.LCFI34:
 851              		.cfi_def_cfa_offset 16
 852 06f6 4889E5   		movq	%rsp, %rbp
 853              		.cfi_offset 6, -16
 854              	.LCFI35:
 855              		.cfi_def_cfa_register 6
 856 06f9 4883EC50 		subq	$80, %rsp
 857 06fd 48897DC8 		movq	%rdi, -56(%rbp)
 858 0701 488975C0 		movq	%rsi, -64(%rbp)
 859 0705 488955B8 		movq	%rdx, -72(%rbp)
 860 0709 894DB4   		movl	%ecx, -76(%rbp)
 386:/home/rodarmer/sra_sdk-2.3.1/libs/krypto/cipher-vec.c ****     CipherVec cv;
 387:/home/rodarmer/sra_sdk-2.3.1/libs/krypto/cipher-vec.c ****     CipherVec ivec;
 388:/home/rodarmer/sra_sdk-2.3.1/libs/krypto/cipher-vec.c ****     const uint8_t * pin;
 389:/home/rodarmer/sra_sdk-2.3.1/libs/krypto/cipher-vec.c ****     uint8_t * pout;
 390:/home/rodarmer/sra_sdk-2.3.1/libs/krypto/cipher-vec.c **** 
 391:/home/rodarmer/sra_sdk-2.3.1/libs/krypto/cipher-vec.c **** #if 0
 392:/home/rodarmer/sra_sdk-2.3.1/libs/krypto/cipher-vec.c ****     ivec = *(const CipherVec*)self->dad.encrypt_ivec;
 393:/home/rodarmer/sra_sdk-2.3.1/libs/krypto/cipher-vec.c **** #else
 394:/home/rodarmer/sra_sdk-2.3.1/libs/krypto/cipher-vec.c ****     ivec = CipherVecIn (self->dad.encrypt_ivec);
 861              		.loc 1 394 0
 862 070c 488B45C8 		movq	-56(%rbp), %rax
GAS LISTING /tmp/ccQ6OdaV.s 			page 26


 863 0710 488B4028 		movq	40(%rax), %rax
 864 0714 4889C7   		movq	%rax, %rdi
 865 0717 E8E4F8FF 		call	CipherVecIn
 865      FF
 866 071c F30F7F45 		movdqu	%xmm0, -32(%rbp)
 866      E0
 395:/home/rodarmer/sra_sdk-2.3.1/libs/krypto/cipher-vec.c **** #endif
 396:/home/rodarmer/sra_sdk-2.3.1/libs/krypto/cipher-vec.c **** 
 397:/home/rodarmer/sra_sdk-2.3.1/libs/krypto/cipher-vec.c ****     for ((pin = in), (pout = out);
 867              		.loc 1 397 0
 868 0721 488B45C0 		movq	-64(%rbp), %rax
 869 0725 488945F0 		movq	%rax, -16(%rbp)
 870 0729 488B45B8 		movq	-72(%rbp), %rax
 871 072d 488945F8 		movq	%rax, -8(%rbp)
 872 0731 EB65     		jmp	.L67
 873              	.L68:
 398:/home/rodarmer/sra_sdk-2.3.1/libs/krypto/cipher-vec.c ****          block_count --; 
 399:/home/rodarmer/sra_sdk-2.3.1/libs/krypto/cipher-vec.c ****          (pin += self->dad.block_size), (pout += self->dad.block_size))
 400:/home/rodarmer/sra_sdk-2.3.1/libs/krypto/cipher-vec.c ****     {
 401:/home/rodarmer/sra_sdk-2.3.1/libs/krypto/cipher-vec.c ****         cv = CipherVecIn (pin);
 874              		.loc 1 401 0
 875 0733 488B45F0 		movq	-16(%rbp), %rax
 876 0737 4889C7   		movq	%rax, %rdi
 877 073a E8C1F8FF 		call	CipherVecIn
 877      FF
 878 073f F30F7F45 		movdqu	%xmm0, -48(%rbp)
 878      D0
 402:/home/rodarmer/sra_sdk-2.3.1/libs/krypto/cipher-vec.c ****         cv ^= ivec;
 879              		.loc 1 402 0
 880 0744 F30F6F45 		movdqu	-32(%rbp), %xmm0
 880      E0
 881 0749 F30F6F4D 		movdqu	-48(%rbp), %xmm1
 881      D0
 882 074e 660FEFC1 		pxor	%xmm1, %xmm0
 883 0752 F30F7F45 		movdqu	%xmm0, -48(%rbp)
 883      D0
 403:/home/rodarmer/sra_sdk-2.3.1/libs/krypto/cipher-vec.c ****         ivec = CMEMBER(EncryptV1)(self, cv);
 884              		.loc 1 403 0
 885 0757 F30F6F45 		movdqu	-48(%rbp), %xmm0
 885      D0
 886 075c 488B45C8 		movq	-56(%rbp), %rax
 887 0760 4889C7   		movq	%rax, %rdi
 888 0763 E8EAFCFF 		call	KCipherVecEncryptV1
 888      FF
 889 0768 F30F7F45 		movdqu	%xmm0, -32(%rbp)
 889      E0
 404:/home/rodarmer/sra_sdk-2.3.1/libs/krypto/cipher-vec.c ****         CipherVecOut (ivec, pout);
 890              		.loc 1 404 0
 891 076d 488B45F8 		movq	-8(%rbp), %rax
 892 0771 F30F6F45 		movdqu	-32(%rbp), %xmm0
 892      E0
 893 0776 4889C7   		movq	%rax, %rdi
 894 0779 E8ADF8FF 		call	CipherVecOut
 894      FF
 399:/home/rodarmer/sra_sdk-2.3.1/libs/krypto/cipher-vec.c ****          (pin += self->dad.block_size), (pout += self->dad.block_size))
 895              		.loc 1 399 0
 896 077e 488B45C8 		movq	-56(%rbp), %rax
GAS LISTING /tmp/ccQ6OdaV.s 			page 27


 897 0782 8B4004   		movl	4(%rax), %eax
 898 0785 89C0     		mov	%eax, %eax
 899 0787 480145F0 		addq	%rax, -16(%rbp)
 900 078b 488B45C8 		movq	-56(%rbp), %rax
 901 078f 8B4004   		movl	4(%rax), %eax
 902 0792 89C0     		mov	%eax, %eax
 903 0794 480145F8 		addq	%rax, -8(%rbp)
 904              	.L67:
 398:/home/rodarmer/sra_sdk-2.3.1/libs/krypto/cipher-vec.c ****          block_count --; 
 905              		.loc 1 398 0
 906 0798 837DB400 		cmpl	$0, -76(%rbp)
 907 079c 0F95C0   		setne	%al
 908 079f 836DB401 		subl	$1, -76(%rbp)
 397:/home/rodarmer/sra_sdk-2.3.1/libs/krypto/cipher-vec.c ****     for ((pin = in), (pout = out);
 909              		.loc 1 397 0
 910 07a3 84C0     		testb	%al, %al
 911 07a5 758C     		jne	.L68
 405:/home/rodarmer/sra_sdk-2.3.1/libs/krypto/cipher-vec.c ****     }
 406:/home/rodarmer/sra_sdk-2.3.1/libs/krypto/cipher-vec.c **** 
 407:/home/rodarmer/sra_sdk-2.3.1/libs/krypto/cipher-vec.c **** #if 0
 408:/home/rodarmer/sra_sdk-2.3.1/libs/krypto/cipher-vec.c ****     *(CipherVec*)self->dad.encrypt_ivec = ivec;
 409:/home/rodarmer/sra_sdk-2.3.1/libs/krypto/cipher-vec.c **** #else
 410:/home/rodarmer/sra_sdk-2.3.1/libs/krypto/cipher-vec.c ****     CipherVecOut (ivec, self->dad.encrypt_ivec);
 912              		.loc 1 410 0
 913 07a7 488B45C8 		movq	-56(%rbp), %rax
 914 07ab 488B4028 		movq	40(%rax), %rax
 915 07af F30F6F45 		movdqu	-32(%rbp), %xmm0
 915      E0
 916 07b4 4889C7   		movq	%rax, %rdi
 917 07b7 E86FF8FF 		call	CipherVecOut
 917      FF
 411:/home/rodarmer/sra_sdk-2.3.1/libs/krypto/cipher-vec.c **** #endif
 412:/home/rodarmer/sra_sdk-2.3.1/libs/krypto/cipher-vec.c **** 
 413:/home/rodarmer/sra_sdk-2.3.1/libs/krypto/cipher-vec.c ****     return 0;
 918              		.loc 1 413 0
 919 07bc B8000000 		movl	$0, %eax
 919      00
 414:/home/rodarmer/sra_sdk-2.3.1/libs/krypto/cipher-vec.c **** }    
 920              		.loc 1 414 0
 921 07c1 C9       		leave
 922 07c2 C3       		ret
 923              		.cfi_endproc
 924              	.LFE525:
 925              		.size	KCipherVecEncryptCbc, .-KCipherVecEncryptCbc
 926              		.type	KCipherVecDecryptCbc, @function
 927              	KCipherVecDecryptCbc:
 928              	.LFB526:
 415:/home/rodarmer/sra_sdk-2.3.1/libs/krypto/cipher-vec.c **** 
 416:/home/rodarmer/sra_sdk-2.3.1/libs/krypto/cipher-vec.c **** 
 417:/home/rodarmer/sra_sdk-2.3.1/libs/krypto/cipher-vec.c **** static
 418:/home/rodarmer/sra_sdk-2.3.1/libs/krypto/cipher-vec.c **** rc_t CMEMBER(DecryptCbc) (CIPHER_IMPL * self, const void * in, void * out, uint32_t block_count)
 419:/home/rodarmer/sra_sdk-2.3.1/libs/krypto/cipher-vec.c **** {
 929              		.loc 1 419 0
 930              		.cfi_startproc
 931 07c3 55       		pushq	%rbp
 932              	.LCFI36:
 933              		.cfi_def_cfa_offset 16
GAS LISTING /tmp/ccQ6OdaV.s 			page 28


 934 07c4 4889E5   		movq	%rsp, %rbp
 935              		.cfi_offset 6, -16
 936              	.LCFI37:
 937              		.cfi_def_cfa_register 6
 938 07c7 4883EC60 		subq	$96, %rsp
 939 07cb 48897DB8 		movq	%rdi, -72(%rbp)
 940 07cf 488975B0 		movq	%rsi, -80(%rbp)
 941 07d3 488955A8 		movq	%rdx, -88(%rbp)
 942 07d7 894DA4   		movl	%ecx, -92(%rbp)
 420:/home/rodarmer/sra_sdk-2.3.1/libs/krypto/cipher-vec.c ****     CipherVec cv;
 421:/home/rodarmer/sra_sdk-2.3.1/libs/krypto/cipher-vec.c ****     CipherVec ivec;
 422:/home/rodarmer/sra_sdk-2.3.1/libs/krypto/cipher-vec.c ****     const uint8_t * pin;
 423:/home/rodarmer/sra_sdk-2.3.1/libs/krypto/cipher-vec.c ****     uint8_t * pout;
 424:/home/rodarmer/sra_sdk-2.3.1/libs/krypto/cipher-vec.c **** 
 425:/home/rodarmer/sra_sdk-2.3.1/libs/krypto/cipher-vec.c ****     ivec = CipherVecIn (self->dad.decrypt_ivec);
 943              		.loc 1 425 0
 944 07da 488B45B8 		movq	-72(%rbp), %rax
 945 07de 488B4030 		movq	48(%rax), %rax
 946 07e2 4889C7   		movq	%rax, %rdi
 947 07e5 E816F8FF 		call	CipherVecIn
 947      FF
 948 07ea F30F7F45 		movdqu	%xmm0, -48(%rbp)
 948      D0
 426:/home/rodarmer/sra_sdk-2.3.1/libs/krypto/cipher-vec.c **** 
 427:/home/rodarmer/sra_sdk-2.3.1/libs/krypto/cipher-vec.c ****     for ((pin = in), (pout = out);
 949              		.loc 1 427 0
 950 07ef 488B45B0 		movq	-80(%rbp), %rax
 951 07f3 488945E0 		movq	%rax, -32(%rbp)
 952 07f7 488B45A8 		movq	-88(%rbp), %rax
 953 07fb 488945E8 		movq	%rax, -24(%rbp)
 954 07ff EB6F     		jmp	.L71
 955              	.L72:
 956              	.LBB2:
 428:/home/rodarmer/sra_sdk-2.3.1/libs/krypto/cipher-vec.c ****          block_count --; 
 429:/home/rodarmer/sra_sdk-2.3.1/libs/krypto/cipher-vec.c ****          (pin += self->dad.block_size), (pout += self->dad.block_size))
 430:/home/rodarmer/sra_sdk-2.3.1/libs/krypto/cipher-vec.c ****     {
 431:/home/rodarmer/sra_sdk-2.3.1/libs/krypto/cipher-vec.c ****         CipherVec temp;
 432:/home/rodarmer/sra_sdk-2.3.1/libs/krypto/cipher-vec.c **** 
 433:/home/rodarmer/sra_sdk-2.3.1/libs/krypto/cipher-vec.c ****         cv = CipherVecIn (pin);
 957              		.loc 1 433 0
 958 0801 488B45E0 		movq	-32(%rbp), %rax
 959 0805 4889C7   		movq	%rax, %rdi
 960 0808 E8F3F7FF 		call	CipherVecIn
 960      FF
 961 080d F30F7F45 		movdqu	%xmm0, -64(%rbp)
 961      C0
 434:/home/rodarmer/sra_sdk-2.3.1/libs/krypto/cipher-vec.c **** #if 0
 435:/home/rodarmer/sra_sdk-2.3.1/libs/krypto/cipher-vec.c ****         temp = cv;
 436:/home/rodarmer/sra_sdk-2.3.1/libs/krypto/cipher-vec.c ****         temp = CMEMBER(DecryptV1)(self, temp);
 437:/home/rodarmer/sra_sdk-2.3.1/libs/krypto/cipher-vec.c **** #else
 438:/home/rodarmer/sra_sdk-2.3.1/libs/krypto/cipher-vec.c ****         temp = CMEMBER(DecryptV1)(self, cv);
 962              		.loc 1 438 0
 963 0812 F30F6F45 		movdqu	-64(%rbp), %xmm0
 963      C0
 964 0817 488B45B8 		movq	-72(%rbp), %rax
 965 081b 4889C7   		movq	%rax, %rdi
 966 081e E856FCFF 		call	KCipherVecDecryptV1
GAS LISTING /tmp/ccQ6OdaV.s 			page 29


 966      FF
 967 0823 F30F7F45 		movdqu	%xmm0, -16(%rbp)
 967      F0
 439:/home/rodarmer/sra_sdk-2.3.1/libs/krypto/cipher-vec.c **** #endif
 440:/home/rodarmer/sra_sdk-2.3.1/libs/krypto/cipher-vec.c ****         temp ^= ivec;
 968              		.loc 1 440 0
 969 0828 F30F6F45 		movdqu	-48(%rbp), %xmm0
 969      D0
 970 082d F30F6F4D 		movdqu	-16(%rbp), %xmm1
 970      F0
 971 0832 660FEFC1 		pxor	%xmm1, %xmm0
 972 0836 F30F7F45 		movdqu	%xmm0, -16(%rbp)
 972      F0
 441:/home/rodarmer/sra_sdk-2.3.1/libs/krypto/cipher-vec.c ****         CipherVecOut (temp, pout);
 973              		.loc 1 441 0
 974 083b 488B45E8 		movq	-24(%rbp), %rax
 975 083f F30F6F45 		movdqu	-16(%rbp), %xmm0
 975      F0
 976 0844 4889C7   		movq	%rax, %rdi
 977 0847 E8DFF7FF 		call	CipherVecOut
 977      FF
 442:/home/rodarmer/sra_sdk-2.3.1/libs/krypto/cipher-vec.c ****         ivec = cv;
 978              		.loc 1 442 0
 979 084c F30F6F45 		movdqu	-64(%rbp), %xmm0
 979      C0
 980 0851 F30F7F45 		movdqu	%xmm0, -48(%rbp)
 980      D0
 981              	.LBE2:
 429:/home/rodarmer/sra_sdk-2.3.1/libs/krypto/cipher-vec.c ****          (pin += self->dad.block_size), (pout += self->dad.block_size))
 982              		.loc 1 429 0
 983 0856 488B45B8 		movq	-72(%rbp), %rax
 984 085a 8B4004   		movl	4(%rax), %eax
 985 085d 89C0     		mov	%eax, %eax
 986 085f 480145E0 		addq	%rax, -32(%rbp)
 987 0863 488B45B8 		movq	-72(%rbp), %rax
 988 0867 8B4004   		movl	4(%rax), %eax
 989 086a 89C0     		mov	%eax, %eax
 990 086c 480145E8 		addq	%rax, -24(%rbp)
 991              	.L71:
 428:/home/rodarmer/sra_sdk-2.3.1/libs/krypto/cipher-vec.c ****          block_count --; 
 992              		.loc 1 428 0
 993 0870 837DA400 		cmpl	$0, -92(%rbp)
 994 0874 0F95C0   		setne	%al
 995 0877 836DA401 		subl	$1, -92(%rbp)
 427:/home/rodarmer/sra_sdk-2.3.1/libs/krypto/cipher-vec.c ****     for ((pin = in), (pout = out);
 996              		.loc 1 427 0
 997 087b 84C0     		testb	%al, %al
 998 087d 7582     		jne	.L72
 443:/home/rodarmer/sra_sdk-2.3.1/libs/krypto/cipher-vec.c ****     }
 444:/home/rodarmer/sra_sdk-2.3.1/libs/krypto/cipher-vec.c **** 
 445:/home/rodarmer/sra_sdk-2.3.1/libs/krypto/cipher-vec.c ****     *(CipherVec*)self->dad.decrypt_ivec = ivec;
 999              		.loc 1 445 0
 1000 087f 488B45B8 		movq	-72(%rbp), %rax
 1001 0883 488B4030 		movq	48(%rax), %rax
 1002 0887 F30F6F45 		movdqu	-48(%rbp), %xmm0
 1002      D0
 1003 088c F30F7F00 		movdqu	%xmm0, (%rax)
GAS LISTING /tmp/ccQ6OdaV.s 			page 30


 446:/home/rodarmer/sra_sdk-2.3.1/libs/krypto/cipher-vec.c ****     return 0;
 1004              		.loc 1 446 0
 1005 0890 B8000000 		movl	$0, %eax
 1005      00
 447:/home/rodarmer/sra_sdk-2.3.1/libs/krypto/cipher-vec.c **** }
 1006              		.loc 1 447 0
 1007 0895 C9       		leave
 1008 0896 C3       		ret
 1009              		.cfi_endproc
 1010              	.LFE526:
 1011              		.size	KCipherVecDecryptCbc, .-KCipherVecDecryptCbc
 1012              		.type	KCipherVecEncryptPcbc, @function
 1013              	KCipherVecEncryptPcbc:
 1014              	.LFB527:
 448:/home/rodarmer/sra_sdk-2.3.1/libs/krypto/cipher-vec.c **** 
 449:/home/rodarmer/sra_sdk-2.3.1/libs/krypto/cipher-vec.c **** 
 450:/home/rodarmer/sra_sdk-2.3.1/libs/krypto/cipher-vec.c **** /* ----------
 451:/home/rodarmer/sra_sdk-2.3.1/libs/krypto/cipher-vec.c ****  * Propagating cipher-block chaining
 452:/home/rodarmer/sra_sdk-2.3.1/libs/krypto/cipher-vec.c ****  * FB = PT ^ (CT = ENC ((PT^IV), EK))
 453:/home/rodarmer/sra_sdk-2.3.1/libs/krypto/cipher-vec.c ****  * FB = CT ^ (PT = DEC (CT,DK) ^ IV)
 454:/home/rodarmer/sra_sdk-2.3.1/libs/krypto/cipher-vec.c ****  */
 455:/home/rodarmer/sra_sdk-2.3.1/libs/krypto/cipher-vec.c **** static
 456:/home/rodarmer/sra_sdk-2.3.1/libs/krypto/cipher-vec.c **** rc_t CMEMBER(EncryptPcbc) (CIPHER_IMPL * self, const void * in, void * out, uint32_t block_count)
 457:/home/rodarmer/sra_sdk-2.3.1/libs/krypto/cipher-vec.c **** {
 1015              		.loc 1 457 0
 1016              		.cfi_startproc
 1017 0897 55       		pushq	%rbp
 1018              	.LCFI38:
 1019              		.cfi_def_cfa_offset 16
 1020 0898 4889E5   		movq	%rsp, %rbp
 1021              		.cfi_offset 6, -16
 1022              	.LCFI39:
 1023              		.cfi_def_cfa_register 6
 1024 089b 4883EC60 		subq	$96, %rsp
 1025 089f 48897DB8 		movq	%rdi, -72(%rbp)
 1026 08a3 488975B0 		movq	%rsi, -80(%rbp)
 1027 08a7 488955A8 		movq	%rdx, -88(%rbp)
 1028 08ab 894DA4   		movl	%ecx, -92(%rbp)
 458:/home/rodarmer/sra_sdk-2.3.1/libs/krypto/cipher-vec.c **** #if 1
 459:/home/rodarmer/sra_sdk-2.3.1/libs/krypto/cipher-vec.c ****     CipherVec cv;
 460:/home/rodarmer/sra_sdk-2.3.1/libs/krypto/cipher-vec.c ****     CipherVec ivec;
 461:/home/rodarmer/sra_sdk-2.3.1/libs/krypto/cipher-vec.c ****     const uint8_t * pin;
 462:/home/rodarmer/sra_sdk-2.3.1/libs/krypto/cipher-vec.c ****     uint8_t * pout;
 463:/home/rodarmer/sra_sdk-2.3.1/libs/krypto/cipher-vec.c **** 
 464:/home/rodarmer/sra_sdk-2.3.1/libs/krypto/cipher-vec.c ****     ivec = *(const CipherVec*)self->dad.encrypt_ivec;
 1029              		.loc 1 464 0
 1030 08ae 488B45B8 		movq	-72(%rbp), %rax
 1031 08b2 488B4028 		movq	40(%rax), %rax
 1032 08b6 660F6F00 		movdqa	(%rax), %xmm0
 1033 08ba F30F7F45 		movdqu	%xmm0, -48(%rbp)
 1033      D0
 465:/home/rodarmer/sra_sdk-2.3.1/libs/krypto/cipher-vec.c **** 
 466:/home/rodarmer/sra_sdk-2.3.1/libs/krypto/cipher-vec.c ****     for ((pin = in), (pout = out);
 1034              		.loc 1 466 0
 1035 08bf 488B45B0 		movq	-80(%rbp), %rax
 1036 08c3 488945E0 		movq	%rax, -32(%rbp)
 1037 08c7 488B45A8 		movq	-88(%rbp), %rax
GAS LISTING /tmp/ccQ6OdaV.s 			page 31


 1038 08cb 488945E8 		movq	%rax, -24(%rbp)
 1039 08cf EB78     		jmp	.L75
 1040              	.L76:
 1041              	.LBB3:
 467:/home/rodarmer/sra_sdk-2.3.1/libs/krypto/cipher-vec.c ****          block_count --; 
 468:/home/rodarmer/sra_sdk-2.3.1/libs/krypto/cipher-vec.c ****          (pin += self->dad.block_size), (pout += self->dad.block_size))
 469:/home/rodarmer/sra_sdk-2.3.1/libs/krypto/cipher-vec.c ****     {
 470:/home/rodarmer/sra_sdk-2.3.1/libs/krypto/cipher-vec.c ****         CipherVec temp;
 471:/home/rodarmer/sra_sdk-2.3.1/libs/krypto/cipher-vec.c **** 
 472:/home/rodarmer/sra_sdk-2.3.1/libs/krypto/cipher-vec.c ****         cv = CipherVecIn (pin);
 1042              		.loc 1 472 0
 1043 08d1 488B45E0 		movq	-32(%rbp), %rax
 1044 08d5 4889C7   		movq	%rax, %rdi
 1045 08d8 E823F7FF 		call	CipherVecIn
 1045      FF
 1046 08dd F30F7F45 		movdqu	%xmm0, -64(%rbp)
 1046      C0
 473:/home/rodarmer/sra_sdk-2.3.1/libs/krypto/cipher-vec.c ****         temp = cv ^ ivec;
 1047              		.loc 1 473 0
 1048 08e2 F30F6F45 		movdqu	-48(%rbp), %xmm0
 1048      D0
 1049 08e7 F30F6F4D 		movdqu	-64(%rbp), %xmm1
 1049      C0
 1050 08ec 660FEFC1 		pxor	%xmm1, %xmm0
 1051 08f0 F30F7F45 		movdqu	%xmm0, -16(%rbp)
 1051      F0
 474:/home/rodarmer/sra_sdk-2.3.1/libs/krypto/cipher-vec.c ****         temp = CMEMBER(EncryptV1)(self, temp); 
 1052              		.loc 1 474 0
 1053 08f5 F30F6F45 		movdqu	-16(%rbp), %xmm0
 1053      F0
 1054 08fa 488B45B8 		movq	-72(%rbp), %rax
 1055 08fe 4889C7   		movq	%rax, %rdi
 1056 0901 E84CFBFF 		call	KCipherVecEncryptV1
 1056      FF
 1057 0906 F30F7F45 		movdqu	%xmm0, -16(%rbp)
 1057      F0
 475:/home/rodarmer/sra_sdk-2.3.1/libs/krypto/cipher-vec.c ****         ivec = cv ^ temp;
 1058              		.loc 1 475 0
 1059 090b F30F6F45 		movdqu	-16(%rbp), %xmm0
 1059      F0
 1060 0910 F30F6F4D 		movdqu	-64(%rbp), %xmm1
 1060      C0
 1061 0915 660FEFC1 		pxor	%xmm1, %xmm0
 1062 0919 F30F7F45 		movdqu	%xmm0, -48(%rbp)
 1062      D0
 476:/home/rodarmer/sra_sdk-2.3.1/libs/krypto/cipher-vec.c ****         CipherVecOut (temp, pout);
 1063              		.loc 1 476 0
 1064 091e 488B45E8 		movq	-24(%rbp), %rax
 1065 0922 F30F6F45 		movdqu	-16(%rbp), %xmm0
 1065      F0
 1066 0927 4889C7   		movq	%rax, %rdi
 1067 092a E8FCF6FF 		call	CipherVecOut
 1067      FF
 1068              	.LBE3:
 468:/home/rodarmer/sra_sdk-2.3.1/libs/krypto/cipher-vec.c ****          (pin += self->dad.block_size), (pout += self->dad.block_size))
 1069              		.loc 1 468 0
 1070 092f 488B45B8 		movq	-72(%rbp), %rax
GAS LISTING /tmp/ccQ6OdaV.s 			page 32


 1071 0933 8B4004   		movl	4(%rax), %eax
 1072 0936 89C0     		mov	%eax, %eax
 1073 0938 480145E0 		addq	%rax, -32(%rbp)
 1074 093c 488B45B8 		movq	-72(%rbp), %rax
 1075 0940 8B4004   		movl	4(%rax), %eax
 1076 0943 89C0     		mov	%eax, %eax
 1077 0945 480145E8 		addq	%rax, -24(%rbp)
 1078              	.L75:
 467:/home/rodarmer/sra_sdk-2.3.1/libs/krypto/cipher-vec.c ****          block_count --; 
 1079              		.loc 1 467 0
 1080 0949 837DA400 		cmpl	$0, -92(%rbp)
 1081 094d 0F95C0   		setne	%al
 1082 0950 836DA401 		subl	$1, -92(%rbp)
 466:/home/rodarmer/sra_sdk-2.3.1/libs/krypto/cipher-vec.c ****     for ((pin = in), (pout = out);
 1083              		.loc 1 466 0
 1084 0954 84C0     		testb	%al, %al
 1085 0956 0F8575FF 		jne	.L76
 1085      FFFF
 477:/home/rodarmer/sra_sdk-2.3.1/libs/krypto/cipher-vec.c ****     }
 478:/home/rodarmer/sra_sdk-2.3.1/libs/krypto/cipher-vec.c **** 
 479:/home/rodarmer/sra_sdk-2.3.1/libs/krypto/cipher-vec.c ****     *(CipherVec*)self->dad.encrypt_ivec = ivec;
 1086              		.loc 1 479 0
 1087 095c 488B45B8 		movq	-72(%rbp), %rax
 1088 0960 488B4028 		movq	40(%rax), %rax
 1089 0964 F30F6F45 		movdqu	-48(%rbp), %xmm0
 1089      D0
 1090 0969 F30F7F00 		movdqu	%xmm0, (%rax)
 480:/home/rodarmer/sra_sdk-2.3.1/libs/krypto/cipher-vec.c **** 
 481:/home/rodarmer/sra_sdk-2.3.1/libs/krypto/cipher-vec.c ****     return 0;
 1091              		.loc 1 481 0
 1092 096d B8000000 		movl	$0, %eax
 1092      00
 482:/home/rodarmer/sra_sdk-2.3.1/libs/krypto/cipher-vec.c **** #else
 483:/home/rodarmer/sra_sdk-2.3.1/libs/krypto/cipher-vec.c ****     return RC (rcKrypto, rcCipher, rcEncoding, rcFunction, rcUnsupported);
 484:/home/rodarmer/sra_sdk-2.3.1/libs/krypto/cipher-vec.c **** #endif
 485:/home/rodarmer/sra_sdk-2.3.1/libs/krypto/cipher-vec.c **** }
 1093              		.loc 1 485 0
 1094 0972 C9       		leave
 1095 0973 C3       		ret
 1096              		.cfi_endproc
 1097              	.LFE527:
 1098              		.size	KCipherVecEncryptPcbc, .-KCipherVecEncryptPcbc
 1099              		.type	KCipherVecDecryptPcbc, @function
 1100              	KCipherVecDecryptPcbc:
 1101              	.LFB528:
 486:/home/rodarmer/sra_sdk-2.3.1/libs/krypto/cipher-vec.c **** 
 487:/home/rodarmer/sra_sdk-2.3.1/libs/krypto/cipher-vec.c **** 
 488:/home/rodarmer/sra_sdk-2.3.1/libs/krypto/cipher-vec.c **** static
 489:/home/rodarmer/sra_sdk-2.3.1/libs/krypto/cipher-vec.c **** rc_t CMEMBER(DecryptPcbc) (CIPHER_IMPL * self, const void * in, void * out, uint32_t block_count)
 490:/home/rodarmer/sra_sdk-2.3.1/libs/krypto/cipher-vec.c **** {
 1102              		.loc 1 490 0
 1103              		.cfi_startproc
 1104 0974 55       		pushq	%rbp
 1105              	.LCFI40:
 1106              		.cfi_def_cfa_offset 16
 1107 0975 4889E5   		movq	%rsp, %rbp
 1108              		.cfi_offset 6, -16
GAS LISTING /tmp/ccQ6OdaV.s 			page 33


 1109              	.LCFI41:
 1110              		.cfi_def_cfa_register 6
 1111 0978 4883EC60 		subq	$96, %rsp
 1112 097c 48897DB8 		movq	%rdi, -72(%rbp)
 1113 0980 488975B0 		movq	%rsi, -80(%rbp)
 1114 0984 488955A8 		movq	%rdx, -88(%rbp)
 1115 0988 894DA4   		movl	%ecx, -92(%rbp)
 491:/home/rodarmer/sra_sdk-2.3.1/libs/krypto/cipher-vec.c **** #if 1
 492:/home/rodarmer/sra_sdk-2.3.1/libs/krypto/cipher-vec.c ****     CipherVec cv;
 493:/home/rodarmer/sra_sdk-2.3.1/libs/krypto/cipher-vec.c ****     CipherVec ivec;
 494:/home/rodarmer/sra_sdk-2.3.1/libs/krypto/cipher-vec.c ****     const uint8_t * pin;
 495:/home/rodarmer/sra_sdk-2.3.1/libs/krypto/cipher-vec.c ****     uint8_t * pout;
 496:/home/rodarmer/sra_sdk-2.3.1/libs/krypto/cipher-vec.c **** 
 497:/home/rodarmer/sra_sdk-2.3.1/libs/krypto/cipher-vec.c ****     ivec = *(const CipherVec*)self->dad.encrypt_ivec;
 1116              		.loc 1 497 0
 1117 098b 488B45B8 		movq	-72(%rbp), %rax
 1118 098f 488B4028 		movq	40(%rax), %rax
 1119 0993 660F6F00 		movdqa	(%rax), %xmm0
 1120 0997 F30F7F45 		movdqu	%xmm0, -48(%rbp)
 1120      D0
 498:/home/rodarmer/sra_sdk-2.3.1/libs/krypto/cipher-vec.c **** 
 499:/home/rodarmer/sra_sdk-2.3.1/libs/krypto/cipher-vec.c ****     for ((pin = in), (pout = out);
 1121              		.loc 1 499 0
 1122 099c 488B45B0 		movq	-80(%rbp), %rax
 1123 09a0 488945E0 		movq	%rax, -32(%rbp)
 1124 09a4 488B45A8 		movq	-88(%rbp), %rax
 1125 09a8 488945E8 		movq	%rax, -24(%rbp)
 1126 09ac EB65     		jmp	.L79
 1127              	.L80:
 1128              	.LBB4:
 500:/home/rodarmer/sra_sdk-2.3.1/libs/krypto/cipher-vec.c ****          block_count --; 
 501:/home/rodarmer/sra_sdk-2.3.1/libs/krypto/cipher-vec.c ****          (pin += self->dad.block_size), (pout += self->dad.block_size))
 502:/home/rodarmer/sra_sdk-2.3.1/libs/krypto/cipher-vec.c ****     {
 503:/home/rodarmer/sra_sdk-2.3.1/libs/krypto/cipher-vec.c ****         CipherVec temp;
 504:/home/rodarmer/sra_sdk-2.3.1/libs/krypto/cipher-vec.c **** 
 505:/home/rodarmer/sra_sdk-2.3.1/libs/krypto/cipher-vec.c ****         cv = CipherVecIn (pin);
 1129              		.loc 1 505 0
 1130 09ae 488B45E0 		movq	-32(%rbp), %rax
 1131 09b2 4889C7   		movq	%rax, %rdi
 1132 09b5 E846F6FF 		call	CipherVecIn
 1132      FF
 1133 09ba F30F7F45 		movdqu	%xmm0, -64(%rbp)
 1133      C0
 506:/home/rodarmer/sra_sdk-2.3.1/libs/krypto/cipher-vec.c ****         temp = CMEMBER(DecryptV1)(self, cv);
 1134              		.loc 1 506 0
 1135 09bf F30F6F45 		movdqu	-64(%rbp), %xmm0
 1135      C0
 1136 09c4 488B45B8 		movq	-72(%rbp), %rax
 1137 09c8 4889C7   		movq	%rax, %rdi
 1138 09cb E8A9FAFF 		call	KCipherVecDecryptV1
 1138      FF
 1139 09d0 F30F7F45 		movdqu	%xmm0, -16(%rbp)
 1139      F0
 507:/home/rodarmer/sra_sdk-2.3.1/libs/krypto/cipher-vec.c ****         ivec ^= temp;
 1140              		.loc 1 507 0
 1141 09d5 F30F6F45 		movdqu	-16(%rbp), %xmm0
 1141      F0
GAS LISTING /tmp/ccQ6OdaV.s 			page 34


 1142 09da F30F6F4D 		movdqu	-48(%rbp), %xmm1
 1142      D0
 1143 09df 660FEFC1 		pxor	%xmm1, %xmm0
 1144 09e3 F30F7F45 		movdqu	%xmm0, -48(%rbp)
 1144      D0
 508:/home/rodarmer/sra_sdk-2.3.1/libs/krypto/cipher-vec.c ****         CipherVecOut (temp, pout);
 1145              		.loc 1 508 0
 1146 09e8 488B45E8 		movq	-24(%rbp), %rax
 1147 09ec F30F6F45 		movdqu	-16(%rbp), %xmm0
 1147      F0
 1148 09f1 4889C7   		movq	%rax, %rdi
 1149 09f4 E832F6FF 		call	CipherVecOut
 1149      FF
 1150              	.LBE4:
 501:/home/rodarmer/sra_sdk-2.3.1/libs/krypto/cipher-vec.c ****          (pin += self->dad.block_size), (pout += self->dad.block_size))
 1151              		.loc 1 501 0
 1152 09f9 488B45B8 		movq	-72(%rbp), %rax
 1153 09fd 8B4004   		movl	4(%rax), %eax
 1154 0a00 89C0     		mov	%eax, %eax
 1155 0a02 480145E0 		addq	%rax, -32(%rbp)
 1156 0a06 488B45B8 		movq	-72(%rbp), %rax
 1157 0a0a 8B4004   		movl	4(%rax), %eax
 1158 0a0d 89C0     		mov	%eax, %eax
 1159 0a0f 480145E8 		addq	%rax, -24(%rbp)
 1160              	.L79:
 500:/home/rodarmer/sra_sdk-2.3.1/libs/krypto/cipher-vec.c ****          block_count --; 
 1161              		.loc 1 500 0
 1162 0a13 837DA400 		cmpl	$0, -92(%rbp)
 1163 0a17 0F95C0   		setne	%al
 1164 0a1a 836DA401 		subl	$1, -92(%rbp)
 499:/home/rodarmer/sra_sdk-2.3.1/libs/krypto/cipher-vec.c ****     for ((pin = in), (pout = out);
 1165              		.loc 1 499 0
 1166 0a1e 84C0     		testb	%al, %al
 1167 0a20 758C     		jne	.L80
 509:/home/rodarmer/sra_sdk-2.3.1/libs/krypto/cipher-vec.c ****     }
 510:/home/rodarmer/sra_sdk-2.3.1/libs/krypto/cipher-vec.c **** 
 511:/home/rodarmer/sra_sdk-2.3.1/libs/krypto/cipher-vec.c ****     *(CipherVec*)self->dad.encrypt_ivec = ivec;
 1168              		.loc 1 511 0
 1169 0a22 488B45B8 		movq	-72(%rbp), %rax
 1170 0a26 488B4028 		movq	40(%rax), %rax
 1171 0a2a F30F6F45 		movdqu	-48(%rbp), %xmm0
 1171      D0
 1172 0a2f F30F7F00 		movdqu	%xmm0, (%rax)
 512:/home/rodarmer/sra_sdk-2.3.1/libs/krypto/cipher-vec.c **** 
 513:/home/rodarmer/sra_sdk-2.3.1/libs/krypto/cipher-vec.c ****     return 0;
 1173              		.loc 1 513 0
 1174 0a33 B8000000 		movl	$0, %eax
 1174      00
 514:/home/rodarmer/sra_sdk-2.3.1/libs/krypto/cipher-vec.c **** #else
 515:/home/rodarmer/sra_sdk-2.3.1/libs/krypto/cipher-vec.c ****     return RC (rcKrypto, rcCipher, rcEncoding, rcFunction, rcUnsupported);
 516:/home/rodarmer/sra_sdk-2.3.1/libs/krypto/cipher-vec.c **** #endif
 517:/home/rodarmer/sra_sdk-2.3.1/libs/krypto/cipher-vec.c **** }
 1175              		.loc 1 517 0
 1176 0a38 C9       		leave
 1177 0a39 C3       		ret
 1178              		.cfi_endproc
 1179              	.LFE528:
GAS LISTING /tmp/ccQ6OdaV.s 			page 35


 1180              		.size	KCipherVecDecryptPcbc, .-KCipherVecDecryptPcbc
 1181              		.type	KCipherVecEncryptCfb, @function
 1182              	KCipherVecEncryptCfb:
 1183              	.LFB529:
 518:/home/rodarmer/sra_sdk-2.3.1/libs/krypto/cipher-vec.c **** 
 519:/home/rodarmer/sra_sdk-2.3.1/libs/krypto/cipher-vec.c **** 
 520:/home/rodarmer/sra_sdk-2.3.1/libs/krypto/cipher-vec.c **** /* ----------
 521:/home/rodarmer/sra_sdk-2.3.1/libs/krypto/cipher-vec.c ****  * Cipher Feedback
 522:/home/rodarmer/sra_sdk-2.3.1/libs/krypto/cipher-vec.c ****  * CT = (FB = PT) ^ ENC (IV, EK))
 523:/home/rodarmer/sra_sdk-2.3.1/libs/krypto/cipher-vec.c ****  * PT = (FB = CT) ^ DEC (IV, DK)
 524:/home/rodarmer/sra_sdk-2.3.1/libs/krypto/cipher-vec.c ****  */
 525:/home/rodarmer/sra_sdk-2.3.1/libs/krypto/cipher-vec.c **** static
 526:/home/rodarmer/sra_sdk-2.3.1/libs/krypto/cipher-vec.c **** rc_t CMEMBER(EncryptCfb) (CIPHER_IMPL * self, const void * in, void * out, uint32_t block_count)
 527:/home/rodarmer/sra_sdk-2.3.1/libs/krypto/cipher-vec.c **** {
 1184              		.loc 1 527 0
 1185              		.cfi_startproc
 1186 0a3a 55       		pushq	%rbp
 1187              	.LCFI42:
 1188              		.cfi_def_cfa_offset 16
 1189 0a3b 4889E5   		movq	%rsp, %rbp
 1190              		.cfi_offset 6, -16
 1191              	.LCFI43:
 1192              		.cfi_def_cfa_register 6
 1193 0a3e 4883EC50 		subq	$80, %rsp
 1194 0a42 48897DC8 		movq	%rdi, -56(%rbp)
 1195 0a46 488975C0 		movq	%rsi, -64(%rbp)
 1196 0a4a 488955B8 		movq	%rdx, -72(%rbp)
 1197 0a4e 894DB4   		movl	%ecx, -76(%rbp)
 528:/home/rodarmer/sra_sdk-2.3.1/libs/krypto/cipher-vec.c **** #if 1
 529:/home/rodarmer/sra_sdk-2.3.1/libs/krypto/cipher-vec.c ****     CipherVec cv;
 530:/home/rodarmer/sra_sdk-2.3.1/libs/krypto/cipher-vec.c ****     CipherVec ivec;
 531:/home/rodarmer/sra_sdk-2.3.1/libs/krypto/cipher-vec.c ****     const uint8_t * pin;
 532:/home/rodarmer/sra_sdk-2.3.1/libs/krypto/cipher-vec.c ****     uint8_t * pout;
 533:/home/rodarmer/sra_sdk-2.3.1/libs/krypto/cipher-vec.c **** 
 534:/home/rodarmer/sra_sdk-2.3.1/libs/krypto/cipher-vec.c ****     ivec = *(const CipherVec*)self->dad.encrypt_ivec;
 1198              		.loc 1 534 0
 1199 0a51 488B45C8 		movq	-56(%rbp), %rax
 1200 0a55 488B4028 		movq	40(%rax), %rax
 1201 0a59 660F6F00 		movdqa	(%rax), %xmm0
 1202 0a5d F30F7F45 		movdqu	%xmm0, -32(%rbp)
 1202      E0
 535:/home/rodarmer/sra_sdk-2.3.1/libs/krypto/cipher-vec.c **** 
 536:/home/rodarmer/sra_sdk-2.3.1/libs/krypto/cipher-vec.c ****     for ((pin = in), (pout = out);
 1203              		.loc 1 536 0
 1204 0a62 488B45C0 		movq	-64(%rbp), %rax
 1205 0a66 488945F0 		movq	%rax, -16(%rbp)
 1206 0a6a 488B45B8 		movq	-72(%rbp), %rax
 1207 0a6e 488945F8 		movq	%rax, -8(%rbp)
 1208 0a72 EB65     		jmp	.L83
 1209              	.L84:
 537:/home/rodarmer/sra_sdk-2.3.1/libs/krypto/cipher-vec.c ****          block_count --; 
 538:/home/rodarmer/sra_sdk-2.3.1/libs/krypto/cipher-vec.c ****          (pin += self->dad.block_size), (pout += self->dad.block_size))
 539:/home/rodarmer/sra_sdk-2.3.1/libs/krypto/cipher-vec.c ****     {
 540:/home/rodarmer/sra_sdk-2.3.1/libs/krypto/cipher-vec.c ****         ivec = CMEMBER(EncryptV1)(self, ivec); 
 1210              		.loc 1 540 0
 1211 0a74 F30F6F45 		movdqu	-32(%rbp), %xmm0
 1211      E0
GAS LISTING /tmp/ccQ6OdaV.s 			page 36


 1212 0a79 488B45C8 		movq	-56(%rbp), %rax
 1213 0a7d 4889C7   		movq	%rax, %rdi
 1214 0a80 E8CDF9FF 		call	KCipherVecEncryptV1
 1214      FF
 1215 0a85 F30F7F45 		movdqu	%xmm0, -32(%rbp)
 1215      E0
 541:/home/rodarmer/sra_sdk-2.3.1/libs/krypto/cipher-vec.c ****         cv = CipherVecIn (pin);
 1216              		.loc 1 541 0
 1217 0a8a 488B45F0 		movq	-16(%rbp), %rax
 1218 0a8e 4889C7   		movq	%rax, %rdi
 1219 0a91 E86AF5FF 		call	CipherVecIn
 1219      FF
 1220 0a96 F30F7F45 		movdqu	%xmm0, -48(%rbp)
 1220      D0
 542:/home/rodarmer/sra_sdk-2.3.1/libs/krypto/cipher-vec.c ****         ivec ^= cv;
 1221              		.loc 1 542 0
 1222 0a9b F30F6F45 		movdqu	-48(%rbp), %xmm0
 1222      D0
 1223 0aa0 F30F6F4D 		movdqu	-32(%rbp), %xmm1
 1223      E0
 1224 0aa5 660FEFC1 		pxor	%xmm1, %xmm0
 1225 0aa9 F30F7F45 		movdqu	%xmm0, -32(%rbp)
 1225      E0
 543:/home/rodarmer/sra_sdk-2.3.1/libs/krypto/cipher-vec.c ****         CipherVecOut (ivec, pout);
 1226              		.loc 1 543 0
 1227 0aae 488B45F8 		movq	-8(%rbp), %rax
 1228 0ab2 F30F6F45 		movdqu	-32(%rbp), %xmm0
 1228      E0
 1229 0ab7 4889C7   		movq	%rax, %rdi
 1230 0aba E86CF5FF 		call	CipherVecOut
 1230      FF
 538:/home/rodarmer/sra_sdk-2.3.1/libs/krypto/cipher-vec.c ****          (pin += self->dad.block_size), (pout += self->dad.block_size))
 1231              		.loc 1 538 0
 1232 0abf 488B45C8 		movq	-56(%rbp), %rax
 1233 0ac3 8B4004   		movl	4(%rax), %eax
 1234 0ac6 89C0     		mov	%eax, %eax
 1235 0ac8 480145F0 		addq	%rax, -16(%rbp)
 1236 0acc 488B45C8 		movq	-56(%rbp), %rax
 1237 0ad0 8B4004   		movl	4(%rax), %eax
 1238 0ad3 89C0     		mov	%eax, %eax
 1239 0ad5 480145F8 		addq	%rax, -8(%rbp)
 1240              	.L83:
 537:/home/rodarmer/sra_sdk-2.3.1/libs/krypto/cipher-vec.c ****          block_count --; 
 1241              		.loc 1 537 0
 1242 0ad9 837DB400 		cmpl	$0, -76(%rbp)
 1243 0add 0F95C0   		setne	%al
 1244 0ae0 836DB401 		subl	$1, -76(%rbp)
 536:/home/rodarmer/sra_sdk-2.3.1/libs/krypto/cipher-vec.c ****     for ((pin = in), (pout = out);
 1245              		.loc 1 536 0
 1246 0ae4 84C0     		testb	%al, %al
 1247 0ae6 758C     		jne	.L84
 544:/home/rodarmer/sra_sdk-2.3.1/libs/krypto/cipher-vec.c ****     }
 545:/home/rodarmer/sra_sdk-2.3.1/libs/krypto/cipher-vec.c **** 
 546:/home/rodarmer/sra_sdk-2.3.1/libs/krypto/cipher-vec.c ****     *(CipherVec*)self->dad.encrypt_ivec = ivec;
 1248              		.loc 1 546 0
 1249 0ae8 488B45C8 		movq	-56(%rbp), %rax
 1250 0aec 488B4028 		movq	40(%rax), %rax
GAS LISTING /tmp/ccQ6OdaV.s 			page 37


 1251 0af0 F30F6F45 		movdqu	-32(%rbp), %xmm0
 1251      E0
 1252 0af5 F30F7F00 		movdqu	%xmm0, (%rax)
 547:/home/rodarmer/sra_sdk-2.3.1/libs/krypto/cipher-vec.c **** 
 548:/home/rodarmer/sra_sdk-2.3.1/libs/krypto/cipher-vec.c ****     return 0;
 1253              		.loc 1 548 0
 1254 0af9 B8000000 		movl	$0, %eax
 1254      00
 549:/home/rodarmer/sra_sdk-2.3.1/libs/krypto/cipher-vec.c **** #else
 550:/home/rodarmer/sra_sdk-2.3.1/libs/krypto/cipher-vec.c ****     return RC (rcKrypto, rcCipher, rcEncoding, rcFunction, rcUnsupported);
 551:/home/rodarmer/sra_sdk-2.3.1/libs/krypto/cipher-vec.c **** #endif
 552:/home/rodarmer/sra_sdk-2.3.1/libs/krypto/cipher-vec.c **** }
 1255              		.loc 1 552 0
 1256 0afe C9       		leave
 1257 0aff C3       		ret
 1258              		.cfi_endproc
 1259              	.LFE529:
 1260              		.size	KCipherVecEncryptCfb, .-KCipherVecEncryptCfb
 1261              		.type	KCipherVecDecryptCfb, @function
 1262              	KCipherVecDecryptCfb:
 1263              	.LFB530:
 553:/home/rodarmer/sra_sdk-2.3.1/libs/krypto/cipher-vec.c **** 
 554:/home/rodarmer/sra_sdk-2.3.1/libs/krypto/cipher-vec.c **** 
 555:/home/rodarmer/sra_sdk-2.3.1/libs/krypto/cipher-vec.c **** static
 556:/home/rodarmer/sra_sdk-2.3.1/libs/krypto/cipher-vec.c **** rc_t CMEMBER(DecryptCfb) (CIPHER_IMPL * self, const void * in, void * out, uint32_t block_count)
 557:/home/rodarmer/sra_sdk-2.3.1/libs/krypto/cipher-vec.c **** {
 1264              		.loc 1 557 0
 1265              		.cfi_startproc
 1266 0b00 55       		pushq	%rbp
 1267              	.LCFI44:
 1268              		.cfi_def_cfa_offset 16
 1269 0b01 4889E5   		movq	%rsp, %rbp
 1270              		.cfi_offset 6, -16
 1271              	.LCFI45:
 1272              		.cfi_def_cfa_register 6
 1273 0b04 4883EC50 		subq	$80, %rsp
 1274 0b08 48897DC8 		movq	%rdi, -56(%rbp)
 1275 0b0c 488975C0 		movq	%rsi, -64(%rbp)
 1276 0b10 488955B8 		movq	%rdx, -72(%rbp)
 1277 0b14 894DB4   		movl	%ecx, -76(%rbp)
 558:/home/rodarmer/sra_sdk-2.3.1/libs/krypto/cipher-vec.c **** #if 1
 559:/home/rodarmer/sra_sdk-2.3.1/libs/krypto/cipher-vec.c ****     CipherVec cv;
 560:/home/rodarmer/sra_sdk-2.3.1/libs/krypto/cipher-vec.c ****     CipherVec ivec;
 561:/home/rodarmer/sra_sdk-2.3.1/libs/krypto/cipher-vec.c ****     const uint8_t * pin;
 562:/home/rodarmer/sra_sdk-2.3.1/libs/krypto/cipher-vec.c ****     uint8_t * pout;
 563:/home/rodarmer/sra_sdk-2.3.1/libs/krypto/cipher-vec.c **** 
 564:/home/rodarmer/sra_sdk-2.3.1/libs/krypto/cipher-vec.c ****     ivec = *(const CipherVec*)self->dad.encrypt_ivec;
 1278              		.loc 1 564 0
 1279 0b17 488B45C8 		movq	-56(%rbp), %rax
 1280 0b1b 488B4028 		movq	40(%rax), %rax
 1281 0b1f 660F6F00 		movdqa	(%rax), %xmm0
 1282 0b23 F30F7F45 		movdqu	%xmm0, -32(%rbp)
 1282      E0
 565:/home/rodarmer/sra_sdk-2.3.1/libs/krypto/cipher-vec.c **** 
 566:/home/rodarmer/sra_sdk-2.3.1/libs/krypto/cipher-vec.c ****     for ((pin = in), (pout = out);
 1283              		.loc 1 566 0
 1284 0b28 488B45C0 		movq	-64(%rbp), %rax
GAS LISTING /tmp/ccQ6OdaV.s 			page 38


 1285 0b2c 488945F0 		movq	%rax, -16(%rbp)
 1286 0b30 488B45B8 		movq	-72(%rbp), %rax
 1287 0b34 488945F8 		movq	%rax, -8(%rbp)
 1288 0b38 EB65     		jmp	.L87
 1289              	.L88:
 567:/home/rodarmer/sra_sdk-2.3.1/libs/krypto/cipher-vec.c ****          block_count --; 
 568:/home/rodarmer/sra_sdk-2.3.1/libs/krypto/cipher-vec.c ****          (pin += self->dad.block_size), (pout += self->dad.block_size))
 569:/home/rodarmer/sra_sdk-2.3.1/libs/krypto/cipher-vec.c ****     {
 570:/home/rodarmer/sra_sdk-2.3.1/libs/krypto/cipher-vec.c ****         cv = CMEMBER(EncryptV1)(self, ivec); 
 1290              		.loc 1 570 0
 1291 0b3a F30F6F45 		movdqu	-32(%rbp), %xmm0
 1291      E0
 1292 0b3f 488B45C8 		movq	-56(%rbp), %rax
 1293 0b43 4889C7   		movq	%rax, %rdi
 1294 0b46 E807F9FF 		call	KCipherVecEncryptV1
 1294      FF
 1295 0b4b F30F7F45 		movdqu	%xmm0, -48(%rbp)
 1295      D0
 571:/home/rodarmer/sra_sdk-2.3.1/libs/krypto/cipher-vec.c ****         ivec = CipherVecIn (pin);
 1296              		.loc 1 571 0
 1297 0b50 488B45F0 		movq	-16(%rbp), %rax
 1298 0b54 4889C7   		movq	%rax, %rdi
 1299 0b57 E8A4F4FF 		call	CipherVecIn
 1299      FF
 1300 0b5c F30F7F45 		movdqu	%xmm0, -32(%rbp)
 1300      E0
 572:/home/rodarmer/sra_sdk-2.3.1/libs/krypto/cipher-vec.c ****         cv ^= ivec;
 1301              		.loc 1 572 0
 1302 0b61 F30F6F45 		movdqu	-32(%rbp), %xmm0
 1302      E0
 1303 0b66 F30F6F4D 		movdqu	-48(%rbp), %xmm1
 1303      D0
 1304 0b6b 660FEFC1 		pxor	%xmm1, %xmm0
 1305 0b6f F30F7F45 		movdqu	%xmm0, -48(%rbp)
 1305      D0
 573:/home/rodarmer/sra_sdk-2.3.1/libs/krypto/cipher-vec.c ****         CipherVecOut (cv, pout);
 1306              		.loc 1 573 0
 1307 0b74 488B45F8 		movq	-8(%rbp), %rax
 1308 0b78 F30F6F45 		movdqu	-48(%rbp), %xmm0
 1308      D0
 1309 0b7d 4889C7   		movq	%rax, %rdi
 1310 0b80 E8A6F4FF 		call	CipherVecOut
 1310      FF
 568:/home/rodarmer/sra_sdk-2.3.1/libs/krypto/cipher-vec.c ****          (pin += self->dad.block_size), (pout += self->dad.block_size))
 1311              		.loc 1 568 0
 1312 0b85 488B45C8 		movq	-56(%rbp), %rax
 1313 0b89 8B4004   		movl	4(%rax), %eax
 1314 0b8c 89C0     		mov	%eax, %eax
 1315 0b8e 480145F0 		addq	%rax, -16(%rbp)
 1316 0b92 488B45C8 		movq	-56(%rbp), %rax
 1317 0b96 8B4004   		movl	4(%rax), %eax
 1318 0b99 89C0     		mov	%eax, %eax
 1319 0b9b 480145F8 		addq	%rax, -8(%rbp)
 1320              	.L87:
 567:/home/rodarmer/sra_sdk-2.3.1/libs/krypto/cipher-vec.c ****          block_count --; 
 1321              		.loc 1 567 0
 1322 0b9f 837DB400 		cmpl	$0, -76(%rbp)
GAS LISTING /tmp/ccQ6OdaV.s 			page 39


 1323 0ba3 0F95C0   		setne	%al
 1324 0ba6 836DB401 		subl	$1, -76(%rbp)
 566:/home/rodarmer/sra_sdk-2.3.1/libs/krypto/cipher-vec.c ****     for ((pin = in), (pout = out);
 1325              		.loc 1 566 0
 1326 0baa 84C0     		testb	%al, %al
 1327 0bac 758C     		jne	.L88
 574:/home/rodarmer/sra_sdk-2.3.1/libs/krypto/cipher-vec.c ****     }
 575:/home/rodarmer/sra_sdk-2.3.1/libs/krypto/cipher-vec.c **** 
 576:/home/rodarmer/sra_sdk-2.3.1/libs/krypto/cipher-vec.c ****     *(CipherVec*)self->dad.encrypt_ivec = ivec;
 1328              		.loc 1 576 0
 1329 0bae 488B45C8 		movq	-56(%rbp), %rax
 1330 0bb2 488B4028 		movq	40(%rax), %rax
 1331 0bb6 F30F6F45 		movdqu	-32(%rbp), %xmm0
 1331      E0
 1332 0bbb F30F7F00 		movdqu	%xmm0, (%rax)
 577:/home/rodarmer/sra_sdk-2.3.1/libs/krypto/cipher-vec.c **** 
 578:/home/rodarmer/sra_sdk-2.3.1/libs/krypto/cipher-vec.c ****     return 0;
 1333              		.loc 1 578 0
 1334 0bbf B8000000 		movl	$0, %eax
 1334      00
 579:/home/rodarmer/sra_sdk-2.3.1/libs/krypto/cipher-vec.c **** #else
 580:/home/rodarmer/sra_sdk-2.3.1/libs/krypto/cipher-vec.c ****     return RC (rcKrypto, rcCipher, rcEncoding, rcFunction, rcUnsupported);
 581:/home/rodarmer/sra_sdk-2.3.1/libs/krypto/cipher-vec.c **** #endif
 582:/home/rodarmer/sra_sdk-2.3.1/libs/krypto/cipher-vec.c **** }
 1335              		.loc 1 582 0
 1336 0bc4 C9       		leave
 1337 0bc5 C3       		ret
 1338              		.cfi_endproc
 1339              	.LFE530:
 1340              		.size	KCipherVecDecryptCfb, .-KCipherVecDecryptCfb
 1341              		.type	KCipherVecEncryptOfb, @function
 1342              	KCipherVecEncryptOfb:
 1343              	.LFB531:
 583:/home/rodarmer/sra_sdk-2.3.1/libs/krypto/cipher-vec.c **** 
 584:/home/rodarmer/sra_sdk-2.3.1/libs/krypto/cipher-vec.c **** 
 585:/home/rodarmer/sra_sdk-2.3.1/libs/krypto/cipher-vec.c **** /* ----------
 586:/home/rodarmer/sra_sdk-2.3.1/libs/krypto/cipher-vec.c ****  * Output Feedback
 587:/home/rodarmer/sra_sdk-2.3.1/libs/krypto/cipher-vec.c ****  * CT = PT ^ (FB = ENC (IV, EK))
 588:/home/rodarmer/sra_sdk-2.3.1/libs/krypto/cipher-vec.c ****  * PT = CT ^ (FB = DEC (IV, DK))
 589:/home/rodarmer/sra_sdk-2.3.1/libs/krypto/cipher-vec.c ****  */
 590:/home/rodarmer/sra_sdk-2.3.1/libs/krypto/cipher-vec.c **** static
 591:/home/rodarmer/sra_sdk-2.3.1/libs/krypto/cipher-vec.c **** rc_t CMEMBER(EncryptOfb) (CIPHER_IMPL * self, const void * in, void * out, uint32_t block_count)
 592:/home/rodarmer/sra_sdk-2.3.1/libs/krypto/cipher-vec.c **** {
 1344              		.loc 1 592 0
 1345              		.cfi_startproc
 1346 0bc6 55       		pushq	%rbp
 1347              	.LCFI46:
 1348              		.cfi_def_cfa_offset 16
 1349 0bc7 4889E5   		movq	%rsp, %rbp
 1350              		.cfi_offset 6, -16
 1351              	.LCFI47:
 1352              		.cfi_def_cfa_register 6
 1353 0bca 4883EC50 		subq	$80, %rsp
 1354 0bce 48897DC8 		movq	%rdi, -56(%rbp)
 1355 0bd2 488975C0 		movq	%rsi, -64(%rbp)
 1356 0bd6 488955B8 		movq	%rdx, -72(%rbp)
 1357 0bda 894DB4   		movl	%ecx, -76(%rbp)
GAS LISTING /tmp/ccQ6OdaV.s 			page 40


 593:/home/rodarmer/sra_sdk-2.3.1/libs/krypto/cipher-vec.c **** #if 1
 594:/home/rodarmer/sra_sdk-2.3.1/libs/krypto/cipher-vec.c ****     CipherVec cv;
 595:/home/rodarmer/sra_sdk-2.3.1/libs/krypto/cipher-vec.c ****     CipherVec ivec;
 596:/home/rodarmer/sra_sdk-2.3.1/libs/krypto/cipher-vec.c ****     const uint8_t * pin;
 597:/home/rodarmer/sra_sdk-2.3.1/libs/krypto/cipher-vec.c ****     uint8_t * pout;
 598:/home/rodarmer/sra_sdk-2.3.1/libs/krypto/cipher-vec.c **** 
 599:/home/rodarmer/sra_sdk-2.3.1/libs/krypto/cipher-vec.c ****     ivec = *(const CipherVec*)self->dad.encrypt_ivec;
 1358              		.loc 1 599 0
 1359 0bdd 488B45C8 		movq	-56(%rbp), %rax
 1360 0be1 488B4028 		movq	40(%rax), %rax
 1361 0be5 660F6F00 		movdqa	(%rax), %xmm0
 1362 0be9 F30F7F45 		movdqu	%xmm0, -32(%rbp)
 1362      E0
 600:/home/rodarmer/sra_sdk-2.3.1/libs/krypto/cipher-vec.c **** 
 601:/home/rodarmer/sra_sdk-2.3.1/libs/krypto/cipher-vec.c ****     for ((pin = in), (pout = out);
 1363              		.loc 1 601 0
 1364 0bee 488B45C0 		movq	-64(%rbp), %rax
 1365 0bf2 488945F0 		movq	%rax, -16(%rbp)
 1366 0bf6 488B45B8 		movq	-72(%rbp), %rax
 1367 0bfa 488945F8 		movq	%rax, -8(%rbp)
 1368 0bfe EB65     		jmp	.L91
 1369              	.L92:
 602:/home/rodarmer/sra_sdk-2.3.1/libs/krypto/cipher-vec.c ****          block_count --; 
 603:/home/rodarmer/sra_sdk-2.3.1/libs/krypto/cipher-vec.c ****          (pin += self->dad.block_size), (pout += self->dad.block_size))
 604:/home/rodarmer/sra_sdk-2.3.1/libs/krypto/cipher-vec.c ****     {
 605:/home/rodarmer/sra_sdk-2.3.1/libs/krypto/cipher-vec.c ****         ivec = CMEMBER(EncryptV1)(self, ivec); 
 1370              		.loc 1 605 0
 1371 0c00 F30F6F45 		movdqu	-32(%rbp), %xmm0
 1371      E0
 1372 0c05 488B45C8 		movq	-56(%rbp), %rax
 1373 0c09 4889C7   		movq	%rax, %rdi
 1374 0c0c E841F8FF 		call	KCipherVecEncryptV1
 1374      FF
 1375 0c11 F30F7F45 		movdqu	%xmm0, -32(%rbp)
 1375      E0
 606:/home/rodarmer/sra_sdk-2.3.1/libs/krypto/cipher-vec.c ****         cv = CipherVecIn (pin);
 1376              		.loc 1 606 0
 1377 0c16 488B45F0 		movq	-16(%rbp), %rax
 1378 0c1a 4889C7   		movq	%rax, %rdi
 1379 0c1d E8DEF3FF 		call	CipherVecIn
 1379      FF
 1380 0c22 F30F7F45 		movdqu	%xmm0, -48(%rbp)
 1380      D0
 607:/home/rodarmer/sra_sdk-2.3.1/libs/krypto/cipher-vec.c ****         cv ^= ivec;
 1381              		.loc 1 607 0
 1382 0c27 F30F6F45 		movdqu	-32(%rbp), %xmm0
 1382      E0
 1383 0c2c F30F6F4D 		movdqu	-48(%rbp), %xmm1
 1383      D0
 1384 0c31 660FEFC1 		pxor	%xmm1, %xmm0
 1385 0c35 F30F7F45 		movdqu	%xmm0, -48(%rbp)
 1385      D0
 608:/home/rodarmer/sra_sdk-2.3.1/libs/krypto/cipher-vec.c ****         CipherVecOut (cv, pout);
 1386              		.loc 1 608 0
 1387 0c3a 488B45F8 		movq	-8(%rbp), %rax
 1388 0c3e F30F6F45 		movdqu	-48(%rbp), %xmm0
 1388      D0
GAS LISTING /tmp/ccQ6OdaV.s 			page 41


 1389 0c43 4889C7   		movq	%rax, %rdi
 1390 0c46 E8E0F3FF 		call	CipherVecOut
 1390      FF
 603:/home/rodarmer/sra_sdk-2.3.1/libs/krypto/cipher-vec.c ****          (pin += self->dad.block_size), (pout += self->dad.block_size))
 1391              		.loc 1 603 0
 1392 0c4b 488B45C8 		movq	-56(%rbp), %rax
 1393 0c4f 8B4004   		movl	4(%rax), %eax
 1394 0c52 89C0     		mov	%eax, %eax
 1395 0c54 480145F0 		addq	%rax, -16(%rbp)
 1396 0c58 488B45C8 		movq	-56(%rbp), %rax
 1397 0c5c 8B4004   		movl	4(%rax), %eax
 1398 0c5f 89C0     		mov	%eax, %eax
 1399 0c61 480145F8 		addq	%rax, -8(%rbp)
 1400              	.L91:
 602:/home/rodarmer/sra_sdk-2.3.1/libs/krypto/cipher-vec.c ****          block_count --; 
 1401              		.loc 1 602 0
 1402 0c65 837DB400 		cmpl	$0, -76(%rbp)
 1403 0c69 0F95C0   		setne	%al
 1404 0c6c 836DB401 		subl	$1, -76(%rbp)
 601:/home/rodarmer/sra_sdk-2.3.1/libs/krypto/cipher-vec.c ****     for ((pin = in), (pout = out);
 1405              		.loc 1 601 0
 1406 0c70 84C0     		testb	%al, %al
 1407 0c72 758C     		jne	.L92
 609:/home/rodarmer/sra_sdk-2.3.1/libs/krypto/cipher-vec.c ****     }
 610:/home/rodarmer/sra_sdk-2.3.1/libs/krypto/cipher-vec.c **** 
 611:/home/rodarmer/sra_sdk-2.3.1/libs/krypto/cipher-vec.c ****     *(CipherVec*)self->dad.encrypt_ivec = ivec;
 1408              		.loc 1 611 0
 1409 0c74 488B45C8 		movq	-56(%rbp), %rax
 1410 0c78 488B4028 		movq	40(%rax), %rax
 1411 0c7c F30F6F45 		movdqu	-32(%rbp), %xmm0
 1411      E0
 1412 0c81 F30F7F00 		movdqu	%xmm0, (%rax)
 612:/home/rodarmer/sra_sdk-2.3.1/libs/krypto/cipher-vec.c **** 
 613:/home/rodarmer/sra_sdk-2.3.1/libs/krypto/cipher-vec.c ****     return 0;
 1413              		.loc 1 613 0
 1414 0c85 B8000000 		movl	$0, %eax
 1414      00
 614:/home/rodarmer/sra_sdk-2.3.1/libs/krypto/cipher-vec.c **** #else
 615:/home/rodarmer/sra_sdk-2.3.1/libs/krypto/cipher-vec.c ****     return RC (rcKrypto, rcCipher, rcEncoding, rcFunction, rcUnsupported);
 616:/home/rodarmer/sra_sdk-2.3.1/libs/krypto/cipher-vec.c **** #endif
 617:/home/rodarmer/sra_sdk-2.3.1/libs/krypto/cipher-vec.c **** }
 1415              		.loc 1 617 0
 1416 0c8a C9       		leave
 1417 0c8b C3       		ret
 1418              		.cfi_endproc
 1419              	.LFE531:
 1420              		.size	KCipherVecEncryptOfb, .-KCipherVecEncryptOfb
 1421              		.type	KCipherVecDecryptOfb, @function
 1422              	KCipherVecDecryptOfb:
 1423              	.LFB532:
 618:/home/rodarmer/sra_sdk-2.3.1/libs/krypto/cipher-vec.c **** 
 619:/home/rodarmer/sra_sdk-2.3.1/libs/krypto/cipher-vec.c **** 
 620:/home/rodarmer/sra_sdk-2.3.1/libs/krypto/cipher-vec.c **** static
 621:/home/rodarmer/sra_sdk-2.3.1/libs/krypto/cipher-vec.c **** rc_t CMEMBER(DecryptOfb) (CIPHER_IMPL * self, const void * in, void * out, uint32_t block_count)
 622:/home/rodarmer/sra_sdk-2.3.1/libs/krypto/cipher-vec.c **** {
 1424              		.loc 1 622 0
 1425              		.cfi_startproc
GAS LISTING /tmp/ccQ6OdaV.s 			page 42


 1426 0c8c 55       		pushq	%rbp
 1427              	.LCFI48:
 1428              		.cfi_def_cfa_offset 16
 1429 0c8d 4889E5   		movq	%rsp, %rbp
 1430              		.cfi_offset 6, -16
 1431              	.LCFI49:
 1432              		.cfi_def_cfa_register 6
 1433 0c90 53       		pushq	%rbx
 1434 0c91 4883EC28 		subq	$40, %rsp
 1435 0c95 48897DE8 		movq	%rdi, -24(%rbp)
 1436 0c99 488975E0 		movq	%rsi, -32(%rbp)
 1437 0c9d 488955D8 		movq	%rdx, -40(%rbp)
 1438 0ca1 894DD4   		movl	%ecx, -44(%rbp)
 623:/home/rodarmer/sra_sdk-2.3.1/libs/krypto/cipher-vec.c ****     return CMEMBER(EncryptOfb)(self, in, out, block_count);
 1439              		.loc 1 623 0
 1440 0ca4 8B4DD4   		movl	-44(%rbp), %ecx
 1441 0ca7 488B55D8 		movq	-40(%rbp), %rdx
 1442 0cab 488B5DE0 		movq	-32(%rbp), %rbx
 1443              		.cfi_offset 3, -24
 1444 0caf 488B45E8 		movq	-24(%rbp), %rax
 1445 0cb3 4889DE   		movq	%rbx, %rsi
 1446 0cb6 4889C7   		movq	%rax, %rdi
 1447 0cb9 E808FFFF 		call	KCipherVecEncryptOfb
 1447      FF
 624:/home/rodarmer/sra_sdk-2.3.1/libs/krypto/cipher-vec.c **** }
 1448              		.loc 1 624 0
 1449 0cbe 4883C428 		addq	$40, %rsp
 1450 0cc2 5B       		popq	%rbx
 1451 0cc3 C9       		leave
 1452 0cc4 C3       		ret
 1453              		.cfi_endproc
 1454              	.LFE532:
 1455              		.size	KCipherVecDecryptOfb, .-KCipherVecDecryptOfb
 1456              		.type	KCipherVecEncryptCtr, @function
 1457              	KCipherVecEncryptCtr:
 1458              	.LFB533:
 625:/home/rodarmer/sra_sdk-2.3.1/libs/krypto/cipher-vec.c **** 
 626:/home/rodarmer/sra_sdk-2.3.1/libs/krypto/cipher-vec.c **** 
 627:/home/rodarmer/sra_sdk-2.3.1/libs/krypto/cipher-vec.c **** /* Counter
 628:/home/rodarmer/sra_sdk-2.3.1/libs/krypto/cipher-vec.c ****  * IV is a nonce and not re-used as FB
 629:/home/rodarmer/sra_sdk-2.3.1/libs/krypto/cipher-vec.c ****  * CT = PT ^ ENC (N, EK)
 630:/home/rodarmer/sra_sdk-2.3.1/libs/krypto/cipher-vec.c ****  * PT = CT ^ ENC (N, DK) 
 631:/home/rodarmer/sra_sdk-2.3.1/libs/krypto/cipher-vec.c ****  * Note decrypt is encrypt.
 632:/home/rodarmer/sra_sdk-2.3.1/libs/krypto/cipher-vec.c ****  * nonce is a function that given an iv generates the next iv
 633:/home/rodarmer/sra_sdk-2.3.1/libs/krypto/cipher-vec.c ****  */
 634:/home/rodarmer/sra_sdk-2.3.1/libs/krypto/cipher-vec.c **** static
 635:/home/rodarmer/sra_sdk-2.3.1/libs/krypto/cipher-vec.c **** rc_t CMEMBER(EncryptCtr) (CIPHER_IMPL * self, const void * in, void * out, uint32_t block_count)
 636:/home/rodarmer/sra_sdk-2.3.1/libs/krypto/cipher-vec.c **** {
 1459              		.loc 1 636 0
 1460              		.cfi_startproc
 1461 0cc5 55       		pushq	%rbp
 1462              	.LCFI50:
 1463              		.cfi_def_cfa_offset 16
 1464 0cc6 4889E5   		movq	%rsp, %rbp
 1465              		.cfi_offset 6, -16
 1466              	.LCFI51:
 1467              		.cfi_def_cfa_register 6
GAS LISTING /tmp/ccQ6OdaV.s 			page 43


 1468 0cc9 4883EC20 		subq	$32, %rsp
 1469 0ccd 48897DF8 		movq	%rdi, -8(%rbp)
 1470 0cd1 488975F0 		movq	%rsi, -16(%rbp)
 1471 0cd5 488955E8 		movq	%rdx, -24(%rbp)
 1472 0cd9 894DE4   		movl	%ecx, -28(%rbp)
 637:/home/rodarmer/sra_sdk-2.3.1/libs/krypto/cipher-vec.c ****     return RC (rcKrypto, rcCipher, rcEncoding, rcFunction, rcUnsupported);
 1473              		.loc 1 637 0
 1474 0cdc B97D0200 		movl	$637, %ecx
 1474      00
 1475 0ce1 488D1500 		leaq	__func__.6944(%rip), %rdx
 1475      000000
 1476 0ce8 488D3500 		leaq	.LC0(%rip), %rsi
 1476      000000
 1477 0cef BF030509 		movl	$-2029452029, %edi
 1477      87
 1478 0cf4 E8000000 		call	SetRCFileFuncLine@PLT
 1478      00
 638:/home/rodarmer/sra_sdk-2.3.1/libs/krypto/cipher-vec.c **** }
 1479              		.loc 1 638 0
 1480 0cf9 C9       		leave
 1481 0cfa C3       		ret
 1482              		.cfi_endproc
 1483              	.LFE533:
 1484              		.size	KCipherVecEncryptCtr, .-KCipherVecEncryptCtr
 1485              		.type	KCipherVecDecryptCtr, @function
 1486              	KCipherVecDecryptCtr:
 1487              	.LFB534:
 639:/home/rodarmer/sra_sdk-2.3.1/libs/krypto/cipher-vec.c **** 
 640:/home/rodarmer/sra_sdk-2.3.1/libs/krypto/cipher-vec.c **** 
 641:/home/rodarmer/sra_sdk-2.3.1/libs/krypto/cipher-vec.c **** static
 642:/home/rodarmer/sra_sdk-2.3.1/libs/krypto/cipher-vec.c **** rc_t CMEMBER(DecryptCtr) (CIPHER_IMPL * self, const void * in, void * out, uint32_t block_count)
 643:/home/rodarmer/sra_sdk-2.3.1/libs/krypto/cipher-vec.c **** {
 1488              		.loc 1 643 0
 1489              		.cfi_startproc
 1490 0cfb 55       		pushq	%rbp
 1491              	.LCFI52:
 1492              		.cfi_def_cfa_offset 16
 1493 0cfc 4889E5   		movq	%rsp, %rbp
 1494              		.cfi_offset 6, -16
 1495              	.LCFI53:
 1496              		.cfi_def_cfa_register 6
 1497 0cff 4883EC20 		subq	$32, %rsp
 1498 0d03 48897DF8 		movq	%rdi, -8(%rbp)
 1499 0d07 488975F0 		movq	%rsi, -16(%rbp)
 1500 0d0b 488955E8 		movq	%rdx, -24(%rbp)
 1501 0d0f 894DE4   		movl	%ecx, -28(%rbp)
 644:/home/rodarmer/sra_sdk-2.3.1/libs/krypto/cipher-vec.c ****     return RC (rcKrypto, rcCipher, rcEncoding, rcFunction, rcUnsupported);
 1502              		.loc 1 644 0
 1503 0d12 B9840200 		movl	$644, %ecx
 1503      00
 1504 0d17 488D1500 		leaq	__func__.6954(%rip), %rdx
 1504      000000
 1505 0d1e 488D3500 		leaq	.LC0(%rip), %rsi
 1505      000000
 1506 0d25 BF030509 		movl	$-2029452029, %edi
 1506      87
 1507 0d2a E8000000 		call	SetRCFileFuncLine@PLT
GAS LISTING /tmp/ccQ6OdaV.s 			page 44


 1507      00
 645:/home/rodarmer/sra_sdk-2.3.1/libs/krypto/cipher-vec.c **** }
 1508              		.loc 1 645 0
 1509 0d2f C9       		leave
 1510 0d30 C3       		ret
 1511              		.cfi_endproc
 1512              	.LFE534:
 1513              		.size	KCipherVecDecryptCtr, .-KCipherVecDecryptCtr
 1514              		.section	.data.rel.local,"aw",@progbits
 1515              		.align 32
 1516              		.type	KCipherVec_vt_v1, @object
 1517              		.size	KCipherVec_vt_v1, 176
 1518              	KCipherVec_vt_v1:
 1519 0000 01000000 		.long	1
 1520 0004 00000000 		.long	0
 1521 0008 00000000 		.quad	KCipherVecDestroy
 1521      00000000 
 1522 0010 00000000 		.quad	KCipherVecSetEncryptKey
 1522      00000000 
 1523 0018 00000000 		.quad	KCipherVecSetDecryptKey
 1523      00000000 
 1524 0020 00000000 		.quad	KCipherVecSetEncryptIvec
 1524      00000000 
 1525 0028 00000000 		.quad	KCipherVecSetDecryptIvec
 1525      00000000 
 1526 0030 00000000 		.quad	KCipherVecSetEncryptCounterFunc
 1526      00000000 
 1527 0038 00000000 		.quad	KCipherVecSetDecryptCounterFunc
 1527      00000000 
 1528 0040 00000000 		.quad	KCipherVecEncrypt
 1528      00000000 
 1529 0048 00000000 		.quad	KCipherVecDecrypt
 1529      00000000 
 1530 0050 00000000 		.quad	KCipherVecEncryptEcb
 1530      00000000 
 1531 0058 00000000 		.quad	KCipherVecDecryptEcb
 1531      00000000 
 1532 0060 00000000 		.quad	KCipherVecEncryptCbc
 1532      00000000 
 1533 0068 00000000 		.quad	KCipherVecDecryptCbc
 1533      00000000 
 1534 0070 00000000 		.quad	KCipherVecEncryptPcbc
 1534      00000000 
 1535 0078 00000000 		.quad	KCipherVecDecryptPcbc
 1535      00000000 
 1536 0080 00000000 		.quad	KCipherVecEncryptCfb
 1536      00000000 
 1537 0088 00000000 		.quad	KCipherVecDecryptCfb
 1537      00000000 
 1538 0090 00000000 		.quad	KCipherVecEncryptOfb
 1538      00000000 
 1539 0098 00000000 		.quad	KCipherVecDecryptOfb
 1539      00000000 
 1540 00a0 00000000 		.quad	KCipherVecEncryptCtr
 1540      00000000 
 1541 00a8 00000000 		.quad	KCipherVecDecryptCtr
 1541      00000000 
GAS LISTING /tmp/ccQ6OdaV.s 			page 45


 1542              		.text
 1543              		.type	KCipherVecAllocAes, @function
 1544              	KCipherVecAllocAes:
 1545              	.LFB535:
 646:/home/rodarmer/sra_sdk-2.3.1/libs/krypto/cipher-vec.c **** 
 647:/home/rodarmer/sra_sdk-2.3.1/libs/krypto/cipher-vec.c **** static
 648:/home/rodarmer/sra_sdk-2.3.1/libs/krypto/cipher-vec.c **** struct KCipher_vt_v1 CMEMBER(_vt_v1) =
 649:/home/rodarmer/sra_sdk-2.3.1/libs/krypto/cipher-vec.c **** {
 650:/home/rodarmer/sra_sdk-2.3.1/libs/krypto/cipher-vec.c ****     { 1, 0 },
 651:/home/rodarmer/sra_sdk-2.3.1/libs/krypto/cipher-vec.c **** 
 652:/home/rodarmer/sra_sdk-2.3.1/libs/krypto/cipher-vec.c ****     CMEMBER(Destroy),
 653:/home/rodarmer/sra_sdk-2.3.1/libs/krypto/cipher-vec.c ****     CMEMBER(SetEncryptKey),
 654:/home/rodarmer/sra_sdk-2.3.1/libs/krypto/cipher-vec.c ****     CMEMBER(SetDecryptKey),
 655:/home/rodarmer/sra_sdk-2.3.1/libs/krypto/cipher-vec.c ****     CMEMBER(SetEncryptIvec),
 656:/home/rodarmer/sra_sdk-2.3.1/libs/krypto/cipher-vec.c ****     CMEMBER(SetDecryptIvec),
 657:/home/rodarmer/sra_sdk-2.3.1/libs/krypto/cipher-vec.c ****     CMEMBER(SetEncryptCounterFunc),
 658:/home/rodarmer/sra_sdk-2.3.1/libs/krypto/cipher-vec.c ****     CMEMBER(SetDecryptCounterFunc),
 659:/home/rodarmer/sra_sdk-2.3.1/libs/krypto/cipher-vec.c ****     CMEMBER(Encrypt),
 660:/home/rodarmer/sra_sdk-2.3.1/libs/krypto/cipher-vec.c ****     CMEMBER(Decrypt),
 661:/home/rodarmer/sra_sdk-2.3.1/libs/krypto/cipher-vec.c ****     CMEMBER(EncryptEcb),
 662:/home/rodarmer/sra_sdk-2.3.1/libs/krypto/cipher-vec.c ****     CMEMBER(DecryptEcb),
 663:/home/rodarmer/sra_sdk-2.3.1/libs/krypto/cipher-vec.c ****     CMEMBER(EncryptCbc),
 664:/home/rodarmer/sra_sdk-2.3.1/libs/krypto/cipher-vec.c ****     CMEMBER(DecryptCbc),
 665:/home/rodarmer/sra_sdk-2.3.1/libs/krypto/cipher-vec.c ****     CMEMBER(EncryptPcbc),
 666:/home/rodarmer/sra_sdk-2.3.1/libs/krypto/cipher-vec.c ****     CMEMBER(DecryptPcbc),
 667:/home/rodarmer/sra_sdk-2.3.1/libs/krypto/cipher-vec.c ****     CMEMBER(EncryptCfb),
 668:/home/rodarmer/sra_sdk-2.3.1/libs/krypto/cipher-vec.c ****     CMEMBER(DecryptCfb),
 669:/home/rodarmer/sra_sdk-2.3.1/libs/krypto/cipher-vec.c ****     CMEMBER(EncryptOfb),
 670:/home/rodarmer/sra_sdk-2.3.1/libs/krypto/cipher-vec.c ****     CMEMBER(DecryptOfb),
 671:/home/rodarmer/sra_sdk-2.3.1/libs/krypto/cipher-vec.c ****     CMEMBER(EncryptCtr),
 672:/home/rodarmer/sra_sdk-2.3.1/libs/krypto/cipher-vec.c ****     CMEMBER(DecryptCtr)
 673:/home/rodarmer/sra_sdk-2.3.1/libs/krypto/cipher-vec.c **** };
 674:/home/rodarmer/sra_sdk-2.3.1/libs/krypto/cipher-vec.c **** 
 675:/home/rodarmer/sra_sdk-2.3.1/libs/krypto/cipher-vec.c **** 
 676:/home/rodarmer/sra_sdk-2.3.1/libs/krypto/cipher-vec.c **** static __inline__
 677:/home/rodarmer/sra_sdk-2.3.1/libs/krypto/cipher-vec.c **** rc_t CMEMBER(AllocAes)(CIPHER_IMPL ** pobj,
 678:/home/rodarmer/sra_sdk-2.3.1/libs/krypto/cipher-vec.c ****                        const KBlockCipher * block_cipher)
 679:/home/rodarmer/sra_sdk-2.3.1/libs/krypto/cipher-vec.c **** {
 1546              		.loc 1 679 0
 1547              		.cfi_startproc
 1548 0d31 55       		pushq	%rbp
 1549              	.LCFI54:
 1550              		.cfi_def_cfa_offset 16
 1551 0d32 4889E5   		movq	%rsp, %rbp
 1552              		.cfi_offset 6, -16
 1553              	.LCFI55:
 1554              		.cfi_def_cfa_register 6
 1555 0d35 4883EC20 		subq	$32, %rsp
 1556 0d39 48897DE8 		movq	%rdi, -24(%rbp)
 1557 0d3d 488975E0 		movq	%rsi, -32(%rbp)
 680:/home/rodarmer/sra_sdk-2.3.1/libs/krypto/cipher-vec.c ****     CipherAes * obj;
 681:/home/rodarmer/sra_sdk-2.3.1/libs/krypto/cipher-vec.c **** 
 682:/home/rodarmer/sra_sdk-2.3.1/libs/krypto/cipher-vec.c ****     obj = calloc (1, sizeof (*obj));
 1558              		.loc 1 682 0
 1559 0d41 BE700200 		movl	$624, %esi
 1559      00
 1560 0d46 BF010000 		movl	$1, %edi
GAS LISTING /tmp/ccQ6OdaV.s 			page 46


 1560      00
 1561 0d4b E8000000 		call	calloc@PLT
 1561      00
 1562 0d50 488945F8 		movq	%rax, -8(%rbp)
 683:/home/rodarmer/sra_sdk-2.3.1/libs/krypto/cipher-vec.c ****     *pobj = (CIPHER_IMPL*)obj;
 1563              		.loc 1 683 0
 1564 0d54 488B55F8 		movq	-8(%rbp), %rdx
 1565 0d58 488B45E8 		movq	-24(%rbp), %rax
 1566 0d5c 488910   		movq	%rdx, (%rax)
 684:/home/rodarmer/sra_sdk-2.3.1/libs/krypto/cipher-vec.c **** 
 685:/home/rodarmer/sra_sdk-2.3.1/libs/krypto/cipher-vec.c ****     return (obj ? 0 : RC (rcKrypto, rcCipher, rcConstructing, rcMemory, rcExhausted));
 1567              		.loc 1 685 0
 1568 0d5f 48837DF8 		cmpq	$0, -8(%rbp)
 1568      00
 1569 0d64 751F     		jne	.L101
 1570 0d66 B9AD0200 		movl	$685, %ecx
 1570      00
 1571 0d6b 488D1500 		leaq	__func__.6964(%rip), %rdx
 1571      000000
 1572 0d72 488D3500 		leaq	.LC0(%rip), %rsi
 1572      000000
 1573 0d79 BF539000 		movl	$-2030006189, %edi
 1573      87
 1574 0d7e E8000000 		call	SetRCFileFuncLine@PLT
 1574      00
 1575 0d83 EB05     		jmp	.L102
 1576              	.L101:
 1577 0d85 B8000000 		movl	$0, %eax
 1577      00
 1578              	.L102:
 686:/home/rodarmer/sra_sdk-2.3.1/libs/krypto/cipher-vec.c **** }
 1579              		.loc 1 686 0
 1580 0d8a C9       		leave
 1581 0d8b C3       		ret
 1582              		.cfi_endproc
 1583              	.LFE535:
 1584              		.size	KCipherVecAllocAes, .-KCipherVecAllocAes
 1585              		.type	KCipherVecInitAes, @function
 1586              	KCipherVecInitAes:
 1587              	.LFB536:
 687:/home/rodarmer/sra_sdk-2.3.1/libs/krypto/cipher-vec.c **** 
 688:/home/rodarmer/sra_sdk-2.3.1/libs/krypto/cipher-vec.c **** 
 689:/home/rodarmer/sra_sdk-2.3.1/libs/krypto/cipher-vec.c **** static __inline__
 690:/home/rodarmer/sra_sdk-2.3.1/libs/krypto/cipher-vec.c **** rc_t CMEMBER(InitAes) (CIPHER_IMPL * self,
 691:/home/rodarmer/sra_sdk-2.3.1/libs/krypto/cipher-vec.c ****                       const KBlockCipher * block_cipher)
 692:/home/rodarmer/sra_sdk-2.3.1/libs/krypto/cipher-vec.c **** {
 1588              		.loc 1 692 0
 1589              		.cfi_startproc
 1590 0d8c 55       		pushq	%rbp
 1591              	.LCFI56:
 1592              		.cfi_def_cfa_offset 16
 1593 0d8d 4889E5   		movq	%rsp, %rbp
 1594              		.cfi_offset 6, -16
 1595              	.LCFI57:
 1596              		.cfi_def_cfa_register 6
 1597 0d90 4883EC20 		subq	$32, %rsp
 1598 0d94 48897DE8 		movq	%rdi, -24(%rbp)
GAS LISTING /tmp/ccQ6OdaV.s 			page 47


 1599 0d98 488975E0 		movq	%rsi, -32(%rbp)
 693:/home/rodarmer/sra_sdk-2.3.1/libs/krypto/cipher-vec.c ****     KCipher * dad = &self->dad;
 1600              		.loc 1 693 0
 1601 0d9c 488B45E8 		movq	-24(%rbp), %rax
 1602 0da0 488945F0 		movq	%rax, -16(%rbp)
 694:/home/rodarmer/sra_sdk-2.3.1/libs/krypto/cipher-vec.c ****     CipherAes * aes = (struct CipherAes*)self;
 1603              		.loc 1 694 0
 1604 0da4 488B45E8 		movq	-24(%rbp), %rax
 1605 0da8 488945F8 		movq	%rax, -8(%rbp)
 695:/home/rodarmer/sra_sdk-2.3.1/libs/krypto/cipher-vec.c **** 
 696:/home/rodarmer/sra_sdk-2.3.1/libs/krypto/cipher-vec.c ****     KCipherInit (dad, sizeof (CipherVec),
 1606              		.loc 1 696 0
 1607 0dac 488B45F0 		movq	-16(%rbp), %rax
 1608 0db0 488B1500 		movq	KCipherVecClassName@GOTPCREL(%rip), %rdx
 1608      000000
 1609 0db7 4889D1   		movq	%rdx, %rcx
 1610 0dba 488D1500 		leaq	KCipherVec_vt_v1(%rip), %rdx
 1610      000000
 1611 0dc1 BE100000 		movl	$16, %esi
 1611      00
 1612 0dc6 4889C7   		movq	%rax, %rdi
 1613 0dc9 E8000000 		call	KCipherInit@PLT
 1613      00
 697:/home/rodarmer/sra_sdk-2.3.1/libs/krypto/cipher-vec.c ****                  (const KCipher_vt*)&CMEMBER(_vt_v1),
 698:/home/rodarmer/sra_sdk-2.3.1/libs/krypto/cipher-vec.c ****                  CMEMBER(ClassName));
 699:/home/rodarmer/sra_sdk-2.3.1/libs/krypto/cipher-vec.c **** 
 700:/home/rodarmer/sra_sdk-2.3.1/libs/krypto/cipher-vec.c ****     dad->encrypt_key = &aes->e_key;
 1614              		.loc 1 700 0
 1615 0dce 488B45F8 		movq	-8(%rbp), %rax
 1616 0dd2 488D5050 		leaq	80(%rax), %rdx
 1617 0dd6 488B45F0 		movq	-16(%rbp), %rax
 1618 0dda 48895018 		movq	%rdx, 24(%rax)
 701:/home/rodarmer/sra_sdk-2.3.1/libs/krypto/cipher-vec.c ****     dad->decrypt_key = &aes->d_key;
 1619              		.loc 1 701 0
 1620 0dde 488B45F8 		movq	-8(%rbp), %rax
 1621 0de2 488D9050 		leaq	336(%rax), %rdx
 1621      010000
 1622 0de9 488B45F0 		movq	-16(%rbp), %rax
 1623 0ded 48895020 		movq	%rdx, 32(%rax)
 702:/home/rodarmer/sra_sdk-2.3.1/libs/krypto/cipher-vec.c ****     dad->encrypt_ivec = &aes->e_ivec;
 1624              		.loc 1 702 0
 1625 0df1 488B45F8 		movq	-8(%rbp), %rax
 1626 0df5 488D9050 		leaq	592(%rax), %rdx
 1626      020000
 1627 0dfc 488B45F0 		movq	-16(%rbp), %rax
 1628 0e00 48895028 		movq	%rdx, 40(%rax)
 703:/home/rodarmer/sra_sdk-2.3.1/libs/krypto/cipher-vec.c ****     dad->decrypt_ivec = &aes->d_ivec;
 1629              		.loc 1 703 0
 1630 0e04 488B45F8 		movq	-8(%rbp), %rax
 1631 0e08 488D9060 		leaq	608(%rax), %rdx
 1631      020000
 1632 0e0f 488B45F0 		movq	-16(%rbp), %rax
 1633 0e13 48895030 		movq	%rdx, 48(%rax)
 704:/home/rodarmer/sra_sdk-2.3.1/libs/krypto/cipher-vec.c **** 
 705:/home/rodarmer/sra_sdk-2.3.1/libs/krypto/cipher-vec.c ****     self->block_cipher = &block_cipher->vec;
 1634              		.loc 1 705 0
 1635 0e17 488B55E0 		movq	-32(%rbp), %rdx
GAS LISTING /tmp/ccQ6OdaV.s 			page 48


 1636 0e1b 488B45E8 		movq	-24(%rbp), %rax
 1637 0e1f 48895048 		movq	%rdx, 72(%rax)
 706:/home/rodarmer/sra_sdk-2.3.1/libs/krypto/cipher-vec.c **** 
 707:/home/rodarmer/sra_sdk-2.3.1/libs/krypto/cipher-vec.c ****     return 0;
 1638              		.loc 1 707 0
 1639 0e23 B8000000 		movl	$0, %eax
 1639      00
 708:/home/rodarmer/sra_sdk-2.3.1/libs/krypto/cipher-vec.c **** }
 1640              		.loc 1 708 0
 1641 0e28 C9       		leave
 1642 0e29 C3       		ret
 1643              		.cfi_endproc
 1644              	.LFE536:
 1645              		.size	KCipherVecInitAes, .-KCipherVecInitAes
 1646              		.type	KCipherVecAllocNull, @function
 1647              	KCipherVecAllocNull:
 1648              	.LFB537:
 709:/home/rodarmer/sra_sdk-2.3.1/libs/krypto/cipher-vec.c **** 
 710:/home/rodarmer/sra_sdk-2.3.1/libs/krypto/cipher-vec.c **** 
 711:/home/rodarmer/sra_sdk-2.3.1/libs/krypto/cipher-vec.c **** static __inline__
 712:/home/rodarmer/sra_sdk-2.3.1/libs/krypto/cipher-vec.c **** rc_t CMEMBER(AllocNull)(CIPHER_IMPL ** pobj,
 713:/home/rodarmer/sra_sdk-2.3.1/libs/krypto/cipher-vec.c ****                         const KBlockCipher * block_cipher)
 714:/home/rodarmer/sra_sdk-2.3.1/libs/krypto/cipher-vec.c **** {
 1649              		.loc 1 714 0
 1650              		.cfi_startproc
 1651 0e2a 55       		pushq	%rbp
 1652              	.LCFI58:
 1653              		.cfi_def_cfa_offset 16
 1654 0e2b 4889E5   		movq	%rsp, %rbp
 1655              		.cfi_offset 6, -16
 1656              	.LCFI59:
 1657              		.cfi_def_cfa_register 6
 1658 0e2e 4883EC20 		subq	$32, %rsp
 1659 0e32 48897DE8 		movq	%rdi, -24(%rbp)
 1660 0e36 488975E0 		movq	%rsi, -32(%rbp)
 715:/home/rodarmer/sra_sdk-2.3.1/libs/krypto/cipher-vec.c ****     CipherNull * obj;
 716:/home/rodarmer/sra_sdk-2.3.1/libs/krypto/cipher-vec.c **** 
 717:/home/rodarmer/sra_sdk-2.3.1/libs/krypto/cipher-vec.c ****     obj = calloc (1, sizeof (*obj));
 1661              		.loc 1 717 0
 1662 0e3a BE700000 		movl	$112, %esi
 1662      00
 1663 0e3f BF010000 		movl	$1, %edi
 1663      00
 1664 0e44 E8000000 		call	calloc@PLT
 1664      00
 1665 0e49 488945F8 		movq	%rax, -8(%rbp)
 718:/home/rodarmer/sra_sdk-2.3.1/libs/krypto/cipher-vec.c ****     *pobj = (CIPHER_IMPL*)obj;
 1666              		.loc 1 718 0
 1667 0e4d 488B55F8 		movq	-8(%rbp), %rdx
 1668 0e51 488B45E8 		movq	-24(%rbp), %rax
 1669 0e55 488910   		movq	%rdx, (%rax)
 719:/home/rodarmer/sra_sdk-2.3.1/libs/krypto/cipher-vec.c **** 
 720:/home/rodarmer/sra_sdk-2.3.1/libs/krypto/cipher-vec.c ****     return (obj ? 0 : RC (rcKrypto, rcCipher, rcConstructing, rcMemory, rcExhausted));
 1670              		.loc 1 720 0
 1671 0e58 48837DF8 		cmpq	$0, -8(%rbp)
 1671      00
 1672 0e5d 751F     		jne	.L107
GAS LISTING /tmp/ccQ6OdaV.s 			page 49


 1673 0e5f B9D00200 		movl	$720, %ecx
 1673      00
 1674 0e64 488D1500 		leaq	__func__.6991(%rip), %rdx
 1674      000000
 1675 0e6b 488D3500 		leaq	.LC0(%rip), %rsi
 1675      000000
 1676 0e72 BF539000 		movl	$-2030006189, %edi
 1676      87
 1677 0e77 E8000000 		call	SetRCFileFuncLine@PLT
 1677      00
 1678 0e7c EB05     		jmp	.L108
 1679              	.L107:
 1680 0e7e B8000000 		movl	$0, %eax
 1680      00
 1681              	.L108:
 721:/home/rodarmer/sra_sdk-2.3.1/libs/krypto/cipher-vec.c **** }
 1682              		.loc 1 721 0
 1683 0e83 C9       		leave
 1684 0e84 C3       		ret
 1685              		.cfi_endproc
 1686              	.LFE537:
 1687              		.size	KCipherVecAllocNull, .-KCipherVecAllocNull
 1688              		.type	KCipherVecInitNull, @function
 1689              	KCipherVecInitNull:
 1690              	.LFB538:
 722:/home/rodarmer/sra_sdk-2.3.1/libs/krypto/cipher-vec.c **** 
 723:/home/rodarmer/sra_sdk-2.3.1/libs/krypto/cipher-vec.c **** 
 724:/home/rodarmer/sra_sdk-2.3.1/libs/krypto/cipher-vec.c **** static __inline__
 725:/home/rodarmer/sra_sdk-2.3.1/libs/krypto/cipher-vec.c **** rc_t CMEMBER(InitNull) (CIPHER_IMPL * self,
 726:/home/rodarmer/sra_sdk-2.3.1/libs/krypto/cipher-vec.c ****                         const KBlockCipher * block_cipher)
 727:/home/rodarmer/sra_sdk-2.3.1/libs/krypto/cipher-vec.c **** {
 1691              		.loc 1 727 0
 1692              		.cfi_startproc
 1693 0e85 55       		pushq	%rbp
 1694              	.LCFI60:
 1695              		.cfi_def_cfa_offset 16
 1696 0e86 4889E5   		movq	%rsp, %rbp
 1697              		.cfi_offset 6, -16
 1698              	.LCFI61:
 1699              		.cfi_def_cfa_register 6
 1700 0e89 4883EC20 		subq	$32, %rsp
 1701 0e8d 48897DE8 		movq	%rdi, -24(%rbp)
 1702 0e91 488975E0 		movq	%rsi, -32(%rbp)
 728:/home/rodarmer/sra_sdk-2.3.1/libs/krypto/cipher-vec.c ****     KCipher * dad = &self->dad;
 1703              		.loc 1 728 0
 1704 0e95 488B45E8 		movq	-24(%rbp), %rax
 1705 0e99 488945F0 		movq	%rax, -16(%rbp)
 729:/home/rodarmer/sra_sdk-2.3.1/libs/krypto/cipher-vec.c ****     CipherNull * null = (CipherNull*)self;
 1706              		.loc 1 729 0
 1707 0e9d 488B45E8 		movq	-24(%rbp), %rax
 1708 0ea1 488945F8 		movq	%rax, -8(%rbp)
 730:/home/rodarmer/sra_sdk-2.3.1/libs/krypto/cipher-vec.c **** 
 731:/home/rodarmer/sra_sdk-2.3.1/libs/krypto/cipher-vec.c ****     KCipherInit (dad, sizeof (CipherVec),
 1709              		.loc 1 731 0
 1710 0ea5 488B45F0 		movq	-16(%rbp), %rax
 1711 0ea9 488B1500 		movq	KCipherVecClassName@GOTPCREL(%rip), %rdx
 1711      000000
GAS LISTING /tmp/ccQ6OdaV.s 			page 50


 1712 0eb0 4889D1   		movq	%rdx, %rcx
 1713 0eb3 488D1500 		leaq	KCipherVec_vt_v1(%rip), %rdx
 1713      000000
 1714 0eba BE100000 		movl	$16, %esi
 1714      00
 1715 0ebf 4889C7   		movq	%rax, %rdi
 1716 0ec2 E8000000 		call	KCipherInit@PLT
 1716      00
 732:/home/rodarmer/sra_sdk-2.3.1/libs/krypto/cipher-vec.c ****                  (const KCipher_vt*)&CMEMBER(_vt_v1),
 733:/home/rodarmer/sra_sdk-2.3.1/libs/krypto/cipher-vec.c ****                  CMEMBER(ClassName));
 734:/home/rodarmer/sra_sdk-2.3.1/libs/krypto/cipher-vec.c **** 
 735:/home/rodarmer/sra_sdk-2.3.1/libs/krypto/cipher-vec.c ****     dad->encrypt_key = &null->e_ivec;
 1717              		.loc 1 735 0
 1718 0ec7 488B45F8 		movq	-8(%rbp), %rax
 1719 0ecb 488D5050 		leaq	80(%rax), %rdx
 1720 0ecf 488B45F0 		movq	-16(%rbp), %rax
 1721 0ed3 48895018 		movq	%rdx, 24(%rax)
 736:/home/rodarmer/sra_sdk-2.3.1/libs/krypto/cipher-vec.c ****     dad->decrypt_key = &null->d_ivec;
 1722              		.loc 1 736 0
 1723 0ed7 488B45F8 		movq	-8(%rbp), %rax
 1724 0edb 488D5060 		leaq	96(%rax), %rdx
 1725 0edf 488B45F0 		movq	-16(%rbp), %rax
 1726 0ee3 48895020 		movq	%rdx, 32(%rax)
 737:/home/rodarmer/sra_sdk-2.3.1/libs/krypto/cipher-vec.c ****     dad->encrypt_ivec = &null->e_ivec;
 1727              		.loc 1 737 0
 1728 0ee7 488B45F8 		movq	-8(%rbp), %rax
 1729 0eeb 488D5050 		leaq	80(%rax), %rdx
 1730 0eef 488B45F0 		movq	-16(%rbp), %rax
 1731 0ef3 48895028 		movq	%rdx, 40(%rax)
 738:/home/rodarmer/sra_sdk-2.3.1/libs/krypto/cipher-vec.c ****     dad->decrypt_ivec = &null->d_ivec;
 1732              		.loc 1 738 0
 1733 0ef7 488B45F8 		movq	-8(%rbp), %rax
 1734 0efb 488D5060 		leaq	96(%rax), %rdx
 1735 0eff 488B45F0 		movq	-16(%rbp), %rax
 1736 0f03 48895030 		movq	%rdx, 48(%rax)
 739:/home/rodarmer/sra_sdk-2.3.1/libs/krypto/cipher-vec.c **** 
 740:/home/rodarmer/sra_sdk-2.3.1/libs/krypto/cipher-vec.c ****     self->block_cipher = &block_cipher->vec;
 1737              		.loc 1 740 0
 1738 0f07 488B55E0 		movq	-32(%rbp), %rdx
 1739 0f0b 488B45E8 		movq	-24(%rbp), %rax
 1740 0f0f 48895048 		movq	%rdx, 72(%rax)
 741:/home/rodarmer/sra_sdk-2.3.1/libs/krypto/cipher-vec.c **** 
 742:/home/rodarmer/sra_sdk-2.3.1/libs/krypto/cipher-vec.c ****     return 0;
 1741              		.loc 1 742 0
 1742 0f13 B8000000 		movl	$0, %eax
 1742      00
 743:/home/rodarmer/sra_sdk-2.3.1/libs/krypto/cipher-vec.c **** }
 1743              		.loc 1 743 0
 1744 0f18 C9       		leave
 1745 0f19 C3       		ret
 1746              		.cfi_endproc
 1747              	.LFE538:
 1748              		.size	KCipherVecInitNull, .-KCipherVecInitNull
 1749              	.globl KCipherVecMake
 1750              		.type	KCipherVecMake, @function
 1751              	KCipherVecMake:
 1752              	.LFB539:
GAS LISTING /tmp/ccQ6OdaV.s 			page 51


 744:/home/rodarmer/sra_sdk-2.3.1/libs/krypto/cipher-vec.c **** 
 745:/home/rodarmer/sra_sdk-2.3.1/libs/krypto/cipher-vec.c **** 
 746:/home/rodarmer/sra_sdk-2.3.1/libs/krypto/cipher-vec.c **** rc_t CMEMBER(Make) (KCipher ** new_obj, kcipher_type type)
 747:/home/rodarmer/sra_sdk-2.3.1/libs/krypto/cipher-vec.c **** {
 1753              		.loc 1 747 0
 1754              		.cfi_startproc
 1755 0f1a 55       		pushq	%rbp
 1756              	.LCFI62:
 1757              		.cfi_def_cfa_offset 16
 1758 0f1b 4889E5   		movq	%rsp, %rbp
 1759              		.cfi_offset 6, -16
 1760              	.LCFI63:
 1761              		.cfi_def_cfa_register 6
 1762 0f1e 4883EC30 		subq	$48, %rsp
 1763 0f22 48897DD8 		movq	%rdi, -40(%rbp)
 1764 0f26 8975D4   		movl	%esi, -44(%rbp)
 748:/home/rodarmer/sra_sdk-2.3.1/libs/krypto/cipher-vec.c ****     rc_t rc;
 749:/home/rodarmer/sra_sdk-2.3.1/libs/krypto/cipher-vec.c ****     KBlockCipher * block_cipher;
 750:/home/rodarmer/sra_sdk-2.3.1/libs/krypto/cipher-vec.c **** 
 751:/home/rodarmer/sra_sdk-2.3.1/libs/krypto/cipher-vec.c ****     if (new_obj == NULL)
 1765              		.loc 1 751 0
 1766 0f29 48837DD8 		cmpq	$0, -40(%rbp)
 1766      00
 1767 0f2e 7522     		jne	.L113
 752:/home/rodarmer/sra_sdk-2.3.1/libs/krypto/cipher-vec.c ****         return RC (rcKrypto, rcCipher, rcConstructing, rcSelf, rcNull);
 1768              		.loc 1 752 0
 1769 0f30 B9F00200 		movl	$752, %ecx
 1769      00
 1770 0f35 488D1500 		leaq	__func__.7019(%rip), %rdx
 1770      000000
 1771 0f3c 488D3500 		leaq	.LC0(%rip), %rsi
 1771      000000
 1772 0f43 BF878F00 		movl	$-2030006393, %edi
 1772      87
 1773 0f48 E8000000 		call	SetRCFileFuncLine@PLT
 1773      00
 1774 0f4d E9280100 		jmp	.L114
 1774      00
 1775              	.L113:
 753:/home/rodarmer/sra_sdk-2.3.1/libs/krypto/cipher-vec.c **** 
 754:/home/rodarmer/sra_sdk-2.3.1/libs/krypto/cipher-vec.c ****     *new_obj = NULL;
 1776              		.loc 1 754 0
 1777 0f52 488B45D8 		movq	-40(%rbp), %rax
 1778 0f56 48C70000 		movq	$0, (%rax)
 1778      000000
 755:/home/rodarmer/sra_sdk-2.3.1/libs/krypto/cipher-vec.c **** 
 756:/home/rodarmer/sra_sdk-2.3.1/libs/krypto/cipher-vec.c ****     switch (type)
 1779              		.loc 1 756 0
 1780 0f5d 8B45D4   		movl	-44(%rbp), %eax
 1781 0f60 85C0     		testl	%eax, %eax
 1782 0f62 7427     		je	.L116
 1783 0f64 83F801   		cmpl	$1, %eax
 1784 0f67 7433     		je	.L117
 757:/home/rodarmer/sra_sdk-2.3.1/libs/krypto/cipher-vec.c ****     {
 758:/home/rodarmer/sra_sdk-2.3.1/libs/krypto/cipher-vec.c ****     default:
 759:/home/rodarmer/sra_sdk-2.3.1/libs/krypto/cipher-vec.c ****         return RC (rcKrypto, rcCipher, rcConstructing, rcParam, rcInvalid);
 1785              		.loc 1 759 0
GAS LISTING /tmp/ccQ6OdaV.s 			page 52


 1786 0f69 B9F70200 		movl	$759, %ecx
 1786      00
 1787 0f6e 488D1500 		leaq	__func__.7019(%rip), %rdx
 1787      000000
 1788 0f75 488D3500 		leaq	.LC0(%rip), %rsi
 1788      000000
 1789 0f7c BFCA8F00 		movl	$-2030006326, %edi
 1789      87
 1790 0f81 E8000000 		call	SetRCFileFuncLine@PLT
 1790      00
 1791 0f86 E9EF0000 		jmp	.L114
 1791      00
 1792              	.L116:
 760:/home/rodarmer/sra_sdk-2.3.1/libs/krypto/cipher-vec.c **** 
 761:/home/rodarmer/sra_sdk-2.3.1/libs/krypto/cipher-vec.c ****     case kcipher_null:
 762:/home/rodarmer/sra_sdk-2.3.1/libs/krypto/cipher-vec.c ****         rc = NULLBCMEMBER(Make)(&block_cipher);
 1793              		.loc 1 762 0
 1794 0f8b 488D45F0 		leaq	-16(%rbp), %rax
 1795 0f8f 4889C7   		movq	%rax, %rdi
 1796 0f92 E8000000 		call	KNullBlockCipherVecMake@PLT
 1796      00
 1797 0f97 8945FC   		movl	%eax, -4(%rbp)
 763:/home/rodarmer/sra_sdk-2.3.1/libs/krypto/cipher-vec.c ****         break;
 1798              		.loc 1 763 0
 1799 0f9a EB0F     		jmp	.L118
 1800              	.L117:
 764:/home/rodarmer/sra_sdk-2.3.1/libs/krypto/cipher-vec.c **** 
 765:/home/rodarmer/sra_sdk-2.3.1/libs/krypto/cipher-vec.c ****     case kcipher_AES:
 766:/home/rodarmer/sra_sdk-2.3.1/libs/krypto/cipher-vec.c ****         rc = AESBCMEMBER(Make)(&block_cipher);
 1801              		.loc 1 766 0
 1802 0f9c 488D45F0 		leaq	-16(%rbp), %rax
 1803 0fa0 4889C7   		movq	%rax, %rdi
 1804 0fa3 E8000000 		call	KAESBlockCipherVecMake@PLT
 1804      00
 1805 0fa8 8945FC   		movl	%eax, -4(%rbp)
 1806              	.L118:
 767:/home/rodarmer/sra_sdk-2.3.1/libs/krypto/cipher-vec.c ****         break;
 768:/home/rodarmer/sra_sdk-2.3.1/libs/krypto/cipher-vec.c ****     }
 769:/home/rodarmer/sra_sdk-2.3.1/libs/krypto/cipher-vec.c **** 
 770:/home/rodarmer/sra_sdk-2.3.1/libs/krypto/cipher-vec.c ****     if (rc == 0)
 1807              		.loc 1 770 0
 1808 0fab 837DFC00 		cmpl	$0, -4(%rbp)
 1809 0faf 0F85C200 		jne	.L119
 1809      0000
 1810              	.LBB5:
 771:/home/rodarmer/sra_sdk-2.3.1/libs/krypto/cipher-vec.c ****     {
 772:/home/rodarmer/sra_sdk-2.3.1/libs/krypto/cipher-vec.c ****         CIPHER_IMPL * obj;
 773:/home/rodarmer/sra_sdk-2.3.1/libs/krypto/cipher-vec.c **** 
 774:/home/rodarmer/sra_sdk-2.3.1/libs/krypto/cipher-vec.c ****         switch (type)
 1811              		.loc 1 774 0
 1812 0fb5 8B45D4   		movl	-44(%rbp), %eax
 1813 0fb8 85C0     		testl	%eax, %eax
 1814 0fba 740A     		je	.L120
 1815 0fbc 83F801   		cmpl	$1, %eax
 1816 0fbf 745F     		je	.L121
 1817 0fc1 E9B10000 		jmp	.L119
 1817      00
GAS LISTING /tmp/ccQ6OdaV.s 			page 53


 1818              	.L120:
 775:/home/rodarmer/sra_sdk-2.3.1/libs/krypto/cipher-vec.c ****         {
 776:/home/rodarmer/sra_sdk-2.3.1/libs/krypto/cipher-vec.c ****         case kcipher_null:
 777:/home/rodarmer/sra_sdk-2.3.1/libs/krypto/cipher-vec.c ****             rc = CMEMBER(AllocNull) (&obj, block_cipher);
 1819              		.loc 1 777 0
 1820 0fc6 488B55F0 		movq	-16(%rbp), %rdx
 1821 0fca 488D45E8 		leaq	-24(%rbp), %rax
 1822 0fce 4889D6   		movq	%rdx, %rsi
 1823 0fd1 4889C7   		movq	%rax, %rdi
 1824 0fd4 E851FEFF 		call	KCipherVecAllocNull
 1824      FF
 1825 0fd9 8945FC   		movl	%eax, -4(%rbp)
 778:/home/rodarmer/sra_sdk-2.3.1/libs/krypto/cipher-vec.c ****             if (rc == 0)
 1826              		.loc 1 778 0
 1827 0fdc 837DFC00 		cmpl	$0, -4(%rbp)
 1828 0fe0 0F859000 		jne	.L126
 1828      0000
 779:/home/rodarmer/sra_sdk-2.3.1/libs/krypto/cipher-vec.c ****             {
 780:/home/rodarmer/sra_sdk-2.3.1/libs/krypto/cipher-vec.c ****                 rc = CMEMBER(InitNull) (obj, block_cipher);
 1829              		.loc 1 780 0
 1830 0fe6 488B55F0 		movq	-16(%rbp), %rdx
 1831 0fea 488B45E8 		movq	-24(%rbp), %rax
 1832 0fee 4889D6   		movq	%rdx, %rsi
 1833 0ff1 4889C7   		movq	%rax, %rdi
 1834 0ff4 E88CFEFF 		call	KCipherVecInitNull
 1834      FF
 1835 0ff9 8945FC   		movl	%eax, -4(%rbp)
 781:/home/rodarmer/sra_sdk-2.3.1/libs/krypto/cipher-vec.c ****                 if (rc == 0)
 1836              		.loc 1 781 0
 1837 0ffc 837DFC00 		cmpl	$0, -4(%rbp)
 1838 1000 7510     		jne	.L123
 782:/home/rodarmer/sra_sdk-2.3.1/libs/krypto/cipher-vec.c ****                     *new_obj = (KCipher*)obj;
 1839              		.loc 1 782 0
 1840 1002 488B45E8 		movq	-24(%rbp), %rax
 1841 1006 4889C2   		movq	%rax, %rdx
 1842 1009 488B45D8 		movq	-40(%rbp), %rax
 1843 100d 488910   		movq	%rdx, (%rax)
 783:/home/rodarmer/sra_sdk-2.3.1/libs/krypto/cipher-vec.c ****                 else
 784:/home/rodarmer/sra_sdk-2.3.1/libs/krypto/cipher-vec.c ****                     free (obj);
 785:/home/rodarmer/sra_sdk-2.3.1/libs/krypto/cipher-vec.c ****             }
 786:/home/rodarmer/sra_sdk-2.3.1/libs/krypto/cipher-vec.c ****             break;
 1844              		.loc 1 786 0
 1845 1010 EB65     		jmp	.L119
 1846              	.L123:
 784:/home/rodarmer/sra_sdk-2.3.1/libs/krypto/cipher-vec.c ****                     free (obj);
 1847              		.loc 1 784 0
 1848 1012 488B45E8 		movq	-24(%rbp), %rax
 1849 1016 4889C7   		movq	%rax, %rdi
 1850 1019 E8000000 		call	free@PLT
 1850      00
 1851              		.loc 1 786 0
 1852 101e EB57     		jmp	.L119
 1853              	.L121:
 787:/home/rodarmer/sra_sdk-2.3.1/libs/krypto/cipher-vec.c ****         case kcipher_AES:
 788:/home/rodarmer/sra_sdk-2.3.1/libs/krypto/cipher-vec.c ****             rc = CMEMBER(AllocAes) (&obj, block_cipher);
 1854              		.loc 1 788 0
 1855 1020 488B55F0 		movq	-16(%rbp), %rdx
GAS LISTING /tmp/ccQ6OdaV.s 			page 54


 1856 1024 488D45E8 		leaq	-24(%rbp), %rax
 1857 1028 4889D6   		movq	%rdx, %rsi
 1858 102b 4889C7   		movq	%rax, %rdi
 1859 102e E8FEFCFF 		call	KCipherVecAllocAes
 1859      FF
 1860 1033 8945FC   		movl	%eax, -4(%rbp)
 789:/home/rodarmer/sra_sdk-2.3.1/libs/krypto/cipher-vec.c ****             if (rc == 0)
 1861              		.loc 1 789 0
 1862 1036 837DFC00 		cmpl	$0, -4(%rbp)
 1863 103a 753B     		jne	.L119
 790:/home/rodarmer/sra_sdk-2.3.1/libs/krypto/cipher-vec.c ****             {
 791:/home/rodarmer/sra_sdk-2.3.1/libs/krypto/cipher-vec.c ****                 rc = CMEMBER(InitAes) (obj, block_cipher);
 1864              		.loc 1 791 0
 1865 103c 488B55F0 		movq	-16(%rbp), %rdx
 1866 1040 488B45E8 		movq	-24(%rbp), %rax
 1867 1044 4889D6   		movq	%rdx, %rsi
 1868 1047 4889C7   		movq	%rax, %rdi
 1869 104a E83DFDFF 		call	KCipherVecInitAes
 1869      FF
 1870 104f 8945FC   		movl	%eax, -4(%rbp)
 792:/home/rodarmer/sra_sdk-2.3.1/libs/krypto/cipher-vec.c ****                 if (rc == 0)
 1871              		.loc 1 792 0
 1872 1052 837DFC00 		cmpl	$0, -4(%rbp)
 1873 1056 7510     		jne	.L124
 793:/home/rodarmer/sra_sdk-2.3.1/libs/krypto/cipher-vec.c ****                     *new_obj = (KCipher*)obj;
 1874              		.loc 1 793 0
 1875 1058 488B45E8 		movq	-24(%rbp), %rax
 1876 105c 4889C2   		movq	%rax, %rdx
 1877 105f 488B45D8 		movq	-40(%rbp), %rax
 1878 1063 488910   		movq	%rdx, (%rax)
 1879 1066 EB0F     		jmp	.L119
 1880              	.L124:
 794:/home/rodarmer/sra_sdk-2.3.1/libs/krypto/cipher-vec.c ****                 else
 795:/home/rodarmer/sra_sdk-2.3.1/libs/krypto/cipher-vec.c ****                     free (obj);
 1881              		.loc 1 795 0
 1882 1068 488B45E8 		movq	-24(%rbp), %rax
 1883 106c 4889C7   		movq	%rax, %rdi
 1884 106f E8000000 		call	free@PLT
 1884      00
 1885 1074 EB01     		jmp	.L119
 1886              	.L126:
 786:/home/rodarmer/sra_sdk-2.3.1/libs/krypto/cipher-vec.c ****             break;
 1887              		.loc 1 786 0
 1888 1076 90       		nop
 1889              	.L119:
 1890              	.LBE5:
 796:/home/rodarmer/sra_sdk-2.3.1/libs/krypto/cipher-vec.c ****             }
 797:/home/rodarmer/sra_sdk-2.3.1/libs/krypto/cipher-vec.c ****         default:
 798:/home/rodarmer/sra_sdk-2.3.1/libs/krypto/cipher-vec.c ****             /* can't really get here */
 799:/home/rodarmer/sra_sdk-2.3.1/libs/krypto/cipher-vec.c ****             break;
 800:/home/rodarmer/sra_sdk-2.3.1/libs/krypto/cipher-vec.c ****         }
 801:/home/rodarmer/sra_sdk-2.3.1/libs/krypto/cipher-vec.c ****     }
 802:/home/rodarmer/sra_sdk-2.3.1/libs/krypto/cipher-vec.c ****     return rc;
 1891              		.loc 1 802 0
 1892 1077 8B45FC   		movl	-4(%rbp), %eax
 1893              	.L114:
 803:/home/rodarmer/sra_sdk-2.3.1/libs/krypto/cipher-vec.c **** }
GAS LISTING /tmp/ccQ6OdaV.s 			page 55


 1894              		.loc 1 803 0
 1895 107a C9       		leave
 1896 107b C3       		ret
 1897              		.cfi_endproc
 1898              	.LFE539:
 1899              		.size	KCipherVecMake, .-KCipherVecMake
 1900              		.section	.rodata
 1901              		.type	__func__.7019, @object
 1902              		.size	__func__.7019, 15
 1903              	__func__.7019:
 1904 006c 4B436970 		.string	"KCipherVecMake"
 1904      68657256 
 1904      65634D61 
 1904      6B6500
 1905              		.type	__PRETTY_FUNCTION__.7018, @object
 1906              		.size	__PRETTY_FUNCTION__.7018, 15
 1907              	__PRETTY_FUNCTION__.7018:
 1908 007b 4B436970 		.string	"KCipherVecMake"
 1908      68657256 
 1908      65634D61 
 1908      6B6500
 1909 008a 00000000 		.align 16
 1909      0000
 1910              		.type	__func__.6991, @object
 1911              		.size	__func__.6991, 20
 1912              	__func__.6991:
 1913 0090 4B436970 		.string	"KCipherVecAllocNull"
 1913      68657256 
 1913      6563416C 
 1913      6C6F634E 
 1913      756C6C00 
 1914 00a4 00000000 		.align 16
 1914      00000000 
 1914      00000000 
 1915              		.type	__PRETTY_FUNCTION__.6990, @object
 1916              		.size	__PRETTY_FUNCTION__.6990, 20
 1917              	__PRETTY_FUNCTION__.6990:
 1918 00b0 4B436970 		.string	"KCipherVecAllocNull"
 1918      68657256 
 1918      6563416C 
 1918      6C6F634E 
 1918      756C6C00 
 1919 00c4 00000000 		.align 16
 1919      00000000 
 1919      00000000 
 1920              		.type	__func__.6964, @object
 1921              		.size	__func__.6964, 19
 1922              	__func__.6964:
 1923 00d0 4B436970 		.string	"KCipherVecAllocAes"
 1923      68657256 
 1923      6563416C 
 1923      6C6F6341 
 1923      657300
 1924 00e3 00000000 		.align 16
 1924      00000000 
 1924      00000000 
 1924      00
GAS LISTING /tmp/ccQ6OdaV.s 			page 56


 1925              		.type	__PRETTY_FUNCTION__.6963, @object
 1926              		.size	__PRETTY_FUNCTION__.6963, 19
 1927              	__PRETTY_FUNCTION__.6963:
 1928 00f0 4B436970 		.string	"KCipherVecAllocAes"
 1928      68657256 
 1928      6563416C 
 1928      6C6F6341 
 1928      657300
 1929 0103 00000000 		.align 16
 1929      00000000 
 1929      00000000 
 1929      00
 1930              		.type	__func__.6954, @object
 1931              		.size	__func__.6954, 21
 1932              	__func__.6954:
 1933 0110 4B436970 		.string	"KCipherVecDecryptCtr"
 1933      68657256 
 1933      65634465 
 1933      63727970 
 1933      74437472 
 1934 0125 00000000 		.align 16
 1934      00000000 
 1934      000000
 1935              		.type	__PRETTY_FUNCTION__.6953, @object
 1936              		.size	__PRETTY_FUNCTION__.6953, 21
 1937              	__PRETTY_FUNCTION__.6953:
 1938 0130 4B436970 		.string	"KCipherVecDecryptCtr"
 1938      68657256 
 1938      65634465 
 1938      63727970 
 1938      74437472 
 1939 0145 00000000 		.align 16
 1939      00000000 
 1939      000000
 1940              		.type	__func__.6944, @object
 1941              		.size	__func__.6944, 21
 1942              	__func__.6944:
 1943 0150 4B436970 		.string	"KCipherVecEncryptCtr"
 1943      68657256 
 1943      6563456E 
 1943      63727970 
 1943      74437472 
 1944 0165 00000000 		.align 16
 1944      00000000 
 1944      000000
 1945              		.type	__PRETTY_FUNCTION__.6943, @object
 1946              		.size	__PRETTY_FUNCTION__.6943, 21
 1947              	__PRETTY_FUNCTION__.6943:
 1948 0170 4B436970 		.string	"KCipherVecEncryptCtr"
 1948      68657256 
 1948      6563456E 
 1948      63727970 
 1948      74437472 
 1949 0185 00000000 		.align 16
 1949      00000000 
 1949      000000
 1950              		.type	__func__.6710, @object
GAS LISTING /tmp/ccQ6OdaV.s 			page 57


 1951              		.size	__func__.6710, 18
 1952              	__func__.6710:
 1953 0190 4B436970 		.string	"KCipherVecDecrypt"
 1953      68657256 
 1953      65634465 
 1953      63727970 
 1953      7400
 1954 01a2 00000000 		.align 16
 1954      00000000 
 1954      00000000 
 1954      0000
 1955              		.type	__PRETTY_FUNCTION__.6709, @object
 1956              		.size	__PRETTY_FUNCTION__.6709, 18
 1957              	__PRETTY_FUNCTION__.6709:
 1958 01b0 4B436970 		.string	"KCipherVecDecrypt"
 1958      68657256 
 1958      65634465 
 1958      63727970 
 1958      7400
 1959 01c2 00000000 		.align 16
 1959      00000000 
 1959      00000000 
 1959      0000
 1960              		.type	__func__.6694, @object
 1961              		.size	__func__.6694, 18
 1962              	__func__.6694:
 1963 01d0 4B436970 		.string	"KCipherVecEncrypt"
 1963      68657256 
 1963      6563456E 
 1963      63727970 
 1963      7400
 1964 01e2 00000000 		.align 16
 1964      00000000 
 1964      00000000 
 1964      0000
 1965              		.type	__PRETTY_FUNCTION__.6693, @object
 1966              		.size	__PRETTY_FUNCTION__.6693, 18
 1967              	__PRETTY_FUNCTION__.6693:
 1968 01f0 4B436970 		.string	"KCipherVecEncrypt"
 1968      68657256 
 1968      6563456E 
 1968      63727970 
 1968      7400
 1969 0202 00000000 		.align 32
 1969      00000000 
 1969      00000000 
 1969      00000000 
 1969      00000000 
 1970              		.type	__PRETTY_FUNCTION__.6644, @object
 1971              		.size	__PRETTY_FUNCTION__.6644, 32
 1972              	__PRETTY_FUNCTION__.6644:
 1973 0220 4B436970 		.string	"KCipherVecSetDecryptCounterFunc"
 1973      68657256 
 1973      65635365 
 1973      74446563 
 1973      72797074 
 1974              		.align 32
GAS LISTING /tmp/ccQ6OdaV.s 			page 58


 1975              		.type	__PRETTY_FUNCTION__.6634, @object
 1976              		.size	__PRETTY_FUNCTION__.6634, 32
 1977              	__PRETTY_FUNCTION__.6634:
 1978 0240 4B436970 		.string	"KCipherVecSetEncryptCounterFunc"
 1978      68657256 
 1978      65635365 
 1978      74456E63 
 1978      72797074 
 1979              		.align 16
 1980              		.type	__PRETTY_FUNCTION__.6621, @object
 1981              		.size	__PRETTY_FUNCTION__.6621, 25
 1982              	__PRETTY_FUNCTION__.6621:
 1983 0260 4B436970 		.string	"KCipherVecSetDecryptIvec"
 1983      68657256 
 1983      65635365 
 1983      74446563 
 1983      72797074 
 1984 0279 00000000 		.align 16
 1984      000000
 1985              		.type	__PRETTY_FUNCTION__.6608, @object
 1986              		.size	__PRETTY_FUNCTION__.6608, 25
 1987              	__PRETTY_FUNCTION__.6608:
 1988 0280 4B436970 		.string	"KCipherVecSetEncryptIvec"
 1988      68657256 
 1988      65635365 
 1988      74456E63 
 1988      72797074 
 1989 0299 00000000 		.align 16
 1989      000000
 1990              		.type	__PRETTY_FUNCTION__.6586, @object
 1991              		.size	__PRETTY_FUNCTION__.6586, 24
 1992              	__PRETTY_FUNCTION__.6586:
 1993 02a0 4B436970 		.string	"KCipherVecSetDecryptKey"
 1993      68657256 
 1993      65635365 
 1993      74446563 
 1993      72797074 
 1994 02b8 00000000 		.align 16
 1994      00000000 
 1995              		.type	__func__.6588, @object
 1996              		.size	__func__.6588, 24
 1997              	__func__.6588:
 1998 02c0 4B436970 		.string	"KCipherVecSetDecryptKey"
 1998      68657256 
 1998      65635365 
 1998      74446563 
 1998      72797074 
 1999 02d8 00000000 		.align 16
 1999      00000000 
 2000              		.type	__PRETTY_FUNCTION__.6562, @object
 2001              		.size	__PRETTY_FUNCTION__.6562, 24
 2002              	__PRETTY_FUNCTION__.6562:
 2003 02e0 4B436970 		.string	"KCipherVecSetEncryptKey"
 2003      68657256 
 2003      65635365 
 2003      74456E63 
 2003      72797074 
GAS LISTING /tmp/ccQ6OdaV.s 			page 59


 2004 02f8 00000000 		.align 16
 2004      00000000 
 2005              		.type	__func__.6564, @object
 2006              		.size	__func__.6564, 24
 2007              	__func__.6564:
 2008 0300 4B436970 		.string	"KCipherVecSetEncryptKey"
 2008      68657256 
 2008      65635365 
 2008      74456E63 
 2008      72797074 
 2009              		.text
 2010              	.Letext0:
 2011              		.section	.debug_loc,"",@progbits
 2012              	.Ldebug_loc0:
 2013              	.LLST0:
 2014 0000 00000000 		.quad	.LFB508-.Ltext0
 2014      00000000 
 2015 0008 01000000 		.quad	.LCFI0-.Ltext0
 2015      00000000 
 2016 0010 0200     		.value	0x2
 2017 0012 77       		.byte	0x77
 2018 0013 08       		.sleb128 8
 2019 0014 01000000 		.quad	.LCFI0-.Ltext0
 2019      00000000 
 2020 001c 04000000 		.quad	.LCFI1-.Ltext0
 2020      00000000 
 2021 0024 0200     		.value	0x2
 2022 0026 77       		.byte	0x77
 2023 0027 10       		.sleb128 16
 2024 0028 04000000 		.quad	.LCFI1-.Ltext0
 2024      00000000 
 2025 0030 2B000000 		.quad	.LFE508-.Ltext0
 2025      00000000 
 2026 0038 0200     		.value	0x2
 2027 003a 76       		.byte	0x76
 2028 003b 10       		.sleb128 16
 2029 003c 00000000 		.quad	0x0
 2029      00000000 
 2030 0044 00000000 		.quad	0x0
 2030      00000000 
 2031              	.LLST1:
 2032 004c 2B000000 		.quad	.LFB509-.Ltext0
 2032      00000000 
 2033 0054 2C000000 		.quad	.LCFI2-.Ltext0
 2033      00000000 
 2034 005c 0200     		.value	0x2
 2035 005e 77       		.byte	0x77
 2036 005f 08       		.sleb128 8
 2037 0060 2C000000 		.quad	.LCFI2-.Ltext0
 2037      00000000 
 2038 0068 2F000000 		.quad	.LCFI3-.Ltext0
 2038      00000000 
 2039 0070 0200     		.value	0x2
 2040 0072 77       		.byte	0x77
 2041 0073 10       		.sleb128 16
 2042 0074 2F000000 		.quad	.LCFI3-.Ltext0
 2042      00000000 
GAS LISTING /tmp/ccQ6OdaV.s 			page 60


 2043 007c 60000000 		.quad	.LFE509-.Ltext0
 2043      00000000 
 2044 0084 0200     		.value	0x2
 2045 0086 76       		.byte	0x76
 2046 0087 10       		.sleb128 16
 2047 0088 00000000 		.quad	0x0
 2047      00000000 
 2048 0090 00000000 		.quad	0x0
 2048      00000000 
 2049              	.LLST2:
 2050 0098 60000000 		.quad	.LFB510-.Ltext0
 2050      00000000 
 2051 00a0 61000000 		.quad	.LCFI4-.Ltext0
 2051      00000000 
 2052 00a8 0200     		.value	0x2
 2053 00aa 77       		.byte	0x77
 2054 00ab 08       		.sleb128 8
 2055 00ac 61000000 		.quad	.LCFI4-.Ltext0
 2055      00000000 
 2056 00b4 64000000 		.quad	.LCFI5-.Ltext0
 2056      00000000 
 2057 00bc 0200     		.value	0x2
 2058 00be 77       		.byte	0x77
 2059 00bf 10       		.sleb128 16
 2060 00c0 64000000 		.quad	.LCFI5-.Ltext0
 2060      00000000 
 2061 00c8 9A000000 		.quad	.LFE510-.Ltext0
 2061      00000000 
 2062 00d0 0200     		.value	0x2
 2063 00d2 76       		.byte	0x76
 2064 00d3 10       		.sleb128 16
 2065 00d4 00000000 		.quad	0x0
 2065      00000000 
 2066 00dc 00000000 		.quad	0x0
 2066      00000000 
 2067              	.LLST3:
 2068 00e4 9A000000 		.quad	.LFB511-.Ltext0
 2068      00000000 
 2069 00ec 9B000000 		.quad	.LCFI6-.Ltext0
 2069      00000000 
 2070 00f4 0200     		.value	0x2
 2071 00f6 77       		.byte	0x77
 2072 00f7 08       		.sleb128 8
 2073 00f8 9B000000 		.quad	.LCFI6-.Ltext0
 2073      00000000 
 2074 0100 9E000000 		.quad	.LCFI7-.Ltext0
 2074      00000000 
 2075 0108 0200     		.value	0x2
 2076 010a 77       		.byte	0x77
 2077 010b 10       		.sleb128 16
 2078 010c 9E000000 		.quad	.LCFI7-.Ltext0
 2078      00000000 
 2079 0114 84010000 		.quad	.LFE511-.Ltext0
 2079      00000000 
 2080 011c 0200     		.value	0x2
 2081 011e 76       		.byte	0x76
 2082 011f 10       		.sleb128 16
GAS LISTING /tmp/ccQ6OdaV.s 			page 61


 2083 0120 00000000 		.quad	0x0
 2083      00000000 
 2084 0128 00000000 		.quad	0x0
 2084      00000000 
 2085              	.LLST4:
 2086 0130 84010000 		.quad	.LFB512-.Ltext0
 2086      00000000 
 2087 0138 85010000 		.quad	.LCFI8-.Ltext0
 2087      00000000 
 2088 0140 0200     		.value	0x2
 2089 0142 77       		.byte	0x77
 2090 0143 08       		.sleb128 8
 2091 0144 85010000 		.quad	.LCFI8-.Ltext0
 2091      00000000 
 2092 014c 88010000 		.quad	.LCFI9-.Ltext0
 2092      00000000 
 2093 0154 0200     		.value	0x2
 2094 0156 77       		.byte	0x77
 2095 0157 10       		.sleb128 16
 2096 0158 88010000 		.quad	.LCFI9-.Ltext0
 2096      00000000 
 2097 0160 6E020000 		.quad	.LFE512-.Ltext0
 2097      00000000 
 2098 0168 0200     		.value	0x2
 2099 016a 76       		.byte	0x76
 2100 016b 10       		.sleb128 16
 2101 016c 00000000 		.quad	0x0
 2101      00000000 
 2102 0174 00000000 		.quad	0x0
 2102      00000000 
 2103              	.LLST5:
 2104 017c 6E020000 		.quad	.LFB513-.Ltext0
 2104      00000000 
 2105 0184 6F020000 		.quad	.LCFI10-.Ltext0
 2105      00000000 
 2106 018c 0200     		.value	0x2
 2107 018e 77       		.byte	0x77
 2108 018f 08       		.sleb128 8
 2109 0190 6F020000 		.quad	.LCFI10-.Ltext0
 2109      00000000 
 2110 0198 72020000 		.quad	.LCFI11-.Ltext0
 2110      00000000 
 2111 01a0 0200     		.value	0x2
 2112 01a2 77       		.byte	0x77
 2113 01a3 10       		.sleb128 16
 2114 01a4 72020000 		.quad	.LCFI11-.Ltext0
 2114      00000000 
 2115 01ac F1020000 		.quad	.LFE513-.Ltext0
 2115      00000000 
 2116 01b4 0200     		.value	0x2
 2117 01b6 76       		.byte	0x76
 2118 01b7 10       		.sleb128 16
 2119 01b8 00000000 		.quad	0x0
 2119      00000000 
 2120 01c0 00000000 		.quad	0x0
 2120      00000000 
 2121              	.LLST6:
GAS LISTING /tmp/ccQ6OdaV.s 			page 62


 2122 01c8 F1020000 		.quad	.LFB514-.Ltext0
 2122      00000000 
 2123 01d0 F2020000 		.quad	.LCFI12-.Ltext0
 2123      00000000 
 2124 01d8 0200     		.value	0x2
 2125 01da 77       		.byte	0x77
 2126 01db 08       		.sleb128 8
 2127 01dc F2020000 		.quad	.LCFI12-.Ltext0
 2127      00000000 
 2128 01e4 F5020000 		.quad	.LCFI13-.Ltext0
 2128      00000000 
 2129 01ec 0200     		.value	0x2
 2130 01ee 77       		.byte	0x77
 2131 01ef 10       		.sleb128 16
 2132 01f0 F5020000 		.quad	.LCFI13-.Ltext0
 2132      00000000 
 2133 01f8 74030000 		.quad	.LFE514-.Ltext0
 2133      00000000 
 2134 0200 0200     		.value	0x2
 2135 0202 76       		.byte	0x76
 2136 0203 10       		.sleb128 16
 2137 0204 00000000 		.quad	0x0
 2137      00000000 
 2138 020c 00000000 		.quad	0x0
 2138      00000000 
 2139              	.LLST7:
 2140 0214 74030000 		.quad	.LFB515-.Ltext0
 2140      00000000 
 2141 021c 75030000 		.quad	.LCFI14-.Ltext0
 2141      00000000 
 2142 0224 0200     		.value	0x2
 2143 0226 77       		.byte	0x77
 2144 0227 08       		.sleb128 8
 2145 0228 75030000 		.quad	.LCFI14-.Ltext0
 2145      00000000 
 2146 0230 78030000 		.quad	.LCFI15-.Ltext0
 2146      00000000 
 2147 0238 0200     		.value	0x2
 2148 023a 77       		.byte	0x77
 2149 023b 10       		.sleb128 16
 2150 023c 78030000 		.quad	.LCFI15-.Ltext0
 2150      00000000 
 2151 0244 E3030000 		.quad	.LFE515-.Ltext0
 2151      00000000 
 2152 024c 0200     		.value	0x2
 2153 024e 76       		.byte	0x76
 2154 024f 10       		.sleb128 16
 2155 0250 00000000 		.quad	0x0
 2155      00000000 
 2156 0258 00000000 		.quad	0x0
 2156      00000000 
 2157              	.LLST8:
 2158 0260 E3030000 		.quad	.LFB516-.Ltext0
 2158      00000000 
 2159 0268 E4030000 		.quad	.LCFI16-.Ltext0
 2159      00000000 
 2160 0270 0200     		.value	0x2
GAS LISTING /tmp/ccQ6OdaV.s 			page 63


 2161 0272 77       		.byte	0x77
 2162 0273 08       		.sleb128 8
 2163 0274 E4030000 		.quad	.LCFI16-.Ltext0
 2163      00000000 
 2164 027c E7030000 		.quad	.LCFI17-.Ltext0
 2164      00000000 
 2165 0284 0200     		.value	0x2
 2166 0286 77       		.byte	0x77
 2167 0287 10       		.sleb128 16
 2168 0288 E7030000 		.quad	.LCFI17-.Ltext0
 2168      00000000 
 2169 0290 52040000 		.quad	.LFE516-.Ltext0
 2169      00000000 
 2170 0298 0200     		.value	0x2
 2171 029a 76       		.byte	0x76
 2172 029b 10       		.sleb128 16
 2173 029c 00000000 		.quad	0x0
 2173      00000000 
 2174 02a4 00000000 		.quad	0x0
 2174      00000000 
 2175              	.LLST9:
 2176 02ac 52040000 		.quad	.LFB517-.Ltext0
 2176      00000000 
 2177 02b4 53040000 		.quad	.LCFI18-.Ltext0
 2177      00000000 
 2178 02bc 0200     		.value	0x2
 2179 02be 77       		.byte	0x77
 2180 02bf 08       		.sleb128 8
 2181 02c0 53040000 		.quad	.LCFI18-.Ltext0
 2181      00000000 
 2182 02c8 56040000 		.quad	.LCFI19-.Ltext0
 2182      00000000 
 2183 02d0 0200     		.value	0x2
 2184 02d2 77       		.byte	0x77
 2185 02d3 10       		.sleb128 16
 2186 02d4 56040000 		.quad	.LCFI19-.Ltext0
 2186      00000000 
 2187 02dc 79040000 		.quad	.LFE517-.Ltext0
 2187      00000000 
 2188 02e4 0200     		.value	0x2
 2189 02e6 76       		.byte	0x76
 2190 02e7 10       		.sleb128 16
 2191 02e8 00000000 		.quad	0x0
 2191      00000000 
 2192 02f0 00000000 		.quad	0x0
 2192      00000000 
 2193              	.LLST10:
 2194 02f8 79040000 		.quad	.LFB518-.Ltext0
 2194      00000000 
 2195 0300 7A040000 		.quad	.LCFI20-.Ltext0
 2195      00000000 
 2196 0308 0200     		.value	0x2
 2197 030a 77       		.byte	0x77
 2198 030b 08       		.sleb128 8
 2199 030c 7A040000 		.quad	.LCFI20-.Ltext0
 2199      00000000 
 2200 0314 7D040000 		.quad	.LCFI21-.Ltext0
GAS LISTING /tmp/ccQ6OdaV.s 			page 64


 2200      00000000 
 2201 031c 0200     		.value	0x2
 2202 031e 77       		.byte	0x77
 2203 031f 10       		.sleb128 16
 2204 0320 7D040000 		.quad	.LCFI21-.Ltext0
 2204      00000000 
 2205 0328 A0040000 		.quad	.LFE518-.Ltext0
 2205      00000000 
 2206 0330 0200     		.value	0x2
 2207 0332 76       		.byte	0x76
 2208 0333 10       		.sleb128 16
 2209 0334 00000000 		.quad	0x0
 2209      00000000 
 2210 033c 00000000 		.quad	0x0
 2210      00000000 
 2211              	.LLST11:
 2212 0344 A0040000 		.quad	.LFB519-.Ltext0
 2212      00000000 
 2213 034c A1040000 		.quad	.LCFI22-.Ltext0
 2213      00000000 
 2214 0354 0200     		.value	0x2
 2215 0356 77       		.byte	0x77
 2216 0357 08       		.sleb128 8
 2217 0358 A1040000 		.quad	.LCFI22-.Ltext0
 2217      00000000 
 2218 0360 A4040000 		.quad	.LCFI23-.Ltext0
 2218      00000000 
 2219 0368 0200     		.value	0x2
 2220 036a 77       		.byte	0x77
 2221 036b 10       		.sleb128 16
 2222 036c A4040000 		.quad	.LCFI23-.Ltext0
 2222      00000000 
 2223 0374 F3040000 		.quad	.LFE519-.Ltext0
 2223      00000000 
 2224 037c 0200     		.value	0x2
 2225 037e 76       		.byte	0x76
 2226 037f 10       		.sleb128 16
 2227 0380 00000000 		.quad	0x0
 2227      00000000 
 2228 0388 00000000 		.quad	0x0
 2228      00000000 
 2229              	.LLST12:
 2230 0390 F3040000 		.quad	.LFB520-.Ltext0
 2230      00000000 
 2231 0398 F4040000 		.quad	.LCFI24-.Ltext0
 2231      00000000 
 2232 03a0 0200     		.value	0x2
 2233 03a2 77       		.byte	0x77
 2234 03a3 08       		.sleb128 8
 2235 03a4 F4040000 		.quad	.LCFI24-.Ltext0
 2235      00000000 
 2236 03ac F7040000 		.quad	.LCFI25-.Ltext0
 2236      00000000 
 2237 03b4 0200     		.value	0x2
 2238 03b6 77       		.byte	0x77
 2239 03b7 10       		.sleb128 16
 2240 03b8 F7040000 		.quad	.LCFI25-.Ltext0
GAS LISTING /tmp/ccQ6OdaV.s 			page 65


 2240      00000000 
 2241 03c0 46050000 		.quad	.LFE520-.Ltext0
 2241      00000000 
 2242 03c8 0200     		.value	0x2
 2243 03ca 76       		.byte	0x76
 2244 03cb 10       		.sleb128 16
 2245 03cc 00000000 		.quad	0x0
 2245      00000000 
 2246 03d4 00000000 		.quad	0x0
 2246      00000000 
 2247              	.LLST13:
 2248 03dc 46050000 		.quad	.LFB521-.Ltext0
 2248      00000000 
 2249 03e4 47050000 		.quad	.LCFI26-.Ltext0
 2249      00000000 
 2250 03ec 0200     		.value	0x2
 2251 03ee 77       		.byte	0x77
 2252 03ef 08       		.sleb128 8
 2253 03f0 47050000 		.quad	.LCFI26-.Ltext0
 2253      00000000 
 2254 03f8 4A050000 		.quad	.LCFI27-.Ltext0
 2254      00000000 
 2255 0400 0200     		.value	0x2
 2256 0402 77       		.byte	0x77
 2257 0403 10       		.sleb128 16
 2258 0404 4A050000 		.quad	.LCFI27-.Ltext0
 2258      00000000 
 2259 040c AA050000 		.quad	.LFE521-.Ltext0
 2259      00000000 
 2260 0414 0200     		.value	0x2
 2261 0416 76       		.byte	0x76
 2262 0417 10       		.sleb128 16
 2263 0418 00000000 		.quad	0x0
 2263      00000000 
 2264 0420 00000000 		.quad	0x0
 2264      00000000 
 2265              	.LLST14:
 2266 0428 AA050000 		.quad	.LFB522-.Ltext0
 2266      00000000 
 2267 0430 AB050000 		.quad	.LCFI28-.Ltext0
 2267      00000000 
 2268 0438 0200     		.value	0x2
 2269 043a 77       		.byte	0x77
 2270 043b 08       		.sleb128 8
 2271 043c AB050000 		.quad	.LCFI28-.Ltext0
 2271      00000000 
 2272 0444 AE050000 		.quad	.LCFI29-.Ltext0
 2272      00000000 
 2273 044c 0200     		.value	0x2
 2274 044e 77       		.byte	0x77
 2275 044f 10       		.sleb128 16
 2276 0450 AE050000 		.quad	.LCFI29-.Ltext0
 2276      00000000 
 2277 0458 15060000 		.quad	.LFE522-.Ltext0
 2277      00000000 
 2278 0460 0200     		.value	0x2
 2279 0462 76       		.byte	0x76
GAS LISTING /tmp/ccQ6OdaV.s 			page 66


 2280 0463 10       		.sleb128 16
 2281 0464 00000000 		.quad	0x0
 2281      00000000 
 2282 046c 00000000 		.quad	0x0
 2282      00000000 
 2283              	.LLST15:
 2284 0474 15060000 		.quad	.LFB523-.Ltext0
 2284      00000000 
 2285 047c 16060000 		.quad	.LCFI30-.Ltext0
 2285      00000000 
 2286 0484 0200     		.value	0x2
 2287 0486 77       		.byte	0x77
 2288 0487 08       		.sleb128 8
 2289 0488 16060000 		.quad	.LCFI30-.Ltext0
 2289      00000000 
 2290 0490 19060000 		.quad	.LCFI31-.Ltext0
 2290      00000000 
 2291 0498 0200     		.value	0x2
 2292 049a 77       		.byte	0x77
 2293 049b 10       		.sleb128 16
 2294 049c 19060000 		.quad	.LCFI31-.Ltext0
 2294      00000000 
 2295 04a4 85060000 		.quad	.LFE523-.Ltext0
 2295      00000000 
 2296 04ac 0200     		.value	0x2
 2297 04ae 76       		.byte	0x76
 2298 04af 10       		.sleb128 16
 2299 04b0 00000000 		.quad	0x0
 2299      00000000 
 2300 04b8 00000000 		.quad	0x0
 2300      00000000 
 2301              	.LLST16:
 2302 04c0 85060000 		.quad	.LFB524-.Ltext0
 2302      00000000 
 2303 04c8 86060000 		.quad	.LCFI32-.Ltext0
 2303      00000000 
 2304 04d0 0200     		.value	0x2
 2305 04d2 77       		.byte	0x77
 2306 04d3 08       		.sleb128 8
 2307 04d4 86060000 		.quad	.LCFI32-.Ltext0
 2307      00000000 
 2308 04dc 89060000 		.quad	.LCFI33-.Ltext0
 2308      00000000 
 2309 04e4 0200     		.value	0x2
 2310 04e6 77       		.byte	0x77
 2311 04e7 10       		.sleb128 16
 2312 04e8 89060000 		.quad	.LCFI33-.Ltext0
 2312      00000000 
 2313 04f0 F5060000 		.quad	.LFE524-.Ltext0
 2313      00000000 
 2314 04f8 0200     		.value	0x2
 2315 04fa 76       		.byte	0x76
 2316 04fb 10       		.sleb128 16
 2317 04fc 00000000 		.quad	0x0
 2317      00000000 
 2318 0504 00000000 		.quad	0x0
 2318      00000000 
GAS LISTING /tmp/ccQ6OdaV.s 			page 67


 2319              	.LLST17:
 2320 050c F5060000 		.quad	.LFB525-.Ltext0
 2320      00000000 
 2321 0514 F6060000 		.quad	.LCFI34-.Ltext0
 2321      00000000 
 2322 051c 0200     		.value	0x2
 2323 051e 77       		.byte	0x77
 2324 051f 08       		.sleb128 8
 2325 0520 F6060000 		.quad	.LCFI34-.Ltext0
 2325      00000000 
 2326 0528 F9060000 		.quad	.LCFI35-.Ltext0
 2326      00000000 
 2327 0530 0200     		.value	0x2
 2328 0532 77       		.byte	0x77
 2329 0533 10       		.sleb128 16
 2330 0534 F9060000 		.quad	.LCFI35-.Ltext0
 2330      00000000 
 2331 053c C3070000 		.quad	.LFE525-.Ltext0
 2331      00000000 
 2332 0544 0200     		.value	0x2
 2333 0546 76       		.byte	0x76
 2334 0547 10       		.sleb128 16
 2335 0548 00000000 		.quad	0x0
 2335      00000000 
 2336 0550 00000000 		.quad	0x0
 2336      00000000 
 2337              	.LLST18:
 2338 0558 C3070000 		.quad	.LFB526-.Ltext0
 2338      00000000 
 2339 0560 C4070000 		.quad	.LCFI36-.Ltext0
 2339      00000000 
 2340 0568 0200     		.value	0x2
 2341 056a 77       		.byte	0x77
 2342 056b 08       		.sleb128 8
 2343 056c C4070000 		.quad	.LCFI36-.Ltext0
 2343      00000000 
 2344 0574 C7070000 		.quad	.LCFI37-.Ltext0
 2344      00000000 
 2345 057c 0200     		.value	0x2
 2346 057e 77       		.byte	0x77
 2347 057f 10       		.sleb128 16
 2348 0580 C7070000 		.quad	.LCFI37-.Ltext0
 2348      00000000 
 2349 0588 97080000 		.quad	.LFE526-.Ltext0
 2349      00000000 
 2350 0590 0200     		.value	0x2
 2351 0592 76       		.byte	0x76
 2352 0593 10       		.sleb128 16
 2353 0594 00000000 		.quad	0x0
 2353      00000000 
 2354 059c 00000000 		.quad	0x0
 2354      00000000 
 2355              	.LLST19:
 2356 05a4 97080000 		.quad	.LFB527-.Ltext0
 2356      00000000 
 2357 05ac 98080000 		.quad	.LCFI38-.Ltext0
 2357      00000000 
GAS LISTING /tmp/ccQ6OdaV.s 			page 68


 2358 05b4 0200     		.value	0x2
 2359 05b6 77       		.byte	0x77
 2360 05b7 08       		.sleb128 8
 2361 05b8 98080000 		.quad	.LCFI38-.Ltext0
 2361      00000000 
 2362 05c0 9B080000 		.quad	.LCFI39-.Ltext0
 2362      00000000 
 2363 05c8 0200     		.value	0x2
 2364 05ca 77       		.byte	0x77
 2365 05cb 10       		.sleb128 16
 2366 05cc 9B080000 		.quad	.LCFI39-.Ltext0
 2366      00000000 
 2367 05d4 74090000 		.quad	.LFE527-.Ltext0
 2367      00000000 
 2368 05dc 0200     		.value	0x2
 2369 05de 76       		.byte	0x76
 2370 05df 10       		.sleb128 16
 2371 05e0 00000000 		.quad	0x0
 2371      00000000 
 2372 05e8 00000000 		.quad	0x0
 2372      00000000 
 2373              	.LLST20:
 2374 05f0 74090000 		.quad	.LFB528-.Ltext0
 2374      00000000 
 2375 05f8 75090000 		.quad	.LCFI40-.Ltext0
 2375      00000000 
 2376 0600 0200     		.value	0x2
 2377 0602 77       		.byte	0x77
 2378 0603 08       		.sleb128 8
 2379 0604 75090000 		.quad	.LCFI40-.Ltext0
 2379      00000000 
 2380 060c 78090000 		.quad	.LCFI41-.Ltext0
 2380      00000000 
 2381 0614 0200     		.value	0x2
 2382 0616 77       		.byte	0x77
 2383 0617 10       		.sleb128 16
 2384 0618 78090000 		.quad	.LCFI41-.Ltext0
 2384      00000000 
 2385 0620 3A0A0000 		.quad	.LFE528-.Ltext0
 2385      00000000 
 2386 0628 0200     		.value	0x2
 2387 062a 76       		.byte	0x76
 2388 062b 10       		.sleb128 16
 2389 062c 00000000 		.quad	0x0
 2389      00000000 
 2390 0634 00000000 		.quad	0x0
 2390      00000000 
 2391              	.LLST21:
 2392 063c 3A0A0000 		.quad	.LFB529-.Ltext0
 2392      00000000 
 2393 0644 3B0A0000 		.quad	.LCFI42-.Ltext0
 2393      00000000 
 2394 064c 0200     		.value	0x2
 2395 064e 77       		.byte	0x77
 2396 064f 08       		.sleb128 8
 2397 0650 3B0A0000 		.quad	.LCFI42-.Ltext0
 2397      00000000 
GAS LISTING /tmp/ccQ6OdaV.s 			page 69


 2398 0658 3E0A0000 		.quad	.LCFI43-.Ltext0
 2398      00000000 
 2399 0660 0200     		.value	0x2
 2400 0662 77       		.byte	0x77
 2401 0663 10       		.sleb128 16
 2402 0664 3E0A0000 		.quad	.LCFI43-.Ltext0
 2402      00000000 
 2403 066c 000B0000 		.quad	.LFE529-.Ltext0
 2403      00000000 
 2404 0674 0200     		.value	0x2
 2405 0676 76       		.byte	0x76
 2406 0677 10       		.sleb128 16
 2407 0678 00000000 		.quad	0x0
 2407      00000000 
 2408 0680 00000000 		.quad	0x0
 2408      00000000 
 2409              	.LLST22:
 2410 0688 000B0000 		.quad	.LFB530-.Ltext0
 2410      00000000 
 2411 0690 010B0000 		.quad	.LCFI44-.Ltext0
 2411      00000000 
 2412 0698 0200     		.value	0x2
 2413 069a 77       		.byte	0x77
 2414 069b 08       		.sleb128 8
 2415 069c 010B0000 		.quad	.LCFI44-.Ltext0
 2415      00000000 
 2416 06a4 040B0000 		.quad	.LCFI45-.Ltext0
 2416      00000000 
 2417 06ac 0200     		.value	0x2
 2418 06ae 77       		.byte	0x77
 2419 06af 10       		.sleb128 16
 2420 06b0 040B0000 		.quad	.LCFI45-.Ltext0
 2420      00000000 
 2421 06b8 C60B0000 		.quad	.LFE530-.Ltext0
 2421      00000000 
 2422 06c0 0200     		.value	0x2
 2423 06c2 76       		.byte	0x76
 2424 06c3 10       		.sleb128 16
 2425 06c4 00000000 		.quad	0x0
 2425      00000000 
 2426 06cc 00000000 		.quad	0x0
 2426      00000000 
 2427              	.LLST23:
 2428 06d4 C60B0000 		.quad	.LFB531-.Ltext0
 2428      00000000 
 2429 06dc C70B0000 		.quad	.LCFI46-.Ltext0
 2429      00000000 
 2430 06e4 0200     		.value	0x2
 2431 06e6 77       		.byte	0x77
 2432 06e7 08       		.sleb128 8
 2433 06e8 C70B0000 		.quad	.LCFI46-.Ltext0
 2433      00000000 
 2434 06f0 CA0B0000 		.quad	.LCFI47-.Ltext0
 2434      00000000 
 2435 06f8 0200     		.value	0x2
 2436 06fa 77       		.byte	0x77
 2437 06fb 10       		.sleb128 16
GAS LISTING /tmp/ccQ6OdaV.s 			page 70


 2438 06fc CA0B0000 		.quad	.LCFI47-.Ltext0
 2438      00000000 
 2439 0704 8C0C0000 		.quad	.LFE531-.Ltext0
 2439      00000000 
 2440 070c 0200     		.value	0x2
 2441 070e 76       		.byte	0x76
 2442 070f 10       		.sleb128 16
 2443 0710 00000000 		.quad	0x0
 2443      00000000 
 2444 0718 00000000 		.quad	0x0
 2444      00000000 
 2445              	.LLST24:
 2446 0720 8C0C0000 		.quad	.LFB532-.Ltext0
 2446      00000000 
 2447 0728 8D0C0000 		.quad	.LCFI48-.Ltext0
 2447      00000000 
 2448 0730 0200     		.value	0x2
 2449 0732 77       		.byte	0x77
 2450 0733 08       		.sleb128 8
 2451 0734 8D0C0000 		.quad	.LCFI48-.Ltext0
 2451      00000000 
 2452 073c 900C0000 		.quad	.LCFI49-.Ltext0
 2452      00000000 
 2453 0744 0200     		.value	0x2
 2454 0746 77       		.byte	0x77
 2455 0747 10       		.sleb128 16
 2456 0748 900C0000 		.quad	.LCFI49-.Ltext0
 2456      00000000 
 2457 0750 C50C0000 		.quad	.LFE532-.Ltext0
 2457      00000000 
 2458 0758 0200     		.value	0x2
 2459 075a 76       		.byte	0x76
 2460 075b 10       		.sleb128 16
 2461 075c 00000000 		.quad	0x0
 2461      00000000 
 2462 0764 00000000 		.quad	0x0
 2462      00000000 
 2463              	.LLST25:
 2464 076c C50C0000 		.quad	.LFB533-.Ltext0
 2464      00000000 
 2465 0774 C60C0000 		.quad	.LCFI50-.Ltext0
 2465      00000000 
 2466 077c 0200     		.value	0x2
 2467 077e 77       		.byte	0x77
 2468 077f 08       		.sleb128 8
 2469 0780 C60C0000 		.quad	.LCFI50-.Ltext0
 2469      00000000 
 2470 0788 C90C0000 		.quad	.LCFI51-.Ltext0
 2470      00000000 
 2471 0790 0200     		.value	0x2
 2472 0792 77       		.byte	0x77
 2473 0793 10       		.sleb128 16
 2474 0794 C90C0000 		.quad	.LCFI51-.Ltext0
 2474      00000000 
 2475 079c FB0C0000 		.quad	.LFE533-.Ltext0
 2475      00000000 
 2476 07a4 0200     		.value	0x2
GAS LISTING /tmp/ccQ6OdaV.s 			page 71


 2477 07a6 76       		.byte	0x76
 2478 07a7 10       		.sleb128 16
 2479 07a8 00000000 		.quad	0x0
 2479      00000000 
 2480 07b0 00000000 		.quad	0x0
 2480      00000000 
 2481              	.LLST26:
 2482 07b8 FB0C0000 		.quad	.LFB534-.Ltext0
 2482      00000000 
 2483 07c0 FC0C0000 		.quad	.LCFI52-.Ltext0
 2483      00000000 
 2484 07c8 0200     		.value	0x2
 2485 07ca 77       		.byte	0x77
 2486 07cb 08       		.sleb128 8
 2487 07cc FC0C0000 		.quad	.LCFI52-.Ltext0
 2487      00000000 
 2488 07d4 FF0C0000 		.quad	.LCFI53-.Ltext0
 2488      00000000 
 2489 07dc 0200     		.value	0x2
 2490 07de 77       		.byte	0x77
 2491 07df 10       		.sleb128 16
 2492 07e0 FF0C0000 		.quad	.LCFI53-.Ltext0
 2492      00000000 
 2493 07e8 310D0000 		.quad	.LFE534-.Ltext0
 2493      00000000 
 2494 07f0 0200     		.value	0x2
 2495 07f2 76       		.byte	0x76
 2496 07f3 10       		.sleb128 16
 2497 07f4 00000000 		.quad	0x0
 2497      00000000 
 2498 07fc 00000000 		.quad	0x0
 2498      00000000 
 2499              	.LLST27:
 2500 0804 310D0000 		.quad	.LFB535-.Ltext0
 2500      00000000 
 2501 080c 320D0000 		.quad	.LCFI54-.Ltext0
 2501      00000000 
 2502 0814 0200     		.value	0x2
 2503 0816 77       		.byte	0x77
 2504 0817 08       		.sleb128 8
 2505 0818 320D0000 		.quad	.LCFI54-.Ltext0
 2505      00000000 
 2506 0820 350D0000 		.quad	.LCFI55-.Ltext0
 2506      00000000 
 2507 0828 0200     		.value	0x2
 2508 082a 77       		.byte	0x77
 2509 082b 10       		.sleb128 16
 2510 082c 350D0000 		.quad	.LCFI55-.Ltext0
 2510      00000000 
 2511 0834 8C0D0000 		.quad	.LFE535-.Ltext0
 2511      00000000 
 2512 083c 0200     		.value	0x2
 2513 083e 76       		.byte	0x76
 2514 083f 10       		.sleb128 16
 2515 0840 00000000 		.quad	0x0
 2515      00000000 
 2516 0848 00000000 		.quad	0x0
GAS LISTING /tmp/ccQ6OdaV.s 			page 72


 2516      00000000 
 2517              	.LLST28:
 2518 0850 8C0D0000 		.quad	.LFB536-.Ltext0
 2518      00000000 
 2519 0858 8D0D0000 		.quad	.LCFI56-.Ltext0
 2519      00000000 
 2520 0860 0200     		.value	0x2
 2521 0862 77       		.byte	0x77
 2522 0863 08       		.sleb128 8
 2523 0864 8D0D0000 		.quad	.LCFI56-.Ltext0
 2523      00000000 
 2524 086c 900D0000 		.quad	.LCFI57-.Ltext0
 2524      00000000 
 2525 0874 0200     		.value	0x2
 2526 0876 77       		.byte	0x77
 2527 0877 10       		.sleb128 16
 2528 0878 900D0000 		.quad	.LCFI57-.Ltext0
 2528      00000000 
 2529 0880 2A0E0000 		.quad	.LFE536-.Ltext0
 2529      00000000 
 2530 0888 0200     		.value	0x2
 2531 088a 76       		.byte	0x76
 2532 088b 10       		.sleb128 16
 2533 088c 00000000 		.quad	0x0
 2533      00000000 
 2534 0894 00000000 		.quad	0x0
 2534      00000000 
 2535              	.LLST29:
 2536 089c 2A0E0000 		.quad	.LFB537-.Ltext0
 2536      00000000 
 2537 08a4 2B0E0000 		.quad	.LCFI58-.Ltext0
 2537      00000000 
 2538 08ac 0200     		.value	0x2
 2539 08ae 77       		.byte	0x77
 2540 08af 08       		.sleb128 8
 2541 08b0 2B0E0000 		.quad	.LCFI58-.Ltext0
 2541      00000000 
 2542 08b8 2E0E0000 		.quad	.LCFI59-.Ltext0
 2542      00000000 
 2543 08c0 0200     		.value	0x2
 2544 08c2 77       		.byte	0x77
 2545 08c3 10       		.sleb128 16
 2546 08c4 2E0E0000 		.quad	.LCFI59-.Ltext0
 2546      00000000 
 2547 08cc 850E0000 		.quad	.LFE537-.Ltext0
 2547      00000000 
 2548 08d4 0200     		.value	0x2
 2549 08d6 76       		.byte	0x76
 2550 08d7 10       		.sleb128 16
 2551 08d8 00000000 		.quad	0x0
 2551      00000000 
 2552 08e0 00000000 		.quad	0x0
 2552      00000000 
 2553              	.LLST30:
 2554 08e8 850E0000 		.quad	.LFB538-.Ltext0
 2554      00000000 
 2555 08f0 860E0000 		.quad	.LCFI60-.Ltext0
GAS LISTING /tmp/ccQ6OdaV.s 			page 73


 2555      00000000 
 2556 08f8 0200     		.value	0x2
 2557 08fa 77       		.byte	0x77
 2558 08fb 08       		.sleb128 8
 2559 08fc 860E0000 		.quad	.LCFI60-.Ltext0
 2559      00000000 
 2560 0904 890E0000 		.quad	.LCFI61-.Ltext0
 2560      00000000 
 2561 090c 0200     		.value	0x2
 2562 090e 77       		.byte	0x77
 2563 090f 10       		.sleb128 16
 2564 0910 890E0000 		.quad	.LCFI61-.Ltext0
 2564      00000000 
 2565 0918 1A0F0000 		.quad	.LFE538-.Ltext0
 2565      00000000 
 2566 0920 0200     		.value	0x2
 2567 0922 76       		.byte	0x76
 2568 0923 10       		.sleb128 16
 2569 0924 00000000 		.quad	0x0
 2569      00000000 
 2570 092c 00000000 		.quad	0x0
 2570      00000000 
 2571              	.LLST31:
 2572 0934 1A0F0000 		.quad	.LFB539-.Ltext0
 2572      00000000 
 2573 093c 1B0F0000 		.quad	.LCFI62-.Ltext0
 2573      00000000 
 2574 0944 0200     		.value	0x2
 2575 0946 77       		.byte	0x77
 2576 0947 08       		.sleb128 8
 2577 0948 1B0F0000 		.quad	.LCFI62-.Ltext0
 2577      00000000 
 2578 0950 1E0F0000 		.quad	.LCFI63-.Ltext0
 2578      00000000 
 2579 0958 0200     		.value	0x2
 2580 095a 77       		.byte	0x77
 2581 095b 10       		.sleb128 16
 2582 095c 1E0F0000 		.quad	.LCFI63-.Ltext0
 2582      00000000 
 2583 0964 7C100000 		.quad	.LFE539-.Ltext0
 2583      00000000 
 2584 096c 0200     		.value	0x2
 2585 096e 76       		.byte	0x76
 2586 096f 10       		.sleb128 16
 2587 0970 00000000 		.quad	0x0
 2587      00000000 
 2588 0978 00000000 		.quad	0x0
 2588      00000000 
 2589              		.file 2 "/usr/include/stdint.h"
 2590              		.file 3 "/home/rodarmer/sra_sdk-2.3.1/interfaces/klib/defs.h"
 2591              		.file 4 "/home/rodarmer/sra_sdk-2.3.1/interfaces/cc/gcc/x86_64/atomic32.h"
 2592              		.file 5 "/home/rodarmer/sra_sdk-2.3.1/interfaces/klib/refcount.h"
 2593              		.file 6 "/home/rodarmer/sra_sdk-2.3.1/interfaces/krypto/cipher.h"
 2594              		.file 7 "/home/rodarmer/sra_sdk-2.3.1/libs/krypto/cipher-impl.h"
 2595              		.file 8 "/home/rodarmer/sra_sdk-2.3.1/libs/krypto/blockcipher-impl.h"
 2596              		.file 9 "/home/rodarmer/sra_sdk-2.3.1/interfaces/cc/gcc/v128.h"
 2597              		.file 10 "/home/rodarmer/sra_sdk-2.3.1/libs/krypto/aes-ncbi-priv.h"
GAS LISTING /tmp/ccQ6OdaV.s 			page 74


 2598              		.file 11 "/home/rodarmer/sra_sdk-2.3.1/libs/krypto/null-ncbi-priv.h"
 2599              		.file 12 "/home/rodarmer/sra_sdk-2.3.1/interfaces/krypto/ciphermgr.h"
 2600              		.file 13 "/home/rodarmer/sra_sdk-2.3.1/interfaces/klib/debug.h"
 2601              		.file 14 "/home/rodarmer/sra_sdk-2.3.1/libs/krypto/blockcipher-priv.h"
 2602              		.file 15 "/home/rodarmer/sra_sdk-2.3.1/interfaces/klib/rc.h"
 2603              		.section	.debug_info
 2604 0000 941F0000 		.long	0x1f94
 2605 0004 0200     		.value	0x2
 2606 0006 00000000 		.long	.Ldebug_abbrev0
 2607 000a 08       		.byte	0x8
 2608 000b 01       		.uleb128 0x1
 2609 000c 00000000 		.long	.LASF395
 2610 0010 01       		.byte	0x1
 2611 0011 00000000 		.long	.LASF396
 2612 0015 00000000 		.long	.LASF397
 2613 0019 00000000 		.quad	.Ltext0
 2613      00000000 
 2614 0021 00000000 		.quad	.Letext0
 2614      00000000 
 2615 0029 00000000 		.long	.Ldebug_line0
 2616 002d 02       		.uleb128 0x2
 2617 002e 01       		.byte	0x1
 2618 002f 06       		.byte	0x6
 2619 0030 00000000 		.long	.LASF0
 2620 0034 02       		.uleb128 0x2
 2621 0035 02       		.byte	0x2
 2622 0036 05       		.byte	0x5
 2623 0037 00000000 		.long	.LASF1
 2624 003b 03       		.uleb128 0x3
 2625 003c 04       		.byte	0x4
 2626 003d 05       		.byte	0x5
 2627 003e 696E7400 		.string	"int"
 2628 0042 02       		.uleb128 0x2
 2629 0043 08       		.byte	0x8
 2630 0044 05       		.byte	0x5
 2631 0045 00000000 		.long	.LASF2
 2632 0049 04       		.uleb128 0x4
 2633 004a 00000000 		.long	.LASF5
 2634 004e 02       		.byte	0x2
 2635 004f 31       		.byte	0x31
 2636 0050 54000000 		.long	0x54
 2637 0054 02       		.uleb128 0x2
 2638 0055 01       		.byte	0x1
 2639 0056 08       		.byte	0x8
 2640 0057 00000000 		.long	.LASF3
 2641 005b 02       		.uleb128 0x2
 2642 005c 02       		.byte	0x2
 2643 005d 07       		.byte	0x7
 2644 005e 00000000 		.long	.LASF4
 2645 0062 04       		.uleb128 0x4
 2646 0063 00000000 		.long	.LASF6
 2647 0067 02       		.byte	0x2
 2648 0068 34       		.byte	0x34
 2649 0069 6D000000 		.long	0x6d
 2650 006d 02       		.uleb128 0x2
 2651 006e 04       		.byte	0x4
 2652 006f 07       		.byte	0x7
GAS LISTING /tmp/ccQ6OdaV.s 			page 75


 2653 0070 00000000 		.long	.LASF7
 2654 0074 02       		.uleb128 0x2
 2655 0075 08       		.byte	0x8
 2656 0076 07       		.byte	0x7
 2657 0077 00000000 		.long	.LASF8
 2658 007b 04       		.uleb128 0x4
 2659 007c 00000000 		.long	.LASF9
 2660 0080 03       		.byte	0x3
 2661 0081 30       		.byte	0x30
 2662 0082 62000000 		.long	0x62
 2663 0086 04       		.uleb128 0x4
 2664 0087 00000000 		.long	.LASF10
 2665 008b 04       		.byte	0x4
 2666 008c 27       		.byte	0x27
 2667 008d 91000000 		.long	0x91
 2668 0091 05       		.uleb128 0x5
 2669 0092 00000000 		.long	.LASF10
 2670 0096 04       		.byte	0x4
 2671 0097 04       		.byte	0x4
 2672 0098 27       		.byte	0x27
 2673 0099 AC000000 		.long	0xac
 2674 009d 06       		.uleb128 0x6
 2675 009e 00000000 		.long	.LASF34
 2676 00a2 04       		.byte	0x4
 2677 00a3 2A       		.byte	0x2a
 2678 00a4 AC000000 		.long	0xac
 2679 00a8 02       		.byte	0x2
 2680 00a9 23       		.byte	0x23
 2681 00aa 00       		.uleb128 0x0
 2682 00ab 00       		.byte	0x0
 2683 00ac 07       		.uleb128 0x7
 2684 00ad 3B000000 		.long	0x3b
 2685 00b1 08       		.uleb128 0x8
 2686 00b2 08       		.byte	0x8
 2687 00b3 07       		.byte	0x7
 2688 00b4 09       		.uleb128 0x9
 2689 00b5 08       		.byte	0x8
 2690 00b6 0A       		.uleb128 0xa
 2691 00b7 08       		.byte	0x8
 2692 00b8 BC000000 		.long	0xbc
 2693 00bc 0B       		.uleb128 0xb
 2694 00bd C1000000 		.long	0xc1
 2695 00c1 02       		.uleb128 0x2
 2696 00c2 01       		.byte	0x1
 2697 00c3 06       		.byte	0x6
 2698 00c4 00000000 		.long	.LASF11
 2699 00c8 0C       		.uleb128 0xc
 2700 00c9 04       		.byte	0x4
 2701 00ca 0D       		.byte	0xd
 2702 00cb D6       		.byte	0xd6
 2703 00cc 49010000 		.long	0x149
 2704 00d0 0D       		.uleb128 0xd
 2705 00d1 00000000 		.long	.LASF12
 2706 00d5 7F       		.sleb128 -1
 2707 00d6 0D       		.uleb128 0xd
 2708 00d7 00000000 		.long	.LASF13
 2709 00db 00       		.sleb128 0
GAS LISTING /tmp/ccQ6OdaV.s 			page 76


 2710 00dc 0D       		.uleb128 0xd
 2711 00dd 00000000 		.long	.LASF14
 2712 00e1 01       		.sleb128 1
 2713 00e2 0D       		.uleb128 0xd
 2714 00e3 00000000 		.long	.LASF15
 2715 00e7 02       		.sleb128 2
 2716 00e8 0D       		.uleb128 0xd
 2717 00e9 00000000 		.long	.LASF16
 2718 00ed 03       		.sleb128 3
 2719 00ee 0D       		.uleb128 0xd
 2720 00ef 00000000 		.long	.LASF17
 2721 00f3 04       		.sleb128 4
 2722 00f4 0D       		.uleb128 0xd
 2723 00f5 00000000 		.long	.LASF18
 2724 00f9 05       		.sleb128 5
 2725 00fa 0D       		.uleb128 0xd
 2726 00fb 00000000 		.long	.LASF19
 2727 00ff 06       		.sleb128 6
 2728 0100 0D       		.uleb128 0xd
 2729 0101 00000000 		.long	.LASF20
 2730 0105 07       		.sleb128 7
 2731 0106 0D       		.uleb128 0xd
 2732 0107 00000000 		.long	.LASF21
 2733 010b 08       		.sleb128 8
 2734 010c 0D       		.uleb128 0xd
 2735 010d 00000000 		.long	.LASF22
 2736 0111 09       		.sleb128 9
 2737 0112 0D       		.uleb128 0xd
 2738 0113 00000000 		.long	.LASF23
 2739 0117 0A       		.sleb128 10
 2740 0118 0D       		.uleb128 0xd
 2741 0119 00000000 		.long	.LASF24
 2742 011d 0B       		.sleb128 11
 2743 011e 0D       		.uleb128 0xd
 2744 011f 00000000 		.long	.LASF25
 2745 0123 0C       		.sleb128 12
 2746 0124 0D       		.uleb128 0xd
 2747 0125 00000000 		.long	.LASF26
 2748 0129 0D       		.sleb128 13
 2749 012a 0D       		.uleb128 0xd
 2750 012b 00000000 		.long	.LASF27
 2751 012f 0E       		.sleb128 14
 2752 0130 0D       		.uleb128 0xd
 2753 0131 00000000 		.long	.LASF28
 2754 0135 0F       		.sleb128 15
 2755 0136 0D       		.uleb128 0xd
 2756 0137 00000000 		.long	.LASF29
 2757 013b 10       		.sleb128 16
 2758 013c 0D       		.uleb128 0xd
 2759 013d 00000000 		.long	.LASF30
 2760 0141 11       		.sleb128 17
 2761 0142 0D       		.uleb128 0xd
 2762 0143 00000000 		.long	.LASF31
 2763 0147 12       		.sleb128 18
 2764 0148 00       		.byte	0x0
 2765 0149 04       		.uleb128 0x4
 2766 014a 00000000 		.long	.LASF32
GAS LISTING /tmp/ccQ6OdaV.s 			page 77


 2767 014e 05       		.byte	0x5
 2768 014f 42       		.byte	0x42
 2769 0150 86000000 		.long	0x86
 2770 0154 04       		.uleb128 0x4
 2771 0155 00000000 		.long	.LASF33
 2772 0159 06       		.byte	0x6
 2773 015a 20       		.byte	0x20
 2774 015b 5F010000 		.long	0x15f
 2775 015f 05       		.uleb128 0x5
 2776 0160 00000000 		.long	.LASF33
 2777 0164 48       		.byte	0x48
 2778 0165 06       		.byte	0x6
 2779 0166 20       		.byte	0x20
 2780 0167 F7010000 		.long	0x1f7
 2781 016b 06       		.uleb128 0x6
 2782 016c 00000000 		.long	.LASF35
 2783 0170 07       		.byte	0x7
 2784 0171 9A       		.byte	0x9a
 2785 0172 49010000 		.long	0x149
 2786 0176 02       		.byte	0x2
 2787 0177 23       		.byte	0x23
 2788 0178 00       		.uleb128 0x0
 2789 0179 06       		.uleb128 0x6
 2790 017a 00000000 		.long	.LASF36
 2791 017e 07       		.byte	0x7
 2792 017f 9B       		.byte	0x9b
 2793 0180 62000000 		.long	0x62
 2794 0184 02       		.byte	0x2
 2795 0185 23       		.byte	0x23
 2796 0186 04       		.uleb128 0x4
 2797 0187 0E       		.uleb128 0xe
 2798 0188 767400   		.string	"vt"
 2799 018b 07       		.byte	0x7
 2800 018c 9C       		.byte	0x9c
 2801 018d BC040000 		.long	0x4bc
 2802 0191 02       		.byte	0x2
 2803 0192 23       		.byte	0x23
 2804 0193 08       		.uleb128 0x8
 2805 0194 06       		.uleb128 0x6
 2806 0195 00000000 		.long	.LASF37
 2807 0199 07       		.byte	0x7
 2808 019a 9D       		.byte	0x9d
 2809 019b B6000000 		.long	0xb6
 2810 019f 02       		.byte	0x2
 2811 01a0 23       		.byte	0x23
 2812 01a1 10       		.uleb128 0x10
 2813 01a2 06       		.uleb128 0x6
 2814 01a3 00000000 		.long	.LASF38
 2815 01a7 07       		.byte	0x7
 2816 01a8 9E       		.byte	0x9e
 2817 01a9 B4000000 		.long	0xb4
 2818 01ad 02       		.byte	0x2
 2819 01ae 23       		.byte	0x23
 2820 01af 18       		.uleb128 0x18
 2821 01b0 06       		.uleb128 0x6
 2822 01b1 00000000 		.long	.LASF39
 2823 01b5 07       		.byte	0x7
GAS LISTING /tmp/ccQ6OdaV.s 			page 78


 2824 01b6 9F       		.byte	0x9f
 2825 01b7 B4000000 		.long	0xb4
 2826 01bb 02       		.byte	0x2
 2827 01bc 23       		.byte	0x23
 2828 01bd 20       		.uleb128 0x20
 2829 01be 06       		.uleb128 0x6
 2830 01bf 00000000 		.long	.LASF40
 2831 01c3 07       		.byte	0x7
 2832 01c4 A0       		.byte	0xa0
 2833 01c5 B4000000 		.long	0xb4
 2834 01c9 02       		.byte	0x2
 2835 01ca 23       		.byte	0x23
 2836 01cb 28       		.uleb128 0x28
 2837 01cc 06       		.uleb128 0x6
 2838 01cd 00000000 		.long	.LASF41
 2839 01d1 07       		.byte	0x7
 2840 01d2 A1       		.byte	0xa1
 2841 01d3 B4000000 		.long	0xb4
 2842 01d7 02       		.byte	0x2
 2843 01d8 23       		.byte	0x23
 2844 01d9 30       		.uleb128 0x30
 2845 01da 06       		.uleb128 0x6
 2846 01db 00000000 		.long	.LASF42
 2847 01df 07       		.byte	0x7
 2848 01e0 A2       		.byte	0xa2
 2849 01e1 F7010000 		.long	0x1f7
 2850 01e5 02       		.byte	0x2
 2851 01e6 23       		.byte	0x23
 2852 01e7 38       		.uleb128 0x38
 2853 01e8 06       		.uleb128 0x6
 2854 01e9 00000000 		.long	.LASF43
 2855 01ed 07       		.byte	0x7
 2856 01ee A3       		.byte	0xa3
 2857 01ef F7010000 		.long	0x1f7
 2858 01f3 02       		.byte	0x2
 2859 01f4 23       		.byte	0x23
 2860 01f5 40       		.uleb128 0x40
 2861 01f6 00       		.byte	0x0
 2862 01f7 04       		.uleb128 0x4
 2863 01f8 00000000 		.long	.LASF44
 2864 01fc 06       		.byte	0x6
 2865 01fd 40       		.byte	0x40
 2866 01fe 02020000 		.long	0x202
 2867 0202 0A       		.uleb128 0xa
 2868 0203 08       		.byte	0x8
 2869 0204 08020000 		.long	0x208
 2870 0208 0F       		.uleb128 0xf
 2871 0209 01       		.byte	0x1
 2872 020a 14020000 		.long	0x214
 2873 020e 10       		.uleb128 0x10
 2874 020f B4000000 		.long	0xb4
 2875 0213 00       		.byte	0x0
 2876 0214 04       		.uleb128 0x4
 2877 0215 00000000 		.long	.LASF45
 2878 0219 07       		.byte	0x7
 2879 021a 2C       		.byte	0x2c
 2880 021b 1F020000 		.long	0x21f
GAS LISTING /tmp/ccQ6OdaV.s 			page 79


 2881 021f 05       		.uleb128 0x5
 2882 0220 00000000 		.long	.LASF45
 2883 0224 50       		.byte	0x50
 2884 0225 07       		.byte	0x7
 2885 0226 2B       		.byte	0x2b
 2886 0227 48020000 		.long	0x248
 2887 022b 0E       		.uleb128 0xe
 2888 022c 64616400 		.string	"dad"
 2889 0230 01       		.byte	0x1
 2890 0231 3C       		.byte	0x3c
 2891 0232 54010000 		.long	0x154
 2892 0236 02       		.byte	0x2
 2893 0237 23       		.byte	0x23
 2894 0238 00       		.uleb128 0x0
 2895 0239 06       		.uleb128 0x6
 2896 023a 00000000 		.long	.LASF46
 2897 023e 01       		.byte	0x1
 2898 023f 3D       		.byte	0x3d
 2899 0240 87070000 		.long	0x787
 2900 0244 02       		.byte	0x2
 2901 0245 23       		.byte	0x23
 2902 0246 48       		.uleb128 0x48
 2903 0247 00       		.byte	0x0
 2904 0248 04       		.uleb128 0x4
 2905 0249 00000000 		.long	.LASF47
 2906 024d 07       		.byte	0x7
 2907 024e 2F       		.byte	0x2f
 2908 024f 53020000 		.long	0x253
 2909 0253 05       		.uleb128 0x5
 2910 0254 00000000 		.long	.LASF47
 2911 0258 08       		.byte	0x8
 2912 0259 07       		.byte	0x7
 2913 025a 2F       		.byte	0x2f
 2914 025b 7C020000 		.long	0x27c
 2915 025f 0E       		.uleb128 0xe
 2916 0260 6D616A00 		.string	"maj"
 2917 0264 07       		.byte	0x7
 2918 0265 32       		.byte	0x32
 2919 0266 62000000 		.long	0x62
 2920 026a 02       		.byte	0x2
 2921 026b 23       		.byte	0x23
 2922 026c 00       		.uleb128 0x0
 2923 026d 0E       		.uleb128 0xe
 2924 026e 6D696E00 		.string	"min"
 2925 0272 07       		.byte	0x7
 2926 0273 33       		.byte	0x33
 2927 0274 62000000 		.long	0x62
 2928 0278 02       		.byte	0x2
 2929 0279 23       		.byte	0x23
 2930 027a 04       		.uleb128 0x4
 2931 027b 00       		.byte	0x0
 2932 027c 04       		.uleb128 0x4
 2933 027d 00000000 		.long	.LASF48
 2934 0281 07       		.byte	0x7
 2935 0282 37       		.byte	0x37
 2936 0283 87020000 		.long	0x287
 2937 0287 05       		.uleb128 0x5
GAS LISTING /tmp/ccQ6OdaV.s 			page 80


 2938 0288 00000000 		.long	.LASF48
 2939 028c B0       		.byte	0xb0
 2940 028d 07       		.byte	0x7
 2941 028e 37       		.byte	0x37
 2942 028f CE030000 		.long	0x3ce
 2943 0293 06       		.uleb128 0x6
 2944 0294 00000000 		.long	.LASF49
 2945 0298 07       		.byte	0x7
 2946 0299 3A       		.byte	0x3a
 2947 029a 48020000 		.long	0x248
 2948 029e 02       		.byte	0x2
 2949 029f 23       		.byte	0x23
 2950 02a0 00       		.uleb128 0x0
 2951 02a1 06       		.uleb128 0x6
 2952 02a2 00000000 		.long	.LASF50
 2953 02a6 07       		.byte	0x7
 2954 02a7 3E       		.byte	0x3e
 2955 02a8 E4030000 		.long	0x3e4
 2956 02ac 02       		.byte	0x2
 2957 02ad 23       		.byte	0x23
 2958 02ae 08       		.uleb128 0x8
 2959 02af 06       		.uleb128 0x6
 2960 02b0 00000000 		.long	.LASF51
 2961 02b4 07       		.byte	0x7
 2962 02b5 40       		.byte	0x40
 2963 02b6 04040000 		.long	0x404
 2964 02ba 02       		.byte	0x2
 2965 02bb 23       		.byte	0x23
 2966 02bc 10       		.uleb128 0x10
 2967 02bd 06       		.uleb128 0x6
 2968 02be 00000000 		.long	.LASF52
 2969 02c2 07       		.byte	0x7
 2970 02c3 44       		.byte	0x44
 2971 02c4 04040000 		.long	0x404
 2972 02c8 02       		.byte	0x2
 2973 02c9 23       		.byte	0x23
 2974 02ca 18       		.uleb128 0x18
 2975 02cb 06       		.uleb128 0x6
 2976 02cc 00000000 		.long	.LASF53
 2977 02d0 07       		.byte	0x7
 2978 02d1 48       		.byte	0x48
 2979 02d2 26040000 		.long	0x426
 2980 02d6 02       		.byte	0x2
 2981 02d7 23       		.byte	0x23
 2982 02d8 20       		.uleb128 0x20
 2983 02d9 06       		.uleb128 0x6
 2984 02da 00000000 		.long	.LASF54
 2985 02de 07       		.byte	0x7
 2986 02df 4B       		.byte	0x4b
 2987 02e0 26040000 		.long	0x426
 2988 02e4 02       		.byte	0x2
 2989 02e5 23       		.byte	0x23
 2990 02e6 28       		.uleb128 0x28
 2991 02e7 06       		.uleb128 0x6
 2992 02e8 00000000 		.long	.LASF55
 2993 02ec 07       		.byte	0x7
 2994 02ed 4E       		.byte	0x4e
GAS LISTING /tmp/ccQ6OdaV.s 			page 81


 2995 02ee 41040000 		.long	0x441
 2996 02f2 02       		.byte	0x2
 2997 02f3 23       		.byte	0x23
 2998 02f4 30       		.uleb128 0x30
 2999 02f5 06       		.uleb128 0x6
 3000 02f6 00000000 		.long	.LASF56
 3001 02fa 07       		.byte	0x7
 3002 02fb 51       		.byte	0x51
 3003 02fc 41040000 		.long	0x441
 3004 0300 02       		.byte	0x2
 3005 0301 23       		.byte	0x23
 3006 0302 38       		.uleb128 0x38
 3007 0303 06       		.uleb128 0x6
 3008 0304 00000000 		.long	.LASF57
 3009 0308 07       		.byte	0x7
 3010 0309 55       		.byte	0x55
 3011 030a 6C040000 		.long	0x46c
 3012 030e 02       		.byte	0x2
 3013 030f 23       		.byte	0x23
 3014 0310 40       		.uleb128 0x40
 3015 0311 06       		.uleb128 0x6
 3016 0312 00000000 		.long	.LASF58
 3017 0316 07       		.byte	0x7
 3018 0317 58       		.byte	0x58
 3019 0318 6C040000 		.long	0x46c
 3020 031c 02       		.byte	0x2
 3021 031d 23       		.byte	0x23
 3022 031e 48       		.uleb128 0x48
 3023 031f 06       		.uleb128 0x6
 3024 0320 00000000 		.long	.LASF59
 3025 0324 07       		.byte	0x7
 3026 0325 5D       		.byte	0x5d
 3027 0326 91040000 		.long	0x491
 3028 032a 02       		.byte	0x2
 3029 032b 23       		.byte	0x23
 3030 032c 50       		.uleb128 0x50
 3031 032d 06       		.uleb128 0x6
 3032 032e 00000000 		.long	.LASF60
 3033 0332 07       		.byte	0x7
 3034 0333 62       		.byte	0x62
 3035 0334 91040000 		.long	0x491
 3036 0338 02       		.byte	0x2
 3037 0339 23       		.byte	0x23
 3038 033a 58       		.uleb128 0x58
 3039 033b 06       		.uleb128 0x6
 3040 033c 00000000 		.long	.LASF61
 3041 0340 07       		.byte	0x7
 3042 0341 68       		.byte	0x68
 3043 0342 B6040000 		.long	0x4b6
 3044 0346 02       		.byte	0x2
 3045 0347 23       		.byte	0x23
 3046 0348 60       		.uleb128 0x60
 3047 0349 06       		.uleb128 0x6
 3048 034a 00000000 		.long	.LASF62
 3049 034e 07       		.byte	0x7
 3050 034f 6C       		.byte	0x6c
 3051 0350 B6040000 		.long	0x4b6
GAS LISTING /tmp/ccQ6OdaV.s 			page 82


 3052 0354 02       		.byte	0x2
 3053 0355 23       		.byte	0x23
 3054 0356 68       		.uleb128 0x68
 3055 0357 06       		.uleb128 0x6
 3056 0358 00000000 		.long	.LASF63
 3057 035c 07       		.byte	0x7
 3058 035d 72       		.byte	0x72
 3059 035e B6040000 		.long	0x4b6
 3060 0362 02       		.byte	0x2
 3061 0363 23       		.byte	0x23
 3062 0364 70       		.uleb128 0x70
 3063 0365 06       		.uleb128 0x6
 3064 0366 00000000 		.long	.LASF64
 3065 036a 07       		.byte	0x7
 3066 036b 74       		.byte	0x74
 3067 036c B6040000 		.long	0x4b6
 3068 0370 02       		.byte	0x2
 3069 0371 23       		.byte	0x23
 3070 0372 78       		.uleb128 0x78
 3071 0373 06       		.uleb128 0x6
 3072 0374 00000000 		.long	.LASF65
 3073 0378 07       		.byte	0x7
 3074 0379 78       		.byte	0x78
 3075 037a B6040000 		.long	0x4b6
 3076 037e 03       		.byte	0x3
 3077 037f 23       		.byte	0x23
 3078 0380 8001     		.uleb128 0x80
 3079 0382 06       		.uleb128 0x6
 3080 0383 00000000 		.long	.LASF66
 3081 0387 07       		.byte	0x7
 3082 0388 7A       		.byte	0x7a
 3083 0389 B6040000 		.long	0x4b6
 3084 038d 03       		.byte	0x3
 3085 038e 23       		.byte	0x23
 3086 038f 8801     		.uleb128 0x88
 3087 0391 06       		.uleb128 0x6
 3088 0392 00000000 		.long	.LASF67
 3089 0396 07       		.byte	0x7
 3090 0397 7E       		.byte	0x7e
 3091 0398 B6040000 		.long	0x4b6
 3092 039c 03       		.byte	0x3
 3093 039d 23       		.byte	0x23
 3094 039e 9001     		.uleb128 0x90
 3095 03a0 06       		.uleb128 0x6
 3096 03a1 00000000 		.long	.LASF68
 3097 03a5 07       		.byte	0x7
 3098 03a6 80       		.byte	0x80
 3099 03a7 B6040000 		.long	0x4b6
 3100 03ab 03       		.byte	0x3
 3101 03ac 23       		.byte	0x23
 3102 03ad 9801     		.uleb128 0x98
 3103 03af 06       		.uleb128 0x6
 3104 03b0 00000000 		.long	.LASF69
 3105 03b4 07       		.byte	0x7
 3106 03b5 84       		.byte	0x84
 3107 03b6 B6040000 		.long	0x4b6
 3108 03ba 03       		.byte	0x3
GAS LISTING /tmp/ccQ6OdaV.s 			page 83


 3109 03bb 23       		.byte	0x23
 3110 03bc A001     		.uleb128 0xa0
 3111 03be 06       		.uleb128 0x6
 3112 03bf 00000000 		.long	.LASF70
 3113 03c3 07       		.byte	0x7
 3114 03c4 86       		.byte	0x86
 3115 03c5 B6040000 		.long	0x4b6
 3116 03c9 03       		.byte	0x3
 3117 03ca 23       		.byte	0x23
 3118 03cb A801     		.uleb128 0xa8
 3119 03cd 00       		.byte	0x0
 3120 03ce 11       		.uleb128 0x11
 3121 03cf 01       		.byte	0x1
 3122 03d0 7B000000 		.long	0x7b
 3123 03d4 DE030000 		.long	0x3de
 3124 03d8 10       		.uleb128 0x10
 3125 03d9 DE030000 		.long	0x3de
 3126 03dd 00       		.byte	0x0
 3127 03de 0A       		.uleb128 0xa
 3128 03df 08       		.byte	0x8
 3129 03e0 14020000 		.long	0x214
 3130 03e4 0A       		.uleb128 0xa
 3131 03e5 08       		.byte	0x8
 3132 03e6 CE030000 		.long	0x3ce
 3133 03ea 11       		.uleb128 0x11
 3134 03eb 01       		.byte	0x1
 3135 03ec 7B000000 		.long	0x7b
 3136 03f0 04040000 		.long	0x404
 3137 03f4 10       		.uleb128 0x10
 3138 03f5 DE030000 		.long	0x3de
 3139 03f9 10       		.uleb128 0x10
 3140 03fa B6000000 		.long	0xb6
 3141 03fe 10       		.uleb128 0x10
 3142 03ff 62000000 		.long	0x62
 3143 0403 00       		.byte	0x0
 3144 0404 0A       		.uleb128 0xa
 3145 0405 08       		.byte	0x8
 3146 0406 EA030000 		.long	0x3ea
 3147 040a 11       		.uleb128 0x11
 3148 040b 01       		.byte	0x1
 3149 040c 7B000000 		.long	0x7b
 3150 0410 1F040000 		.long	0x41f
 3151 0414 10       		.uleb128 0x10
 3152 0415 DE030000 		.long	0x3de
 3153 0419 10       		.uleb128 0x10
 3154 041a 1F040000 		.long	0x41f
 3155 041e 00       		.byte	0x0
 3156 041f 0A       		.uleb128 0xa
 3157 0420 08       		.byte	0x8
 3158 0421 25040000 		.long	0x425
 3159 0425 12       		.uleb128 0x12
 3160 0426 0A       		.uleb128 0xa
 3161 0427 08       		.byte	0x8
 3162 0428 0A040000 		.long	0x40a
 3163 042c 11       		.uleb128 0x11
 3164 042d 01       		.byte	0x1
 3165 042e 7B000000 		.long	0x7b
GAS LISTING /tmp/ccQ6OdaV.s 			page 84


 3166 0432 41040000 		.long	0x441
 3167 0436 10       		.uleb128 0x10
 3168 0437 DE030000 		.long	0x3de
 3169 043b 10       		.uleb128 0x10
 3170 043c F7010000 		.long	0x1f7
 3171 0440 00       		.byte	0x0
 3172 0441 0A       		.uleb128 0xa
 3173 0442 08       		.byte	0x8
 3174 0443 2C040000 		.long	0x42c
 3175 0447 11       		.uleb128 0x11
 3176 0448 01       		.byte	0x1
 3177 0449 7B000000 		.long	0x7b
 3178 044d 61040000 		.long	0x461
 3179 0451 10       		.uleb128 0x10
 3180 0452 61040000 		.long	0x461
 3181 0456 10       		.uleb128 0x10
 3182 0457 1F040000 		.long	0x41f
 3183 045b 10       		.uleb128 0x10
 3184 045c B4000000 		.long	0xb4
 3185 0460 00       		.byte	0x0
 3186 0461 0A       		.uleb128 0xa
 3187 0462 08       		.byte	0x8
 3188 0463 67040000 		.long	0x467
 3189 0467 0B       		.uleb128 0xb
 3190 0468 14020000 		.long	0x214
 3191 046c 0A       		.uleb128 0xa
 3192 046d 08       		.byte	0x8
 3193 046e 47040000 		.long	0x447
 3194 0472 11       		.uleb128 0x11
 3195 0473 01       		.byte	0x1
 3196 0474 7B000000 		.long	0x7b
 3197 0478 91040000 		.long	0x491
 3198 047c 10       		.uleb128 0x10
 3199 047d 61040000 		.long	0x461
 3200 0481 10       		.uleb128 0x10
 3201 0482 1F040000 		.long	0x41f
 3202 0486 10       		.uleb128 0x10
 3203 0487 B4000000 		.long	0xb4
 3204 048b 10       		.uleb128 0x10
 3205 048c 62000000 		.long	0x62
 3206 0490 00       		.byte	0x0
 3207 0491 0A       		.uleb128 0xa
 3208 0492 08       		.byte	0x8
 3209 0493 72040000 		.long	0x472
 3210 0497 11       		.uleb128 0x11
 3211 0498 01       		.byte	0x1
 3212 0499 7B000000 		.long	0x7b
 3213 049d B6040000 		.long	0x4b6
 3214 04a1 10       		.uleb128 0x10
 3215 04a2 DE030000 		.long	0x3de
 3216 04a6 10       		.uleb128 0x10
 3217 04a7 1F040000 		.long	0x41f
 3218 04ab 10       		.uleb128 0x10
 3219 04ac B4000000 		.long	0xb4
 3220 04b0 10       		.uleb128 0x10
 3221 04b1 62000000 		.long	0x62
 3222 04b5 00       		.byte	0x0
GAS LISTING /tmp/ccQ6OdaV.s 			page 85


 3223 04b6 0A       		.uleb128 0xa
 3224 04b7 08       		.byte	0x8
 3225 04b8 97040000 		.long	0x497
 3226 04bc 04       		.uleb128 0x4
 3227 04bd 00000000 		.long	.LASF71
 3228 04c1 07       		.byte	0x7
 3229 04c2 90       		.byte	0x90
 3230 04c3 C7040000 		.long	0x4c7
 3231 04c7 13       		.uleb128 0x13
 3232 04c8 00000000 		.long	.LASF71
 3233 04cc 08       		.byte	0x8
 3234 04cd 07       		.byte	0x7
 3235 04ce 90       		.byte	0x90
 3236 04cf E9040000 		.long	0x4e9
 3237 04d3 14       		.uleb128 0x14
 3238 04d4 00000000 		.long	.LASF49
 3239 04d8 07       		.byte	0x7
 3240 04d9 93       		.byte	0x93
 3241 04da E9040000 		.long	0x4e9
 3242 04de 15       		.uleb128 0x15
 3243 04df 763100   		.string	"v1"
 3244 04e2 07       		.byte	0x7
 3245 04e3 94       		.byte	0x94
 3246 04e4 F4040000 		.long	0x4f4
 3247 04e8 00       		.byte	0x0
 3248 04e9 0A       		.uleb128 0xa
 3249 04ea 08       		.byte	0x8
 3250 04eb EF040000 		.long	0x4ef
 3251 04ef 0B       		.uleb128 0xb
 3252 04f0 48020000 		.long	0x248
 3253 04f4 0A       		.uleb128 0xa
 3254 04f5 08       		.byte	0x8
 3255 04f6 FA040000 		.long	0x4fa
 3256 04fa 0B       		.uleb128 0xb
 3257 04fb 7C020000 		.long	0x27c
 3258 04ff 04       		.uleb128 0x4
 3259 0500 00000000 		.long	.LASF72
 3260 0504 08       		.byte	0x8
 3261 0505 37       		.byte	0x37
 3262 0506 0A050000 		.long	0x50a
 3263 050a 16       		.uleb128 0x16
 3264 050b C1000000 		.long	0xc1
 3265 050f 1A050000 		.long	0x51a
 3266 0513 17       		.uleb128 0x17
 3267 0514 B1000000 		.long	0xb1
 3268 0518 0F       		.byte	0xf
 3269 0519 00       		.byte	0x0
 3270 051a 02       		.uleb128 0x2
 3271 051b 08       		.byte	0x8
 3272 051c 05       		.byte	0x5
 3273 051d 00000000 		.long	.LASF73
 3274 0521 02       		.uleb128 0x2
 3275 0522 04       		.byte	0x4
 3276 0523 04       		.byte	0x4
 3277 0524 00000000 		.long	.LASF74
 3278 0528 0A       		.uleb128 0xa
 3279 0529 08       		.byte	0x8
GAS LISTING /tmp/ccQ6OdaV.s 			page 86


 3280 052a C1000000 		.long	0xc1
 3281 052e 02       		.uleb128 0x2
 3282 052f 08       		.byte	0x8
 3283 0530 07       		.byte	0x7
 3284 0531 00000000 		.long	.LASF75
 3285 0535 16       		.uleb128 0x16
 3286 0536 C1000000 		.long	0xc1
 3287 053a 45050000 		.long	0x545
 3288 053e 17       		.uleb128 0x17
 3289 053f B1000000 		.long	0xb1
 3290 0543 1F       		.byte	0x1f
 3291 0544 00       		.byte	0x0
 3292 0545 02       		.uleb128 0x2
 3293 0546 08       		.byte	0x8
 3294 0547 04       		.byte	0x4
 3295 0548 00000000 		.long	.LASF76
 3296 054c 04       		.uleb128 0x4
 3297 054d 00000000 		.long	.LASF77
 3298 0551 09       		.byte	0x9
 3299 0552 26       		.byte	0x26
 3300 0553 57050000 		.long	0x557
 3301 0557 18       		.uleb128 0x18
 3302 0558 01       		.byte	0x1
 3303 0559 49000000 		.long	0x49
 3304 055d 68050000 		.long	0x568
 3305 0561 17       		.uleb128 0x17
 3306 0562 B1000000 		.long	0xb1
 3307 0566 0F       		.byte	0xf
 3308 0567 00       		.byte	0x0
 3309 0568 04       		.uleb128 0x4
 3310 0569 00000000 		.long	.LASF78
 3311 056d 08       		.byte	0x8
 3312 056e 3B       		.byte	0x3b
 3313 056f 4C050000 		.long	0x54c
 3314 0573 04       		.uleb128 0x4
 3315 0574 00000000 		.long	.LASF79
 3316 0578 08       		.byte	0x8
 3317 0579 43       		.byte	0x43
 3318 057a 7E050000 		.long	0x57e
 3319 057e 05       		.uleb128 0x5
 3320 057f 00000000 		.long	.LASF79
 3321 0583 08       		.byte	0x8
 3322 0584 08       		.byte	0x8
 3323 0585 43       		.byte	0x43
 3324 0586 A7050000 		.long	0x5a7
 3325 058a 0E       		.uleb128 0xe
 3326 058b 6D616A00 		.string	"maj"
 3327 058f 08       		.byte	0x8
 3328 0590 46       		.byte	0x46
 3329 0591 62000000 		.long	0x62
 3330 0595 02       		.byte	0x2
 3331 0596 23       		.byte	0x23
 3332 0597 00       		.uleb128 0x0
 3333 0598 0E       		.uleb128 0xe
 3334 0599 6D696E00 		.string	"min"
 3335 059d 08       		.byte	0x8
 3336 059e 47       		.byte	0x47
GAS LISTING /tmp/ccQ6OdaV.s 			page 87


 3337 059f 62000000 		.long	0x62
 3338 05a3 02       		.byte	0x2
 3339 05a4 23       		.byte	0x23
 3340 05a5 04       		.uleb128 0x4
 3341 05a6 00       		.byte	0x0
 3342 05a7 04       		.uleb128 0x4
 3343 05a8 00000000 		.long	.LASF80
 3344 05ac 08       		.byte	0x8
 3345 05ad 52       		.byte	0x52
 3346 05ae B2050000 		.long	0x5b2
 3347 05b2 05       		.uleb128 0x5
 3348 05b3 00000000 		.long	.LASF80
 3349 05b7 40       		.byte	0x40
 3350 05b8 08       		.byte	0x8
 3351 05b9 52       		.byte	0x52
 3352 05ba 2F060000 		.long	0x62f
 3353 05be 06       		.uleb128 0x6
 3354 05bf 00000000 		.long	.LASF49
 3355 05c3 08       		.byte	0x8
 3356 05c4 5E       		.byte	0x5e
 3357 05c5 73050000 		.long	0x573
 3358 05c9 02       		.byte	0x2
 3359 05ca 23       		.byte	0x23
 3360 05cb 00       		.uleb128 0x0
 3361 05cc 06       		.uleb128 0x6
 3362 05cd 00000000 		.long	.LASF50
 3363 05d1 08       		.byte	0x8
 3364 05d2 63       		.byte	0x63
 3365 05d3 73060000 		.long	0x673
 3366 05d7 02       		.byte	0x2
 3367 05d8 23       		.byte	0x23
 3368 05d9 08       		.uleb128 0x8
 3369 05da 06       		.uleb128 0x6
 3370 05db 00000000 		.long	.LASF36
 3371 05df 08       		.byte	0x8
 3372 05e0 65       		.byte	0x65
 3373 05e1 84060000 		.long	0x684
 3374 05e5 02       		.byte	0x2
 3375 05e6 23       		.byte	0x23
 3376 05e7 10       		.uleb128 0x10
 3377 05e8 06       		.uleb128 0x6
 3378 05e9 00000000 		.long	.LASF81
 3379 05ed 08       		.byte	0x8
 3380 05ee 67       		.byte	0x67
 3381 05ef 84060000 		.long	0x684
 3382 05f3 02       		.byte	0x2
 3383 05f4 23       		.byte	0x23
 3384 05f5 18       		.uleb128 0x18
 3385 05f6 06       		.uleb128 0x6
 3386 05f7 00000000 		.long	.LASF51
 3387 05fb 08       		.byte	0x8
 3388 05fc 69       		.byte	0x69
 3389 05fd A4060000 		.long	0x6a4
 3390 0601 02       		.byte	0x2
 3391 0602 23       		.byte	0x23
 3392 0603 20       		.uleb128 0x20
 3393 0604 06       		.uleb128 0x6
GAS LISTING /tmp/ccQ6OdaV.s 			page 88


 3394 0605 00000000 		.long	.LASF52
 3395 0609 08       		.byte	0x8
 3396 060a 6D       		.byte	0x6d
 3397 060b A4060000 		.long	0x6a4
 3398 060f 02       		.byte	0x2
 3399 0610 23       		.byte	0x23
 3400 0611 28       		.uleb128 0x28
 3401 0612 06       		.uleb128 0x6
 3402 0613 00000000 		.long	.LASF57
 3403 0617 08       		.byte	0x8
 3404 0618 71       		.byte	0x71
 3405 0619 C0060000 		.long	0x6c0
 3406 061d 02       		.byte	0x2
 3407 061e 23       		.byte	0x23
 3408 061f 30       		.uleb128 0x30
 3409 0620 06       		.uleb128 0x6
 3410 0621 00000000 		.long	.LASF58
 3411 0625 08       		.byte	0x8
 3412 0626 75       		.byte	0x75
 3413 0627 C0060000 		.long	0x6c0
 3414 062b 02       		.byte	0x2
 3415 062c 23       		.byte	0x23
 3416 062d 38       		.uleb128 0x38
 3417 062e 00       		.byte	0x0
 3418 062f 04       		.uleb128 0x4
 3419 0630 00000000 		.long	.LASF82
 3420 0634 08       		.byte	0x8
 3421 0635 53       		.byte	0x53
 3422 0636 3A060000 		.long	0x63a
 3423 063a 13       		.uleb128 0x13
 3424 063b 00000000 		.long	.LASF82
 3425 063f 40       		.byte	0x40
 3426 0640 08       		.byte	0x8
 3427 0641 53       		.byte	0x53
 3428 0642 5C060000 		.long	0x65c
 3429 0646 14       		.uleb128 0x14
 3430 0647 00000000 		.long	.LASF49
 3431 064b 08       		.byte	0x8
 3432 064c 7F       		.byte	0x7f
 3433 064d 73050000 		.long	0x573
 3434 0651 15       		.uleb128 0x15
 3435 0652 763100   		.string	"v1"
 3436 0655 08       		.byte	0x8
 3437 0656 80       		.byte	0x80
 3438 0657 A7050000 		.long	0x5a7
 3439 065b 00       		.byte	0x0
 3440 065c 0F       		.uleb128 0xf
 3441 065d 01       		.byte	0x1
 3442 065e 68060000 		.long	0x668
 3443 0662 10       		.uleb128 0x10
 3444 0663 68060000 		.long	0x668
 3445 0667 00       		.byte	0x0
 3446 0668 0A       		.uleb128 0xa
 3447 0669 08       		.byte	0x8
 3448 066a 6E060000 		.long	0x66e
 3449 066e 0B       		.uleb128 0xb
 3450 066f 2F060000 		.long	0x62f
GAS LISTING /tmp/ccQ6OdaV.s 			page 89


 3451 0673 0A       		.uleb128 0xa
 3452 0674 08       		.byte	0x8
 3453 0675 5C060000 		.long	0x65c
 3454 0679 19       		.uleb128 0x19
 3455 067a 62000000 		.long	0x62
 3456 067e 84060000 		.long	0x684
 3457 0682 1A       		.uleb128 0x1a
 3458 0683 00       		.byte	0x0
 3459 0684 0A       		.uleb128 0xa
 3460 0685 08       		.byte	0x8
 3461 0686 79060000 		.long	0x679
 3462 068a 11       		.uleb128 0x11
 3463 068b 01       		.byte	0x1
 3464 068c 7B000000 		.long	0x7b
 3465 0690 A4060000 		.long	0x6a4
 3466 0694 10       		.uleb128 0x10
 3467 0695 B4000000 		.long	0xb4
 3468 0699 10       		.uleb128 0x10
 3469 069a B6000000 		.long	0xb6
 3470 069e 10       		.uleb128 0x10
 3471 069f 62000000 		.long	0x62
 3472 06a3 00       		.byte	0x0
 3473 06a4 0A       		.uleb128 0xa
 3474 06a5 08       		.byte	0x8
 3475 06a6 8A060000 		.long	0x68a
 3476 06aa 0F       		.uleb128 0xf
 3477 06ab 01       		.byte	0x1
 3478 06ac C0060000 		.long	0x6c0
 3479 06b0 10       		.uleb128 0x10
 3480 06b1 B6000000 		.long	0xb6
 3481 06b5 10       		.uleb128 0x10
 3482 06b6 28050000 		.long	0x528
 3483 06ba 10       		.uleb128 0x10
 3484 06bb 1F040000 		.long	0x41f
 3485 06bf 00       		.byte	0x0
 3486 06c0 0A       		.uleb128 0xa
 3487 06c1 08       		.byte	0x8
 3488 06c2 AA060000 		.long	0x6aa
 3489 06c6 04       		.uleb128 0x4
 3490 06c7 00000000 		.long	.LASF83
 3491 06cb 08       		.byte	0x8
 3492 06cc 84       		.byte	0x84
 3493 06cd D1060000 		.long	0x6d1
 3494 06d1 05       		.uleb128 0x5
 3495 06d2 00000000 		.long	.LASF83
 3496 06d6 40       		.byte	0x40
 3497 06d7 08       		.byte	0x8
 3498 06d8 84       		.byte	0x84
 3499 06d9 4E070000 		.long	0x74e
 3500 06dd 06       		.uleb128 0x6
 3501 06de 00000000 		.long	.LASF49
 3502 06e2 08       		.byte	0x8
 3503 06e3 90       		.byte	0x90
 3504 06e4 73050000 		.long	0x573
 3505 06e8 02       		.byte	0x2
 3506 06e9 23       		.byte	0x23
 3507 06ea 00       		.uleb128 0x0
GAS LISTING /tmp/ccQ6OdaV.s 			page 90


 3508 06eb 06       		.uleb128 0x6
 3509 06ec 00000000 		.long	.LASF50
 3510 06f0 08       		.byte	0x8
 3511 06f1 95       		.byte	0x95
 3512 06f2 92070000 		.long	0x792
 3513 06f6 02       		.byte	0x2
 3514 06f7 23       		.byte	0x23
 3515 06f8 08       		.uleb128 0x8
 3516 06f9 06       		.uleb128 0x6
 3517 06fa 00000000 		.long	.LASF36
 3518 06fe 08       		.byte	0x8
 3519 06ff 97       		.byte	0x97
 3520 0700 84060000 		.long	0x684
 3521 0704 02       		.byte	0x2
 3522 0705 23       		.byte	0x23
 3523 0706 10       		.uleb128 0x10
 3524 0707 06       		.uleb128 0x6
 3525 0708 00000000 		.long	.LASF81
 3526 070c 08       		.byte	0x8
 3527 070d 99       		.byte	0x99
 3528 070e 84060000 		.long	0x684
 3529 0712 02       		.byte	0x2
 3530 0713 23       		.byte	0x23
 3531 0714 18       		.uleb128 0x18
 3532 0715 06       		.uleb128 0x6
 3533 0716 00000000 		.long	.LASF51
 3534 071a 08       		.byte	0x8
 3535 071b 9B       		.byte	0x9b
 3536 071c A4060000 		.long	0x6a4
 3537 0720 02       		.byte	0x2
 3538 0721 23       		.byte	0x23
 3539 0722 20       		.uleb128 0x20
 3540 0723 06       		.uleb128 0x6
 3541 0724 00000000 		.long	.LASF52
 3542 0728 08       		.byte	0x8
 3543 0729 9F       		.byte	0x9f
 3544 072a A4060000 		.long	0x6a4
 3545 072e 02       		.byte	0x2
 3546 072f 23       		.byte	0x23
 3547 0730 28       		.uleb128 0x28
 3548 0731 06       		.uleb128 0x6
 3549 0732 00000000 		.long	.LASF57
 3550 0736 08       		.byte	0x8
 3551 0737 A3       		.byte	0xa3
 3552 0738 AD070000 		.long	0x7ad
 3553 073c 02       		.byte	0x2
 3554 073d 23       		.byte	0x23
 3555 073e 30       		.uleb128 0x30
 3556 073f 06       		.uleb128 0x6
 3557 0740 00000000 		.long	.LASF58
 3558 0744 08       		.byte	0x8
 3559 0745 A6       		.byte	0xa6
 3560 0746 AD070000 		.long	0x7ad
 3561 074a 02       		.byte	0x2
 3562 074b 23       		.byte	0x23
 3563 074c 38       		.uleb128 0x38
 3564 074d 00       		.byte	0x0
GAS LISTING /tmp/ccQ6OdaV.s 			page 91


 3565 074e 04       		.uleb128 0x4
 3566 074f 00000000 		.long	.LASF84
 3567 0753 08       		.byte	0x8
 3568 0754 85       		.byte	0x85
 3569 0755 59070000 		.long	0x759
 3570 0759 13       		.uleb128 0x13
 3571 075a 00000000 		.long	.LASF84
 3572 075e 40       		.byte	0x40
 3573 075f 08       		.byte	0x8
 3574 0760 85       		.byte	0x85
 3575 0761 7B070000 		.long	0x77b
 3576 0765 14       		.uleb128 0x14
 3577 0766 00000000 		.long	.LASF49
 3578 076a 08       		.byte	0x8
 3579 076b AF       		.byte	0xaf
 3580 076c 73050000 		.long	0x573
 3581 0770 15       		.uleb128 0x15
 3582 0771 763100   		.string	"v1"
 3583 0774 08       		.byte	0x8
 3584 0775 B0       		.byte	0xb0
 3585 0776 C6060000 		.long	0x6c6
 3586 077a 00       		.byte	0x0
 3587 077b 0F       		.uleb128 0xf
 3588 077c 01       		.byte	0x1
 3589 077d 87070000 		.long	0x787
 3590 0781 10       		.uleb128 0x10
 3591 0782 87070000 		.long	0x787
 3592 0786 00       		.byte	0x0
 3593 0787 0A       		.uleb128 0xa
 3594 0788 08       		.byte	0x8
 3595 0789 8D070000 		.long	0x78d
 3596 078d 0B       		.uleb128 0xb
 3597 078e 4E070000 		.long	0x74e
 3598 0792 0A       		.uleb128 0xa
 3599 0793 08       		.byte	0x8
 3600 0794 7B070000 		.long	0x77b
 3601 0798 11       		.uleb128 0x11
 3602 0799 01       		.byte	0x1
 3603 079a 68050000 		.long	0x568
 3604 079e AD070000 		.long	0x7ad
 3605 07a2 10       		.uleb128 0x10
 3606 07a3 68050000 		.long	0x568
 3607 07a7 10       		.uleb128 0x10
 3608 07a8 1F040000 		.long	0x41f
 3609 07ac 00       		.byte	0x0
 3610 07ad 0A       		.uleb128 0xa
 3611 07ae 08       		.byte	0x8
 3612 07af 98070000 		.long	0x798
 3613 07b3 04       		.uleb128 0x4
 3614 07b4 00000000 		.long	.LASF85
 3615 07b8 0A       		.byte	0xa
 3616 07b9 B0       		.byte	0xb0
 3617 07ba BE070000 		.long	0x7be
 3618 07be 1B       		.uleb128 0x1b
 3619 07bf 00000000 		.long	.LASF85
 3620 07c3 0001     		.value	0x100
 3621 07c5 0A       		.byte	0xa
GAS LISTING /tmp/ccQ6OdaV.s 			page 92


 3622 07c6 B0       		.byte	0xb0
 3623 07c7 E9070000 		.long	0x7e9
 3624 07cb 06       		.uleb128 0x6
 3625 07cc 00000000 		.long	.LASF86
 3626 07d0 0A       		.byte	0xa
 3627 07d1 B3       		.byte	0xb3
 3628 07d2 E9070000 		.long	0x7e9
 3629 07d6 02       		.byte	0x2
 3630 07d7 23       		.byte	0x23
 3631 07d8 00       		.uleb128 0x0
 3632 07d9 06       		.uleb128 0x6
 3633 07da 00000000 		.long	.LASF87
 3634 07de 0A       		.byte	0xa
 3635 07df B4       		.byte	0xb4
 3636 07e0 62000000 		.long	0x62
 3637 07e4 03       		.byte	0x3
 3638 07e5 23       		.byte	0x23
 3639 07e6 F001     		.uleb128 0xf0
 3640 07e8 00       		.byte	0x0
 3641 07e9 16       		.uleb128 0x16
 3642 07ea 68050000 		.long	0x568
 3643 07ee F9070000 		.long	0x7f9
 3644 07f2 17       		.uleb128 0x17
 3645 07f3 B1000000 		.long	0xb1
 3646 07f7 0E       		.byte	0xe
 3647 07f8 00       		.byte	0x0
 3648 07f9 04       		.uleb128 0x4
 3649 07fa 00000000 		.long	.LASF88
 3650 07fe 0A       		.byte	0xa
 3651 07ff D2       		.byte	0xd2
 3652 0800 04080000 		.long	0x804
 3653 0804 1B       		.uleb128 0x1b
 3654 0805 00000000 		.long	.LASF88
 3655 0809 7002     		.value	0x270
 3656 080b 0A       		.byte	0xa
 3657 080c D2       		.byte	0xd2
 3658 080d 5B080000 		.long	0x85b
 3659 0811 0E       		.uleb128 0xe
 3660 0812 64616400 		.string	"dad"
 3661 0816 0A       		.byte	0xa
 3662 0817 D5       		.byte	0xd5
 3663 0818 54010000 		.long	0x154
 3664 081c 02       		.byte	0x2
 3665 081d 23       		.byte	0x23
 3666 081e 00       		.uleb128 0x0
 3667 081f 06       		.uleb128 0x6
 3668 0820 00000000 		.long	.LASF89
 3669 0824 0A       		.byte	0xa
 3670 0825 D6       		.byte	0xd6
 3671 0826 B3070000 		.long	0x7b3
 3672 082a 02       		.byte	0x2
 3673 082b 23       		.byte	0x23
 3674 082c 50       		.uleb128 0x50
 3675 082d 06       		.uleb128 0x6
 3676 082e 00000000 		.long	.LASF90
 3677 0832 0A       		.byte	0xa
 3678 0833 D7       		.byte	0xd7
GAS LISTING /tmp/ccQ6OdaV.s 			page 93


 3679 0834 B3070000 		.long	0x7b3
 3680 0838 03       		.byte	0x3
 3681 0839 23       		.byte	0x23
 3682 083a D002     		.uleb128 0x150
 3683 083c 06       		.uleb128 0x6
 3684 083d 00000000 		.long	.LASF91
 3685 0841 0A       		.byte	0xa
 3686 0842 D8       		.byte	0xd8
 3687 0843 68050000 		.long	0x568
 3688 0847 03       		.byte	0x3
 3689 0848 23       		.byte	0x23
 3690 0849 D004     		.uleb128 0x250
 3691 084b 06       		.uleb128 0x6
 3692 084c 00000000 		.long	.LASF92
 3693 0850 0A       		.byte	0xa
 3694 0851 D9       		.byte	0xd9
 3695 0852 68050000 		.long	0x568
 3696 0856 03       		.byte	0x3
 3697 0857 23       		.byte	0x23
 3698 0858 E004     		.uleb128 0x260
 3699 085a 00       		.byte	0x0
 3700 085b 04       		.uleb128 0x4
 3701 085c 00000000 		.long	.LASF93
 3702 0860 0B       		.byte	0xb
 3703 0861 29       		.byte	0x29
 3704 0862 66080000 		.long	0x866
 3705 0866 05       		.uleb128 0x5
 3706 0867 00000000 		.long	.LASF93
 3707 086b 70       		.byte	0x70
 3708 086c 0B       		.byte	0xb
 3709 086d 29       		.byte	0x29
 3710 086e 9D080000 		.long	0x89d
 3711 0872 0E       		.uleb128 0xe
 3712 0873 64616400 		.string	"dad"
 3713 0877 0B       		.byte	0xb
 3714 0878 2C       		.byte	0x2c
 3715 0879 54010000 		.long	0x154
 3716 087d 02       		.byte	0x2
 3717 087e 23       		.byte	0x23
 3718 087f 00       		.uleb128 0x0
 3719 0880 06       		.uleb128 0x6
 3720 0881 00000000 		.long	.LASF91
 3721 0885 0B       		.byte	0xb
 3722 0886 2D       		.byte	0x2d
 3723 0887 68050000 		.long	0x568
 3724 088b 02       		.byte	0x2
 3725 088c 23       		.byte	0x23
 3726 088d 50       		.uleb128 0x50
 3727 088e 06       		.uleb128 0x6
 3728 088f 00000000 		.long	.LASF92
 3729 0893 0B       		.byte	0xb
 3730 0894 2E       		.byte	0x2e
 3731 0895 68050000 		.long	0x568
 3732 0899 02       		.byte	0x2
 3733 089a 23       		.byte	0x23
 3734 089b 60       		.uleb128 0x60
 3735 089c 00       		.byte	0x0
GAS LISTING /tmp/ccQ6OdaV.s 			page 94


 3736 089d 04       		.uleb128 0x4
 3737 089e 00000000 		.long	.LASF94
 3738 08a2 0C       		.byte	0xc
 3739 08a3 48       		.byte	0x48
 3740 08a4 62000000 		.long	0x62
 3741 08a8 0C       		.uleb128 0xc
 3742 08a9 04       		.byte	0x4
 3743 08aa 0C       		.byte	0xc
 3744 08ab 4A       		.byte	0x4a
 3745 08ac C3080000 		.long	0x8c3
 3746 08b0 0D       		.uleb128 0xd
 3747 08b1 00000000 		.long	.LASF95
 3748 08b5 00       		.sleb128 0
 3749 08b6 0D       		.uleb128 0xd
 3750 08b7 00000000 		.long	.LASF96
 3751 08bb 01       		.sleb128 1
 3752 08bc 0D       		.uleb128 0xd
 3753 08bd 00000000 		.long	.LASF97
 3754 08c1 02       		.sleb128 2
 3755 08c2 00       		.byte	0x0
 3756 08c3 04       		.uleb128 0x4
 3757 08c4 00000000 		.long	.LASF98
 3758 08c8 0E       		.byte	0xe
 3759 08c9 40       		.byte	0x40
 3760 08ca CE080000 		.long	0x8ce
 3761 08ce 13       		.uleb128 0x13
 3762 08cf 00000000 		.long	.LASF98
 3763 08d3 40       		.byte	0x40
 3764 08d4 0E       		.byte	0xe
 3765 08d5 40       		.byte	0x40
 3766 08d6 F1080000 		.long	0x8f1
 3767 08da 14       		.uleb128 0x14
 3768 08db 00000000 		.long	.LASF99
 3769 08df 0E       		.byte	0xe
 3770 08e0 43       		.byte	0x43
 3771 08e1 2F060000 		.long	0x62f
 3772 08e5 15       		.uleb128 0x15
 3773 08e6 76656300 		.string	"vec"
 3774 08ea 0E       		.byte	0xe
 3775 08eb 44       		.byte	0x44
 3776 08ec 4E070000 		.long	0x74e
 3777 08f0 00       		.byte	0x0
 3778 08f1 1C       		.uleb128 0x1c
 3779 08f2 00000000 		.long	.LASF122
 3780 08f6 04       		.byte	0x4
 3781 08f7 0F       		.byte	0xf
 3782 08f8 5A       		.byte	0x5a
 3783 08f9 82090000 		.long	0x982
 3784 08fd 0D       		.uleb128 0xd
 3785 08fe 00000000 		.long	.LASF100
 3786 0902 00       		.sleb128 0
 3787 0903 0D       		.uleb128 0xd
 3788 0904 00000000 		.long	.LASF101
 3789 0908 01       		.sleb128 1
 3790 0909 0D       		.uleb128 0xd
 3791 090a 00000000 		.long	.LASF102
 3792 090e 02       		.sleb128 2
GAS LISTING /tmp/ccQ6OdaV.s 			page 95


 3793 090f 0D       		.uleb128 0xd
 3794 0910 00000000 		.long	.LASF103
 3795 0914 03       		.sleb128 3
 3796 0915 0D       		.uleb128 0xd
 3797 0916 00000000 		.long	.LASF104
 3798 091a 04       		.sleb128 4
 3799 091b 0D       		.uleb128 0xd
 3800 091c 00000000 		.long	.LASF105
 3801 0920 05       		.sleb128 5
 3802 0921 0D       		.uleb128 0xd
 3803 0922 00000000 		.long	.LASF106
 3804 0926 06       		.sleb128 6
 3805 0927 0D       		.uleb128 0xd
 3806 0928 00000000 		.long	.LASF107
 3807 092c 07       		.sleb128 7
 3808 092d 0D       		.uleb128 0xd
 3809 092e 00000000 		.long	.LASF108
 3810 0932 08       		.sleb128 8
 3811 0933 0D       		.uleb128 0xd
 3812 0934 00000000 		.long	.LASF109
 3813 0938 09       		.sleb128 9
 3814 0939 0D       		.uleb128 0xd
 3815 093a 00000000 		.long	.LASF110
 3816 093e 0A       		.sleb128 10
 3817 093f 0D       		.uleb128 0xd
 3818 0940 00000000 		.long	.LASF111
 3819 0944 0B       		.sleb128 11
 3820 0945 0D       		.uleb128 0xd
 3821 0946 00000000 		.long	.LASF112
 3822 094a 0C       		.sleb128 12
 3823 094b 0D       		.uleb128 0xd
 3824 094c 00000000 		.long	.LASF113
 3825 0950 0D       		.sleb128 13
 3826 0951 0D       		.uleb128 0xd
 3827 0952 00000000 		.long	.LASF114
 3828 0956 0E       		.sleb128 14
 3829 0957 0D       		.uleb128 0xd
 3830 0958 00000000 		.long	.LASF115
 3831 095c 0E       		.sleb128 14
 3832 095d 0D       		.uleb128 0xd
 3833 095e 00000000 		.long	.LASF116
 3834 0962 0F       		.sleb128 15
 3835 0963 0D       		.uleb128 0xd
 3836 0964 00000000 		.long	.LASF117
 3837 0968 10       		.sleb128 16
 3838 0969 0D       		.uleb128 0xd
 3839 096a 00000000 		.long	.LASF118
 3840 096e 11       		.sleb128 17
 3841 096f 0D       		.uleb128 0xd
 3842 0970 00000000 		.long	.LASF119
 3843 0974 12       		.sleb128 18
 3844 0975 0D       		.uleb128 0xd
 3845 0976 00000000 		.long	.LASF120
 3846 097a 13       		.sleb128 19
 3847 097b 0D       		.uleb128 0xd
 3848 097c 00000000 		.long	.LASF121
 3849 0980 14       		.sleb128 20
GAS LISTING /tmp/ccQ6OdaV.s 			page 96


 3850 0981 00       		.byte	0x0
 3851 0982 1C       		.uleb128 0x1c
 3852 0983 00000000 		.long	.LASF123
 3853 0987 04       		.byte	0x4
 3854 0988 0F       		.byte	0xf
 3855 0989 77       		.byte	0x77
 3856 098a 090B0000 		.long	0xb09
 3857 098e 0D       		.uleb128 0xd
 3858 098f 00000000 		.long	.LASF124
 3859 0993 00       		.sleb128 0
 3860 0994 0D       		.uleb128 0xd
 3861 0995 00000000 		.long	.LASF125
 3862 0999 01       		.sleb128 1
 3863 099a 0D       		.uleb128 0xd
 3864 099b 00000000 		.long	.LASF126
 3865 099f 02       		.sleb128 2
 3866 09a0 0D       		.uleb128 0xd
 3867 09a1 00000000 		.long	.LASF127
 3868 09a5 03       		.sleb128 3
 3869 09a6 0D       		.uleb128 0xd
 3870 09a7 00000000 		.long	.LASF128
 3871 09ab 04       		.sleb128 4
 3872 09ac 0D       		.uleb128 0xd
 3873 09ad 00000000 		.long	.LASF129
 3874 09b1 05       		.sleb128 5
 3875 09b2 0D       		.uleb128 0xd
 3876 09b3 00000000 		.long	.LASF130
 3877 09b7 06       		.sleb128 6
 3878 09b8 0D       		.uleb128 0xd
 3879 09b9 00000000 		.long	.LASF131
 3880 09bd 07       		.sleb128 7
 3881 09be 0D       		.uleb128 0xd
 3882 09bf 00000000 		.long	.LASF132
 3883 09c3 08       		.sleb128 8
 3884 09c4 0D       		.uleb128 0xd
 3885 09c5 00000000 		.long	.LASF133
 3886 09c9 09       		.sleb128 9
 3887 09ca 0D       		.uleb128 0xd
 3888 09cb 00000000 		.long	.LASF134
 3889 09cf 0A       		.sleb128 10
 3890 09d0 0D       		.uleb128 0xd
 3891 09d1 00000000 		.long	.LASF135
 3892 09d5 0B       		.sleb128 11
 3893 09d6 0D       		.uleb128 0xd
 3894 09d7 00000000 		.long	.LASF136
 3895 09db 0C       		.sleb128 12
 3896 09dc 0D       		.uleb128 0xd
 3897 09dd 00000000 		.long	.LASF137
 3898 09e1 0D       		.sleb128 13
 3899 09e2 0D       		.uleb128 0xd
 3900 09e3 00000000 		.long	.LASF138
 3901 09e7 0E       		.sleb128 14
 3902 09e8 0D       		.uleb128 0xd
 3903 09e9 00000000 		.long	.LASF139
 3904 09ed 0F       		.sleb128 15
 3905 09ee 0D       		.uleb128 0xd
 3906 09ef 00000000 		.long	.LASF140
GAS LISTING /tmp/ccQ6OdaV.s 			page 97


 3907 09f3 10       		.sleb128 16
 3908 09f4 0D       		.uleb128 0xd
 3909 09f5 00000000 		.long	.LASF141
 3910 09f9 11       		.sleb128 17
 3911 09fa 0D       		.uleb128 0xd
 3912 09fb 00000000 		.long	.LASF142
 3913 09ff 12       		.sleb128 18
 3914 0a00 0D       		.uleb128 0xd
 3915 0a01 00000000 		.long	.LASF143
 3916 0a05 13       		.sleb128 19
 3917 0a06 0D       		.uleb128 0xd
 3918 0a07 00000000 		.long	.LASF144
 3919 0a0b 14       		.sleb128 20
 3920 0a0c 0D       		.uleb128 0xd
 3921 0a0d 00000000 		.long	.LASF145
 3922 0a11 15       		.sleb128 21
 3923 0a12 0D       		.uleb128 0xd
 3924 0a13 00000000 		.long	.LASF146
 3925 0a17 16       		.sleb128 22
 3926 0a18 0D       		.uleb128 0xd
 3927 0a19 00000000 		.long	.LASF147
 3928 0a1d 17       		.sleb128 23
 3929 0a1e 0D       		.uleb128 0xd
 3930 0a1f 00000000 		.long	.LASF148
 3931 0a23 18       		.sleb128 24
 3932 0a24 0D       		.uleb128 0xd
 3933 0a25 00000000 		.long	.LASF149
 3934 0a29 19       		.sleb128 25
 3935 0a2a 0D       		.uleb128 0xd
 3936 0a2b 00000000 		.long	.LASF150
 3937 0a2f 1A       		.sleb128 26
 3938 0a30 0D       		.uleb128 0xd
 3939 0a31 00000000 		.long	.LASF151
 3940 0a35 1B       		.sleb128 27
 3941 0a36 0D       		.uleb128 0xd
 3942 0a37 00000000 		.long	.LASF152
 3943 0a3b 1C       		.sleb128 28
 3944 0a3c 0D       		.uleb128 0xd
 3945 0a3d 00000000 		.long	.LASF153
 3946 0a41 1D       		.sleb128 29
 3947 0a42 0D       		.uleb128 0xd
 3948 0a43 00000000 		.long	.LASF154
 3949 0a47 1E       		.sleb128 30
 3950 0a48 0D       		.uleb128 0xd
 3951 0a49 00000000 		.long	.LASF155
 3952 0a4d 1F       		.sleb128 31
 3953 0a4e 0D       		.uleb128 0xd
 3954 0a4f 00000000 		.long	.LASF156
 3955 0a53 20       		.sleb128 32
 3956 0a54 0D       		.uleb128 0xd
 3957 0a55 00000000 		.long	.LASF157
 3958 0a59 21       		.sleb128 33
 3959 0a5a 0D       		.uleb128 0xd
 3960 0a5b 00000000 		.long	.LASF158
 3961 0a5f 22       		.sleb128 34
 3962 0a60 0D       		.uleb128 0xd
 3963 0a61 00000000 		.long	.LASF159
GAS LISTING /tmp/ccQ6OdaV.s 			page 98


 3964 0a65 23       		.sleb128 35
 3965 0a66 0D       		.uleb128 0xd
 3966 0a67 00000000 		.long	.LASF160
 3967 0a6b 24       		.sleb128 36
 3968 0a6c 0D       		.uleb128 0xd
 3969 0a6d 00000000 		.long	.LASF161
 3970 0a71 25       		.sleb128 37
 3971 0a72 0D       		.uleb128 0xd
 3972 0a73 00000000 		.long	.LASF162
 3973 0a77 26       		.sleb128 38
 3974 0a78 0D       		.uleb128 0xd
 3975 0a79 00000000 		.long	.LASF163
 3976 0a7d 27       		.sleb128 39
 3977 0a7e 0D       		.uleb128 0xd
 3978 0a7f 00000000 		.long	.LASF164
 3979 0a83 28       		.sleb128 40
 3980 0a84 0D       		.uleb128 0xd
 3981 0a85 00000000 		.long	.LASF165
 3982 0a89 29       		.sleb128 41
 3983 0a8a 0D       		.uleb128 0xd
 3984 0a8b 00000000 		.long	.LASF166
 3985 0a8f 2A       		.sleb128 42
 3986 0a90 0D       		.uleb128 0xd
 3987 0a91 00000000 		.long	.LASF167
 3988 0a95 2B       		.sleb128 43
 3989 0a96 0D       		.uleb128 0xd
 3990 0a97 00000000 		.long	.LASF168
 3991 0a9b 2C       		.sleb128 44
 3992 0a9c 0D       		.uleb128 0xd
 3993 0a9d 00000000 		.long	.LASF169
 3994 0aa1 2D       		.sleb128 45
 3995 0aa2 0D       		.uleb128 0xd
 3996 0aa3 00000000 		.long	.LASF170
 3997 0aa7 2E       		.sleb128 46
 3998 0aa8 0D       		.uleb128 0xd
 3999 0aa9 00000000 		.long	.LASF171
 4000 0aad 2F       		.sleb128 47
 4001 0aae 0D       		.uleb128 0xd
 4002 0aaf 00000000 		.long	.LASF172
 4003 0ab3 30       		.sleb128 48
 4004 0ab4 0D       		.uleb128 0xd
 4005 0ab5 00000000 		.long	.LASF173
 4006 0ab9 31       		.sleb128 49
 4007 0aba 0D       		.uleb128 0xd
 4008 0abb 00000000 		.long	.LASF174
 4009 0abf 32       		.sleb128 50
 4010 0ac0 0D       		.uleb128 0xd
 4011 0ac1 00000000 		.long	.LASF175
 4012 0ac5 33       		.sleb128 51
 4013 0ac6 0D       		.uleb128 0xd
 4014 0ac7 00000000 		.long	.LASF176
 4015 0acb 34       		.sleb128 52
 4016 0acc 0D       		.uleb128 0xd
 4017 0acd 00000000 		.long	.LASF177
 4018 0ad1 35       		.sleb128 53
 4019 0ad2 0D       		.uleb128 0xd
 4020 0ad3 00000000 		.long	.LASF178
GAS LISTING /tmp/ccQ6OdaV.s 			page 99


 4021 0ad7 36       		.sleb128 54
 4022 0ad8 0D       		.uleb128 0xd
 4023 0ad9 00000000 		.long	.LASF179
 4024 0add 36       		.sleb128 54
 4025 0ade 0D       		.uleb128 0xd
 4026 0adf 00000000 		.long	.LASF180
 4027 0ae3 37       		.sleb128 55
 4028 0ae4 0D       		.uleb128 0xd
 4029 0ae5 00000000 		.long	.LASF181
 4030 0ae9 38       		.sleb128 56
 4031 0aea 0D       		.uleb128 0xd
 4032 0aeb 00000000 		.long	.LASF182
 4033 0aef 39       		.sleb128 57
 4034 0af0 0D       		.uleb128 0xd
 4035 0af1 00000000 		.long	.LASF183
 4036 0af5 3A       		.sleb128 58
 4037 0af6 0D       		.uleb128 0xd
 4038 0af7 00000000 		.long	.LASF184
 4039 0afb 3B       		.sleb128 59
 4040 0afc 0D       		.uleb128 0xd
 4041 0afd 00000000 		.long	.LASF185
 4042 0b01 3C       		.sleb128 60
 4043 0b02 0D       		.uleb128 0xd
 4044 0b03 00000000 		.long	.LASF186
 4045 0b07 3D       		.sleb128 61
 4046 0b08 00       		.byte	0x0
 4047 0b09 1C       		.uleb128 0x1c
 4048 0b0a 00000000 		.long	.LASF187
 4049 0b0e 04       		.byte	0x4
 4050 0b0f 0F       		.byte	0xf
 4051 0b10 BD       		.byte	0xbd
 4052 0b11 BF0C0000 		.long	0xcbf
 4053 0b15 0D       		.uleb128 0xd
 4054 0b16 00000000 		.long	.LASF188
 4055 0b1a 00       		.sleb128 0
 4056 0b1b 0D       		.uleb128 0xd
 4057 0b1c 00000000 		.long	.LASF189
 4058 0b20 01       		.sleb128 1
 4059 0b21 0D       		.uleb128 0xd
 4060 0b22 00000000 		.long	.LASF190
 4061 0b26 02       		.sleb128 2
 4062 0b27 0D       		.uleb128 0xd
 4063 0b28 00000000 		.long	.LASF191
 4064 0b2c 03       		.sleb128 3
 4065 0b2d 0D       		.uleb128 0xd
 4066 0b2e 00000000 		.long	.LASF192
 4067 0b32 04       		.sleb128 4
 4068 0b33 0D       		.uleb128 0xd
 4069 0b34 00000000 		.long	.LASF193
 4070 0b38 05       		.sleb128 5
 4071 0b39 0D       		.uleb128 0xd
 4072 0b3a 00000000 		.long	.LASF194
 4073 0b3e 06       		.sleb128 6
 4074 0b3f 0D       		.uleb128 0xd
 4075 0b40 00000000 		.long	.LASF195
 4076 0b44 07       		.sleb128 7
 4077 0b45 0D       		.uleb128 0xd
GAS LISTING /tmp/ccQ6OdaV.s 			page 100


 4078 0b46 00000000 		.long	.LASF196
 4079 0b4a 08       		.sleb128 8
 4080 0b4b 0D       		.uleb128 0xd
 4081 0b4c 00000000 		.long	.LASF197
 4082 0b50 09       		.sleb128 9
 4083 0b51 0D       		.uleb128 0xd
 4084 0b52 00000000 		.long	.LASF198
 4085 0b56 0A       		.sleb128 10
 4086 0b57 0D       		.uleb128 0xd
 4087 0b58 00000000 		.long	.LASF199
 4088 0b5c 0B       		.sleb128 11
 4089 0b5d 0D       		.uleb128 0xd
 4090 0b5e 00000000 		.long	.LASF200
 4091 0b62 0C       		.sleb128 12
 4092 0b63 0D       		.uleb128 0xd
 4093 0b64 00000000 		.long	.LASF201
 4094 0b68 0D       		.sleb128 13
 4095 0b69 0D       		.uleb128 0xd
 4096 0b6a 00000000 		.long	.LASF202
 4097 0b6e 0E       		.sleb128 14
 4098 0b6f 0D       		.uleb128 0xd
 4099 0b70 00000000 		.long	.LASF203
 4100 0b74 0F       		.sleb128 15
 4101 0b75 0D       		.uleb128 0xd
 4102 0b76 00000000 		.long	.LASF204
 4103 0b7a 10       		.sleb128 16
 4104 0b7b 0D       		.uleb128 0xd
 4105 0b7c 00000000 		.long	.LASF205
 4106 0b80 11       		.sleb128 17
 4107 0b81 0D       		.uleb128 0xd
 4108 0b82 00000000 		.long	.LASF206
 4109 0b86 12       		.sleb128 18
 4110 0b87 0D       		.uleb128 0xd
 4111 0b88 00000000 		.long	.LASF207
 4112 0b8c 13       		.sleb128 19
 4113 0b8d 0D       		.uleb128 0xd
 4114 0b8e 00000000 		.long	.LASF208
 4115 0b92 14       		.sleb128 20
 4116 0b93 0D       		.uleb128 0xd
 4117 0b94 00000000 		.long	.LASF209
 4118 0b98 15       		.sleb128 21
 4119 0b99 0D       		.uleb128 0xd
 4120 0b9a 00000000 		.long	.LASF210
 4121 0b9e 16       		.sleb128 22
 4122 0b9f 0D       		.uleb128 0xd
 4123 0ba0 00000000 		.long	.LASF211
 4124 0ba4 17       		.sleb128 23
 4125 0ba5 0D       		.uleb128 0xd
 4126 0ba6 00000000 		.long	.LASF212
 4127 0baa 18       		.sleb128 24
 4128 0bab 0D       		.uleb128 0xd
 4129 0bac 00000000 		.long	.LASF213
 4130 0bb0 19       		.sleb128 25
 4131 0bb1 0D       		.uleb128 0xd
 4132 0bb2 00000000 		.long	.LASF214
 4133 0bb6 1A       		.sleb128 26
 4134 0bb7 0D       		.uleb128 0xd
GAS LISTING /tmp/ccQ6OdaV.s 			page 101


 4135 0bb8 00000000 		.long	.LASF215
 4136 0bbc 1B       		.sleb128 27
 4137 0bbd 0D       		.uleb128 0xd
 4138 0bbe 00000000 		.long	.LASF216
 4139 0bc2 1C       		.sleb128 28
 4140 0bc3 0D       		.uleb128 0xd
 4141 0bc4 00000000 		.long	.LASF217
 4142 0bc8 1D       		.sleb128 29
 4143 0bc9 0D       		.uleb128 0xd
 4144 0bca 00000000 		.long	.LASF218
 4145 0bce 1E       		.sleb128 30
 4146 0bcf 0D       		.uleb128 0xd
 4147 0bd0 00000000 		.long	.LASF219
 4148 0bd4 1F       		.sleb128 31
 4149 0bd5 0D       		.uleb128 0xd
 4150 0bd6 00000000 		.long	.LASF220
 4151 0bda 20       		.sleb128 32
 4152 0bdb 0D       		.uleb128 0xd
 4153 0bdc 00000000 		.long	.LASF221
 4154 0be0 21       		.sleb128 33
 4155 0be1 0D       		.uleb128 0xd
 4156 0be2 00000000 		.long	.LASF222
 4157 0be6 22       		.sleb128 34
 4158 0be7 0D       		.uleb128 0xd
 4159 0be8 00000000 		.long	.LASF223
 4160 0bec 23       		.sleb128 35
 4161 0bed 0D       		.uleb128 0xd
 4162 0bee 00000000 		.long	.LASF224
 4163 0bf2 24       		.sleb128 36
 4164 0bf3 0D       		.uleb128 0xd
 4165 0bf4 00000000 		.long	.LASF225
 4166 0bf8 25       		.sleb128 37
 4167 0bf9 0D       		.uleb128 0xd
 4168 0bfa 00000000 		.long	.LASF226
 4169 0bfe 26       		.sleb128 38
 4170 0bff 0D       		.uleb128 0xd
 4171 0c00 00000000 		.long	.LASF227
 4172 0c04 27       		.sleb128 39
 4173 0c05 0D       		.uleb128 0xd
 4174 0c06 00000000 		.long	.LASF228
 4175 0c0a 28       		.sleb128 40
 4176 0c0b 0D       		.uleb128 0xd
 4177 0c0c 00000000 		.long	.LASF229
 4178 0c10 29       		.sleb128 41
 4179 0c11 0D       		.uleb128 0xd
 4180 0c12 00000000 		.long	.LASF230
 4181 0c16 2A       		.sleb128 42
 4182 0c17 0D       		.uleb128 0xd
 4183 0c18 00000000 		.long	.LASF231
 4184 0c1c 2B       		.sleb128 43
 4185 0c1d 0D       		.uleb128 0xd
 4186 0c1e 00000000 		.long	.LASF232
 4187 0c22 2C       		.sleb128 44
 4188 0c23 0D       		.uleb128 0xd
 4189 0c24 00000000 		.long	.LASF233
 4190 0c28 2D       		.sleb128 45
 4191 0c29 0D       		.uleb128 0xd
GAS LISTING /tmp/ccQ6OdaV.s 			page 102


 4192 0c2a 00000000 		.long	.LASF234
 4193 0c2e 2E       		.sleb128 46
 4194 0c2f 0D       		.uleb128 0xd
 4195 0c30 00000000 		.long	.LASF235
 4196 0c34 2F       		.sleb128 47
 4197 0c35 0D       		.uleb128 0xd
 4198 0c36 00000000 		.long	.LASF236
 4199 0c3a 30       		.sleb128 48
 4200 0c3b 0D       		.uleb128 0xd
 4201 0c3c 00000000 		.long	.LASF237
 4202 0c40 31       		.sleb128 49
 4203 0c41 0D       		.uleb128 0xd
 4204 0c42 00000000 		.long	.LASF238
 4205 0c46 32       		.sleb128 50
 4206 0c47 0D       		.uleb128 0xd
 4207 0c48 00000000 		.long	.LASF239
 4208 0c4c 33       		.sleb128 51
 4209 0c4d 0D       		.uleb128 0xd
 4210 0c4e 00000000 		.long	.LASF240
 4211 0c52 34       		.sleb128 52
 4212 0c53 0D       		.uleb128 0xd
 4213 0c54 00000000 		.long	.LASF241
 4214 0c58 35       		.sleb128 53
 4215 0c59 0D       		.uleb128 0xd
 4216 0c5a 00000000 		.long	.LASF242
 4217 0c5e 36       		.sleb128 54
 4218 0c5f 0D       		.uleb128 0xd
 4219 0c60 00000000 		.long	.LASF243
 4220 0c64 37       		.sleb128 55
 4221 0c65 0D       		.uleb128 0xd
 4222 0c66 00000000 		.long	.LASF244
 4223 0c6a 38       		.sleb128 56
 4224 0c6b 0D       		.uleb128 0xd
 4225 0c6c 00000000 		.long	.LASF245
 4226 0c70 39       		.sleb128 57
 4227 0c71 0D       		.uleb128 0xd
 4228 0c72 00000000 		.long	.LASF246
 4229 0c76 3A       		.sleb128 58
 4230 0c77 0D       		.uleb128 0xd
 4231 0c78 00000000 		.long	.LASF247
 4232 0c7c 3A       		.sleb128 58
 4233 0c7d 0D       		.uleb128 0xd
 4234 0c7e 00000000 		.long	.LASF248
 4235 0c82 3B       		.sleb128 59
 4236 0c83 0D       		.uleb128 0xd
 4237 0c84 00000000 		.long	.LASF249
 4238 0c88 3C       		.sleb128 60
 4239 0c89 0D       		.uleb128 0xd
 4240 0c8a 00000000 		.long	.LASF250
 4241 0c8e 3D       		.sleb128 61
 4242 0c8f 0D       		.uleb128 0xd
 4243 0c90 00000000 		.long	.LASF251
 4244 0c94 3E       		.sleb128 62
 4245 0c95 0D       		.uleb128 0xd
 4246 0c96 00000000 		.long	.LASF252
 4247 0c9a 3F       		.sleb128 63
 4248 0c9b 0D       		.uleb128 0xd
GAS LISTING /tmp/ccQ6OdaV.s 			page 103


 4249 0c9c 00000000 		.long	.LASF253
 4250 0ca0 C000     		.sleb128 64
 4251 0ca2 0D       		.uleb128 0xd
 4252 0ca3 00000000 		.long	.LASF254
 4253 0ca7 C100     		.sleb128 65
 4254 0ca9 0D       		.uleb128 0xd
 4255 0caa 00000000 		.long	.LASF255
 4256 0cae C200     		.sleb128 66
 4257 0cb0 0D       		.uleb128 0xd
 4258 0cb1 00000000 		.long	.LASF256
 4259 0cb5 C300     		.sleb128 67
 4260 0cb7 0D       		.uleb128 0xd
 4261 0cb8 00000000 		.long	.LASF257
 4262 0cbc C400     		.sleb128 68
 4263 0cbe 00       		.byte	0x0
 4264 0cbf 1D       		.uleb128 0x1d
 4265 0cc0 00000000 		.long	.LASF258
 4266 0cc4 04       		.byte	0x4
 4267 0cc5 0F       		.byte	0xf
 4268 0cc6 0A01     		.value	0x10a
 4269 0cc8 BE0D0000 		.long	0xdbe
 4270 0ccc 0D       		.uleb128 0xd
 4271 0ccd 00000000 		.long	.LASF259
 4272 0cd1 00       		.sleb128 0
 4273 0cd2 0D       		.uleb128 0xd
 4274 0cd3 00000000 		.long	.LASF260
 4275 0cd7 3D       		.sleb128 61
 4276 0cd8 0D       		.uleb128 0xd
 4277 0cd9 00000000 		.long	.LASF261
 4278 0cdd 3E       		.sleb128 62
 4279 0cde 0D       		.uleb128 0xd
 4280 0cdf 00000000 		.long	.LASF262
 4281 0ce3 3F       		.sleb128 63
 4282 0ce4 0D       		.uleb128 0xd
 4283 0ce5 00000000 		.long	.LASF263
 4284 0ce9 C000     		.sleb128 64
 4285 0ceb 0D       		.uleb128 0xd
 4286 0cec 00000000 		.long	.LASF264
 4287 0cf0 C100     		.sleb128 65
 4288 0cf2 0D       		.uleb128 0xd
 4289 0cf3 00000000 		.long	.LASF265
 4290 0cf7 C200     		.sleb128 66
 4291 0cf9 0D       		.uleb128 0xd
 4292 0cfa 00000000 		.long	.LASF266
 4293 0cfe C300     		.sleb128 67
 4294 0d00 0D       		.uleb128 0xd
 4295 0d01 00000000 		.long	.LASF267
 4296 0d05 C400     		.sleb128 68
 4297 0d07 0D       		.uleb128 0xd
 4298 0d08 00000000 		.long	.LASF268
 4299 0d0c C500     		.sleb128 69
 4300 0d0e 0D       		.uleb128 0xd
 4301 0d0f 00000000 		.long	.LASF269
 4302 0d13 C600     		.sleb128 70
 4303 0d15 0D       		.uleb128 0xd
 4304 0d16 00000000 		.long	.LASF270
 4305 0d1a C700     		.sleb128 71
GAS LISTING /tmp/ccQ6OdaV.s 			page 104


 4306 0d1c 0D       		.uleb128 0xd
 4307 0d1d 00000000 		.long	.LASF271
 4308 0d21 C800     		.sleb128 72
 4309 0d23 0D       		.uleb128 0xd
 4310 0d24 00000000 		.long	.LASF272
 4311 0d28 C900     		.sleb128 73
 4312 0d2a 0D       		.uleb128 0xd
 4313 0d2b 00000000 		.long	.LASF273
 4314 0d2f CA00     		.sleb128 74
 4315 0d31 0D       		.uleb128 0xd
 4316 0d32 00000000 		.long	.LASF274
 4317 0d36 CB00     		.sleb128 75
 4318 0d38 0D       		.uleb128 0xd
 4319 0d39 00000000 		.long	.LASF275
 4320 0d3d CC00     		.sleb128 76
 4321 0d3f 0D       		.uleb128 0xd
 4322 0d40 00000000 		.long	.LASF276
 4323 0d44 CD00     		.sleb128 77
 4324 0d46 0D       		.uleb128 0xd
 4325 0d47 00000000 		.long	.LASF277
 4326 0d4b CE00     		.sleb128 78
 4327 0d4d 0D       		.uleb128 0xd
 4328 0d4e 00000000 		.long	.LASF278
 4329 0d52 CF00     		.sleb128 79
 4330 0d54 0D       		.uleb128 0xd
 4331 0d55 00000000 		.long	.LASF279
 4332 0d59 D000     		.sleb128 80
 4333 0d5b 0D       		.uleb128 0xd
 4334 0d5c 00000000 		.long	.LASF280
 4335 0d60 D100     		.sleb128 81
 4336 0d62 0D       		.uleb128 0xd
 4337 0d63 00000000 		.long	.LASF281
 4338 0d67 D100     		.sleb128 81
 4339 0d69 0D       		.uleb128 0xd
 4340 0d6a 00000000 		.long	.LASF282
 4341 0d6e D200     		.sleb128 82
 4342 0d70 0D       		.uleb128 0xd
 4343 0d71 00000000 		.long	.LASF283
 4344 0d75 D300     		.sleb128 83
 4345 0d77 0D       		.uleb128 0xd
 4346 0d78 00000000 		.long	.LASF284
 4347 0d7c D400     		.sleb128 84
 4348 0d7e 0D       		.uleb128 0xd
 4349 0d7f 00000000 		.long	.LASF285
 4350 0d83 D500     		.sleb128 85
 4351 0d85 0D       		.uleb128 0xd
 4352 0d86 00000000 		.long	.LASF286
 4353 0d8a D600     		.sleb128 86
 4354 0d8c 0D       		.uleb128 0xd
 4355 0d8d 00000000 		.long	.LASF287
 4356 0d91 D700     		.sleb128 87
 4357 0d93 0D       		.uleb128 0xd
 4358 0d94 00000000 		.long	.LASF288
 4359 0d98 D800     		.sleb128 88
 4360 0d9a 0D       		.uleb128 0xd
 4361 0d9b 00000000 		.long	.LASF289
 4362 0d9f D900     		.sleb128 89
GAS LISTING /tmp/ccQ6OdaV.s 			page 105


 4363 0da1 0D       		.uleb128 0xd
 4364 0da2 00000000 		.long	.LASF290
 4365 0da6 DA00     		.sleb128 90
 4366 0da8 0D       		.uleb128 0xd
 4367 0da9 00000000 		.long	.LASF291
 4368 0dad DB00     		.sleb128 91
 4369 0daf 0D       		.uleb128 0xd
 4370 0db0 00000000 		.long	.LASF292
 4371 0db4 DC00     		.sleb128 92
 4372 0db6 0D       		.uleb128 0xd
 4373 0db7 00000000 		.long	.LASF293
 4374 0dbb DD00     		.sleb128 93
 4375 0dbd 00       		.byte	0x0
 4376 0dbe 1D       		.uleb128 0x1d
 4377 0dbf 00000000 		.long	.LASF294
 4378 0dc3 04       		.byte	0x4
 4379 0dc4 0F       		.byte	0xf
 4380 0dc5 3401     		.value	0x134
 4381 0dc7 FE0E0000 		.long	0xefe
 4382 0dcb 0D       		.uleb128 0xd
 4383 0dcc 00000000 		.long	.LASF295
 4384 0dd0 00       		.sleb128 0
 4385 0dd1 0D       		.uleb128 0xd
 4386 0dd2 00000000 		.long	.LASF296
 4387 0dd6 01       		.sleb128 1
 4388 0dd7 0D       		.uleb128 0xd
 4389 0dd8 00000000 		.long	.LASF297
 4390 0ddc 02       		.sleb128 2
 4391 0ddd 0D       		.uleb128 0xd
 4392 0dde 00000000 		.long	.LASF298
 4393 0de2 03       		.sleb128 3
 4394 0de3 0D       		.uleb128 0xd
 4395 0de4 00000000 		.long	.LASF299
 4396 0de8 04       		.sleb128 4
 4397 0de9 0D       		.uleb128 0xd
 4398 0dea 00000000 		.long	.LASF300
 4399 0dee 05       		.sleb128 5
 4400 0def 0D       		.uleb128 0xd
 4401 0df0 00000000 		.long	.LASF301
 4402 0df4 06       		.sleb128 6
 4403 0df5 0D       		.uleb128 0xd
 4404 0df6 00000000 		.long	.LASF302
 4405 0dfa 07       		.sleb128 7
 4406 0dfb 0D       		.uleb128 0xd
 4407 0dfc 00000000 		.long	.LASF303
 4408 0e00 08       		.sleb128 8
 4409 0e01 0D       		.uleb128 0xd
 4410 0e02 00000000 		.long	.LASF304
 4411 0e06 09       		.sleb128 9
 4412 0e07 0D       		.uleb128 0xd
 4413 0e08 00000000 		.long	.LASF305
 4414 0e0c 0A       		.sleb128 10
 4415 0e0d 0D       		.uleb128 0xd
 4416 0e0e 00000000 		.long	.LASF306
 4417 0e12 0B       		.sleb128 11
 4418 0e13 0D       		.uleb128 0xd
 4419 0e14 00000000 		.long	.LASF307
GAS LISTING /tmp/ccQ6OdaV.s 			page 106


 4420 0e18 0C       		.sleb128 12
 4421 0e19 0D       		.uleb128 0xd
 4422 0e1a 00000000 		.long	.LASF308
 4423 0e1e 0D       		.sleb128 13
 4424 0e1f 0D       		.uleb128 0xd
 4425 0e20 00000000 		.long	.LASF309
 4426 0e24 0E       		.sleb128 14
 4427 0e25 0D       		.uleb128 0xd
 4428 0e26 00000000 		.long	.LASF310
 4429 0e2a 0F       		.sleb128 15
 4430 0e2b 0D       		.uleb128 0xd
 4431 0e2c 00000000 		.long	.LASF311
 4432 0e30 10       		.sleb128 16
 4433 0e31 0D       		.uleb128 0xd
 4434 0e32 00000000 		.long	.LASF312
 4435 0e36 11       		.sleb128 17
 4436 0e37 0D       		.uleb128 0xd
 4437 0e38 00000000 		.long	.LASF313
 4438 0e3c 12       		.sleb128 18
 4439 0e3d 0D       		.uleb128 0xd
 4440 0e3e 00000000 		.long	.LASF314
 4441 0e42 13       		.sleb128 19
 4442 0e43 0D       		.uleb128 0xd
 4443 0e44 00000000 		.long	.LASF315
 4444 0e48 14       		.sleb128 20
 4445 0e49 0D       		.uleb128 0xd
 4446 0e4a 00000000 		.long	.LASF316
 4447 0e4e 15       		.sleb128 21
 4448 0e4f 0D       		.uleb128 0xd
 4449 0e50 00000000 		.long	.LASF317
 4450 0e54 16       		.sleb128 22
 4451 0e55 0D       		.uleb128 0xd
 4452 0e56 00000000 		.long	.LASF318
 4453 0e5a 17       		.sleb128 23
 4454 0e5b 0D       		.uleb128 0xd
 4455 0e5c 00000000 		.long	.LASF319
 4456 0e60 18       		.sleb128 24
 4457 0e61 0D       		.uleb128 0xd
 4458 0e62 00000000 		.long	.LASF320
 4459 0e66 19       		.sleb128 25
 4460 0e67 0D       		.uleb128 0xd
 4461 0e68 00000000 		.long	.LASF321
 4462 0e6c 1A       		.sleb128 26
 4463 0e6d 0D       		.uleb128 0xd
 4464 0e6e 00000000 		.long	.LASF322
 4465 0e72 1B       		.sleb128 27
 4466 0e73 0D       		.uleb128 0xd
 4467 0e74 00000000 		.long	.LASF323
 4468 0e78 1C       		.sleb128 28
 4469 0e79 0D       		.uleb128 0xd
 4470 0e7a 00000000 		.long	.LASF324
 4471 0e7e 1D       		.sleb128 29
 4472 0e7f 0D       		.uleb128 0xd
 4473 0e80 00000000 		.long	.LASF325
 4474 0e84 1E       		.sleb128 30
 4475 0e85 0D       		.uleb128 0xd
 4476 0e86 00000000 		.long	.LASF326
GAS LISTING /tmp/ccQ6OdaV.s 			page 107


 4477 0e8a 1F       		.sleb128 31
 4478 0e8b 0D       		.uleb128 0xd
 4479 0e8c 00000000 		.long	.LASF327
 4480 0e90 20       		.sleb128 32
 4481 0e91 0D       		.uleb128 0xd
 4482 0e92 00000000 		.long	.LASF328
 4483 0e96 21       		.sleb128 33
 4484 0e97 0D       		.uleb128 0xd
 4485 0e98 00000000 		.long	.LASF329
 4486 0e9c 22       		.sleb128 34
 4487 0e9d 0D       		.uleb128 0xd
 4488 0e9e 00000000 		.long	.LASF330
 4489 0ea2 23       		.sleb128 35
 4490 0ea3 0D       		.uleb128 0xd
 4491 0ea4 00000000 		.long	.LASF331
 4492 0ea8 24       		.sleb128 36
 4493 0ea9 0D       		.uleb128 0xd
 4494 0eaa 00000000 		.long	.LASF332
 4495 0eae 25       		.sleb128 37
 4496 0eaf 0D       		.uleb128 0xd
 4497 0eb0 00000000 		.long	.LASF333
 4498 0eb4 26       		.sleb128 38
 4499 0eb5 0D       		.uleb128 0xd
 4500 0eb6 00000000 		.long	.LASF334
 4501 0eba 27       		.sleb128 39
 4502 0ebb 0D       		.uleb128 0xd
 4503 0ebc 00000000 		.long	.LASF335
 4504 0ec0 28       		.sleb128 40
 4505 0ec1 0D       		.uleb128 0xd
 4506 0ec2 00000000 		.long	.LASF336
 4507 0ec6 29       		.sleb128 41
 4508 0ec7 0D       		.uleb128 0xd
 4509 0ec8 00000000 		.long	.LASF337
 4510 0ecc 29       		.sleb128 41
 4511 0ecd 0D       		.uleb128 0xd
 4512 0ece 00000000 		.long	.LASF338
 4513 0ed2 2A       		.sleb128 42
 4514 0ed3 0D       		.uleb128 0xd
 4515 0ed4 00000000 		.long	.LASF339
 4516 0ed8 2B       		.sleb128 43
 4517 0ed9 0D       		.uleb128 0xd
 4518 0eda 00000000 		.long	.LASF340
 4519 0ede 2C       		.sleb128 44
 4520 0edf 0D       		.uleb128 0xd
 4521 0ee0 00000000 		.long	.LASF341
 4522 0ee4 2D       		.sleb128 45
 4523 0ee5 0D       		.uleb128 0xd
 4524 0ee6 00000000 		.long	.LASF342
 4525 0eea 2E       		.sleb128 46
 4526 0eeb 0D       		.uleb128 0xd
 4527 0eec 00000000 		.long	.LASF343
 4528 0ef0 2F       		.sleb128 47
 4529 0ef1 0D       		.uleb128 0xd
 4530 0ef2 00000000 		.long	.LASF344
 4531 0ef6 30       		.sleb128 48
 4532 0ef7 0D       		.uleb128 0xd
 4533 0ef8 00000000 		.long	.LASF345
GAS LISTING /tmp/ccQ6OdaV.s 			page 108


 4534 0efc 31       		.sleb128 49
 4535 0efd 00       		.byte	0x0
 4536 0efe 13       		.uleb128 0x13
 4537 0eff 00000000 		.long	.LASF346
 4538 0f03 10       		.byte	0x10
 4539 0f04 01       		.byte	0x1
 4540 0f05 41       		.byte	0x41
 4541 0f06 210F0000 		.long	0xf21
 4542 0f0a 15       		.uleb128 0x15
 4543 0f0b 76656300 		.string	"vec"
 4544 0f0f 01       		.byte	0x1
 4545 0f10 42       		.byte	0x42
 4546 0f11 68050000 		.long	0x568
 4547 0f15 14       		.uleb128 0x14
 4548 0f16 00000000 		.long	.LASF347
 4549 0f1a 01       		.byte	0x1
 4550 0f1b 43       		.byte	0x43
 4551 0f1c FF040000 		.long	0x4ff
 4552 0f20 00       		.byte	0x0
 4553 0f21 04       		.uleb128 0x4
 4554 0f22 00000000 		.long	.LASF346
 4555 0f26 01       		.byte	0x1
 4556 0f27 44       		.byte	0x44
 4557 0f28 FE0E0000 		.long	0xefe
 4558 0f2c 1E       		.uleb128 0x1e
 4559 0f2d 00000000 		.long	.LASF350
 4560 0f31 01       		.byte	0x1
 4561 0f32 49       		.byte	0x49
 4562 0f33 01       		.byte	0x1
 4563 0f34 68050000 		.long	0x568
 4564 0f38 00000000 		.quad	.LFB508
 4564      00000000 
 4565 0f40 00000000 		.quad	.LFE508
 4565      00000000 
 4566 0f48 00000000 		.long	.LLST0
 4567 0f4c 6B0F0000 		.long	0xf6b
 4568 0f50 1F       		.uleb128 0x1f
 4569 0f51 00000000 		.long	.LASF348
 4570 0f55 01       		.byte	0x1
 4571 0f56 49       		.byte	0x49
 4572 0f57 1F040000 		.long	0x41f
 4573 0f5b 02       		.byte	0x2
 4574 0f5c 91       		.byte	0x91
 4575 0f5d 58       		.sleb128 -40
 4576 0f5e 20       		.uleb128 0x20
 4577 0f5f 7500     		.string	"u"
 4578 0f61 01       		.byte	0x1
 4579 0f62 54       		.byte	0x54
 4580 0f63 210F0000 		.long	0xf21
 4581 0f67 02       		.byte	0x2
 4582 0f68 91       		.byte	0x91
 4583 0f69 60       		.sleb128 -32
 4584 0f6a 00       		.byte	0x0
 4585 0f6b 21       		.uleb128 0x21
 4586 0f6c 00000000 		.long	.LASF398
 4587 0f70 01       		.byte	0x1
 4588 0f71 60       		.byte	0x60
GAS LISTING /tmp/ccQ6OdaV.s 			page 109


 4589 0f72 01       		.byte	0x1
 4590 0f73 00000000 		.quad	.LFB509
 4590      00000000 
 4591 0f7b 00000000 		.quad	.LFE509
 4591      00000000 
 4592 0f83 00000000 		.long	.LLST1
 4593 0f87 B50F0000 		.long	0xfb5
 4594 0f8b 22       		.uleb128 0x22
 4595 0f8c 637600   		.string	"cv"
 4596 0f8f 01       		.byte	0x1
 4597 0f90 60       		.byte	0x60
 4598 0f91 B50F0000 		.long	0xfb5
 4599 0f95 02       		.byte	0x2
 4600 0f96 91       		.byte	0x91
 4601 0f97 50       		.sleb128 -48
 4602 0f98 1F       		.uleb128 0x1f
 4603 0f99 00000000 		.long	.LASF349
 4604 0f9d 01       		.byte	0x1
 4605 0f9e 60       		.byte	0x60
 4606 0f9f B4000000 		.long	0xb4
 4607 0fa3 02       		.byte	0x2
 4608 0fa4 91       		.byte	0x91
 4609 0fa5 48       		.sleb128 -56
 4610 0fa6 20       		.uleb128 0x20
 4611 0fa7 6C637600 		.string	"lcv"
 4612 0fab 01       		.byte	0x1
 4613 0fac 69       		.byte	0x69
 4614 0fad 68050000 		.long	0x568
 4615 0fb1 02       		.byte	0x2
 4616 0fb2 91       		.byte	0x91
 4617 0fb3 60       		.sleb128 -32
 4618 0fb4 00       		.byte	0x0
 4619 0fb5 0B       		.uleb128 0xb
 4620 0fb6 68050000 		.long	0x568
 4621 0fba 1E       		.uleb128 0x1e
 4622 0fbb 00000000 		.long	.LASF351
 4623 0fbf 01       		.byte	0x1
 4624 0fc0 6F       		.byte	0x6f
 4625 0fc1 01       		.byte	0x1
 4626 0fc2 7B000000 		.long	0x7b
 4627 0fc6 00000000 		.quad	.LFB510
 4627      00000000 
 4628 0fce 00000000 		.quad	.LFE510
 4628      00000000 
 4629 0fd6 00000000 		.long	.LLST2
 4630 0fda FA0F0000 		.long	0xffa
 4631 0fde 1F       		.uleb128 0x1f
 4632 0fdf 00000000 		.long	.LASF352
 4633 0fe3 01       		.byte	0x1
 4634 0fe4 6F       		.byte	0x6f
 4635 0fe5 DE030000 		.long	0x3de
 4636 0fe9 02       		.byte	0x2
 4637 0fea 91       		.byte	0x91
 4638 0feb 58       		.sleb128 -40
 4639 0fec 20       		.uleb128 0x20
 4640 0fed 726300   		.string	"rc"
 4641 0ff0 01       		.byte	0x1
GAS LISTING /tmp/ccQ6OdaV.s 			page 110


 4642 0ff1 71       		.byte	0x71
 4643 0ff2 7B000000 		.long	0x7b
 4644 0ff6 02       		.byte	0x2
 4645 0ff7 91       		.byte	0x91
 4646 0ff8 6C       		.sleb128 -20
 4647 0ff9 00       		.byte	0x0
 4648 0ffa 1E       		.uleb128 0x1e
 4649 0ffb 00000000 		.long	.LASF353
 4650 0fff 01       		.byte	0x1
 4651 1000 7C       		.byte	0x7c
 4652 1001 01       		.byte	0x1
 4653 1002 7B000000 		.long	0x7b
 4654 1006 00000000 		.quad	.LFB511
 4654      00000000 
 4655 100e 00000000 		.quad	.LFE511
 4655      00000000 
 4656 1016 00000000 		.long	.LLST3
 4657 101a 7F100000 		.long	0x107f
 4658 101e 1F       		.uleb128 0x1f
 4659 101f 00000000 		.long	.LASF352
 4660 1023 01       		.byte	0x1
 4661 1024 7C       		.byte	0x7c
 4662 1025 DE030000 		.long	0x3de
 4663 1029 02       		.byte	0x2
 4664 102a 91       		.byte	0x91
 4665 102b 48       		.sleb128 -56
 4666 102c 1F       		.uleb128 0x1f
 4667 102d 00000000 		.long	.LASF354
 4668 1031 01       		.byte	0x1
 4669 1032 7D       		.byte	0x7d
 4670 1033 B6000000 		.long	0xb6
 4671 1037 02       		.byte	0x2
 4672 1038 91       		.byte	0x91
 4673 1039 40       		.sleb128 -64
 4674 103a 1F       		.uleb128 0x1f
 4675 103b 00000000 		.long	.LASF355
 4676 103f 01       		.byte	0x1
 4677 1040 7E       		.byte	0x7e
 4678 1041 62000000 		.long	0x62
 4679 1045 03       		.byte	0x3
 4680 1046 91       		.byte	0x91
 4681 1047 BC7F     		.sleb128 -68
 4682 1049 20       		.uleb128 0x20
 4683 104a 726300   		.string	"rc"
 4684 104d 01       		.byte	0x1
 4685 104e 80       		.byte	0x80
 4686 104f 7B000000 		.long	0x7b
 4687 1053 02       		.byte	0x2
 4688 1054 91       		.byte	0x91
 4689 1055 5C       		.sleb128 -36
 4690 1056 23       		.uleb128 0x23
 4691 1057 00000000 		.long	.LASF356
 4692 105b 8F100000 		.long	0x108f
 4693 105f 01       		.byte	0x1
 4694 1060 09       		.byte	0x9
 4695 1061 03       		.byte	0x3
 4696 1062 00000000 		.quad	__PRETTY_FUNCTION__.6562
GAS LISTING /tmp/ccQ6OdaV.s 			page 111


 4696      00000000 
 4697 106a 23       		.uleb128 0x23
 4698 106b 00000000 		.long	.LASF357
 4699 106f 94100000 		.long	0x1094
 4700 1073 01       		.byte	0x1
 4701 1074 09       		.byte	0x9
 4702 1075 03       		.byte	0x3
 4703 1076 00000000 		.quad	__func__.6564
 4703      00000000 
 4704 107e 00       		.byte	0x0
 4705 107f 16       		.uleb128 0x16
 4706 1080 C1000000 		.long	0xc1
 4707 1084 8F100000 		.long	0x108f
 4708 1088 17       		.uleb128 0x17
 4709 1089 B1000000 		.long	0xb1
 4710 108d 17       		.byte	0x17
 4711 108e 00       		.byte	0x0
 4712 108f 0B       		.uleb128 0xb
 4713 1090 7F100000 		.long	0x107f
 4714 1094 0B       		.uleb128 0xb
 4715 1095 7F100000 		.long	0x107f
 4716 1099 1E       		.uleb128 0x1e
 4717 109a 00000000 		.long	.LASF358
 4718 109e 01       		.byte	0x1
 4719 109f 95       		.byte	0x95
 4720 10a0 01       		.byte	0x1
 4721 10a1 7B000000 		.long	0x7b
 4722 10a5 00000000 		.quad	.LFB512
 4722      00000000 
 4723 10ad 00000000 		.quad	.LFE512
 4723      00000000 
 4724 10b5 00000000 		.long	.LLST4
 4725 10b9 1E110000 		.long	0x111e
 4726 10bd 1F       		.uleb128 0x1f
 4727 10be 00000000 		.long	.LASF352
 4728 10c2 01       		.byte	0x1
 4729 10c3 95       		.byte	0x95
 4730 10c4 DE030000 		.long	0x3de
 4731 10c8 02       		.byte	0x2
 4732 10c9 91       		.byte	0x91
 4733 10ca 48       		.sleb128 -56
 4734 10cb 1F       		.uleb128 0x1f
 4735 10cc 00000000 		.long	.LASF354
 4736 10d0 01       		.byte	0x1
 4737 10d1 96       		.byte	0x96
 4738 10d2 B6000000 		.long	0xb6
 4739 10d6 02       		.byte	0x2
 4740 10d7 91       		.byte	0x91
 4741 10d8 40       		.sleb128 -64
 4742 10d9 1F       		.uleb128 0x1f
 4743 10da 00000000 		.long	.LASF355
 4744 10de 01       		.byte	0x1
 4745 10df 97       		.byte	0x97
 4746 10e0 62000000 		.long	0x62
 4747 10e4 03       		.byte	0x3
 4748 10e5 91       		.byte	0x91
 4749 10e6 BC7F     		.sleb128 -68
GAS LISTING /tmp/ccQ6OdaV.s 			page 112


 4750 10e8 20       		.uleb128 0x20
 4751 10e9 726300   		.string	"rc"
 4752 10ec 01       		.byte	0x1
 4753 10ed 99       		.byte	0x99
 4754 10ee 7B000000 		.long	0x7b
 4755 10f2 02       		.byte	0x2
 4756 10f3 91       		.byte	0x91
 4757 10f4 5C       		.sleb128 -36
 4758 10f5 23       		.uleb128 0x23
 4759 10f6 00000000 		.long	.LASF356
 4760 10fa 1E110000 		.long	0x111e
 4761 10fe 01       		.byte	0x1
 4762 10ff 09       		.byte	0x9
 4763 1100 03       		.byte	0x3
 4764 1101 00000000 		.quad	__PRETTY_FUNCTION__.6586
 4764      00000000 
 4765 1109 23       		.uleb128 0x23
 4766 110a 00000000 		.long	.LASF357
 4767 110e 23110000 		.long	0x1123
 4768 1112 01       		.byte	0x1
 4769 1113 09       		.byte	0x9
 4770 1114 03       		.byte	0x3
 4771 1115 00000000 		.quad	__func__.6588
 4771      00000000 
 4772 111d 00       		.byte	0x0
 4773 111e 0B       		.uleb128 0xb
 4774 111f 7F100000 		.long	0x107f
 4775 1123 0B       		.uleb128 0xb
 4776 1124 7F100000 		.long	0x107f
 4777 1128 1E       		.uleb128 0x1e
 4778 1129 00000000 		.long	.LASF359
 4779 112d 01       		.byte	0x1
 4780 112e AF       		.byte	0xaf
 4781 112f 01       		.byte	0x1
 4782 1130 7B000000 		.long	0x7b
 4783 1134 00000000 		.quad	.LFB513
 4783      00000000 
 4784 113c 00000000 		.quad	.LFE513
 4784      00000000 
 4785 1144 00000000 		.long	.LLST5
 4786 1148 7D110000 		.long	0x117d
 4787 114c 1F       		.uleb128 0x1f
 4788 114d 00000000 		.long	.LASF352
 4789 1151 01       		.byte	0x1
 4790 1152 AF       		.byte	0xaf
 4791 1153 DE030000 		.long	0x3de
 4792 1157 02       		.byte	0x2
 4793 1158 91       		.byte	0x91
 4794 1159 68       		.sleb128 -24
 4795 115a 1F       		.uleb128 0x1f
 4796 115b 00000000 		.long	.LASF360
 4797 115f 01       		.byte	0x1
 4798 1160 B0       		.byte	0xb0
 4799 1161 1F040000 		.long	0x41f
 4800 1165 02       		.byte	0x2
 4801 1166 91       		.byte	0x91
 4802 1167 60       		.sleb128 -32
GAS LISTING /tmp/ccQ6OdaV.s 			page 113


 4803 1168 23       		.uleb128 0x23
 4804 1169 00000000 		.long	.LASF356
 4805 116d 8D110000 		.long	0x118d
 4806 1171 01       		.byte	0x1
 4807 1172 09       		.byte	0x9
 4808 1173 03       		.byte	0x3
 4809 1174 00000000 		.quad	__PRETTY_FUNCTION__.6608
 4809      00000000 
 4810 117c 00       		.byte	0x0
 4811 117d 16       		.uleb128 0x16
 4812 117e C1000000 		.long	0xc1
 4813 1182 8D110000 		.long	0x118d
 4814 1186 17       		.uleb128 0x17
 4815 1187 B1000000 		.long	0xb1
 4816 118b 18       		.byte	0x18
 4817 118c 00       		.byte	0x0
 4818 118d 0B       		.uleb128 0xb
 4819 118e 7D110000 		.long	0x117d
 4820 1192 1E       		.uleb128 0x1e
 4821 1193 00000000 		.long	.LASF361
 4822 1197 01       		.byte	0x1
 4823 1198 BC       		.byte	0xbc
 4824 1199 01       		.byte	0x1
 4825 119a 7B000000 		.long	0x7b
 4826 119e 00000000 		.quad	.LFB514
 4826      00000000 
 4827 11a6 00000000 		.quad	.LFE514
 4827      00000000 
 4828 11ae 00000000 		.long	.LLST6
 4829 11b2 E7110000 		.long	0x11e7
 4830 11b6 1F       		.uleb128 0x1f
 4831 11b7 00000000 		.long	.LASF352
 4832 11bb 01       		.byte	0x1
 4833 11bc BC       		.byte	0xbc
 4834 11bd DE030000 		.long	0x3de
 4835 11c1 02       		.byte	0x2
 4836 11c2 91       		.byte	0x91
 4837 11c3 68       		.sleb128 -24
 4838 11c4 1F       		.uleb128 0x1f
 4839 11c5 00000000 		.long	.LASF360
 4840 11c9 01       		.byte	0x1
 4841 11ca BD       		.byte	0xbd
 4842 11cb 1F040000 		.long	0x41f
 4843 11cf 02       		.byte	0x2
 4844 11d0 91       		.byte	0x91
 4845 11d1 60       		.sleb128 -32
 4846 11d2 23       		.uleb128 0x23
 4847 11d3 00000000 		.long	.LASF356
 4848 11d7 E7110000 		.long	0x11e7
 4849 11db 01       		.byte	0x1
 4850 11dc 09       		.byte	0x9
 4851 11dd 03       		.byte	0x3
 4852 11de 00000000 		.quad	__PRETTY_FUNCTION__.6621
 4852      00000000 
 4853 11e6 00       		.byte	0x0
 4854 11e7 0B       		.uleb128 0xb
 4855 11e8 7D110000 		.long	0x117d
GAS LISTING /tmp/ccQ6OdaV.s 			page 114


 4856 11ec 1E       		.uleb128 0x1e
 4857 11ed 00000000 		.long	.LASF362
 4858 11f1 01       		.byte	0x1
 4859 11f2 C9       		.byte	0xc9
 4860 11f3 01       		.byte	0x1
 4861 11f4 7B000000 		.long	0x7b
 4862 11f8 00000000 		.quad	.LFB515
 4862      00000000 
 4863 1200 00000000 		.quad	.LFE515
 4863      00000000 
 4864 1208 00000000 		.long	.LLST7
 4865 120c 41120000 		.long	0x1241
 4866 1210 1F       		.uleb128 0x1f
 4867 1211 00000000 		.long	.LASF352
 4868 1215 01       		.byte	0x1
 4869 1216 C9       		.byte	0xc9
 4870 1217 DE030000 		.long	0x3de
 4871 121b 02       		.byte	0x2
 4872 121c 91       		.byte	0x91
 4873 121d 68       		.sleb128 -24
 4874 121e 1F       		.uleb128 0x1f
 4875 121f 00000000 		.long	.LASF363
 4876 1223 01       		.byte	0x1
 4877 1224 CA       		.byte	0xca
 4878 1225 F7010000 		.long	0x1f7
 4879 1229 02       		.byte	0x2
 4880 122a 91       		.byte	0x91
 4881 122b 60       		.sleb128 -32
 4882 122c 23       		.uleb128 0x23
 4883 122d 00000000 		.long	.LASF356
 4884 1231 41120000 		.long	0x1241
 4885 1235 01       		.byte	0x1
 4886 1236 09       		.byte	0x9
 4887 1237 03       		.byte	0x3
 4888 1238 00000000 		.quad	__PRETTY_FUNCTION__.6634
 4888      00000000 
 4889 1240 00       		.byte	0x0
 4890 1241 0B       		.uleb128 0xb
 4891 1242 35050000 		.long	0x535
 4892 1246 1E       		.uleb128 0x1e
 4893 1247 00000000 		.long	.LASF364
 4894 124b 01       		.byte	0x1
 4895 124c D6       		.byte	0xd6
 4896 124d 01       		.byte	0x1
 4897 124e 7B000000 		.long	0x7b
 4898 1252 00000000 		.quad	.LFB516
 4898      00000000 
 4899 125a 00000000 		.quad	.LFE516
 4899      00000000 
 4900 1262 00000000 		.long	.LLST8
 4901 1266 9B120000 		.long	0x129b
 4902 126a 1F       		.uleb128 0x1f
 4903 126b 00000000 		.long	.LASF352
 4904 126f 01       		.byte	0x1
 4905 1270 D6       		.byte	0xd6
 4906 1271 DE030000 		.long	0x3de
 4907 1275 02       		.byte	0x2
GAS LISTING /tmp/ccQ6OdaV.s 			page 115


 4908 1276 91       		.byte	0x91
 4909 1277 68       		.sleb128 -24
 4910 1278 1F       		.uleb128 0x1f
 4911 1279 00000000 		.long	.LASF363
 4912 127d 01       		.byte	0x1
 4913 127e D7       		.byte	0xd7
 4914 127f F7010000 		.long	0x1f7
 4915 1283 02       		.byte	0x2
 4916 1284 91       		.byte	0x91
 4917 1285 60       		.sleb128 -32
 4918 1286 23       		.uleb128 0x23
 4919 1287 00000000 		.long	.LASF356
 4920 128b 9B120000 		.long	0x129b
 4921 128f 01       		.byte	0x1
 4922 1290 09       		.byte	0x9
 4923 1291 03       		.byte	0x3
 4924 1292 00000000 		.quad	__PRETTY_FUNCTION__.6644
 4924      00000000 
 4925 129a 00       		.byte	0x0
 4926 129b 0B       		.uleb128 0xb
 4927 129c 35050000 		.long	0x535
 4928 12a0 1E       		.uleb128 0x1e
 4929 12a1 00000000 		.long	.LASF365
 4930 12a5 01       		.byte	0x1
 4931 12a6 E2       		.byte	0xe2
 4932 12a7 01       		.byte	0x1
 4933 12a8 68050000 		.long	0x568
 4934 12ac 00000000 		.quad	.LFB517
 4934      00000000 
 4935 12b4 00000000 		.quad	.LFE517
 4935      00000000 
 4936 12bc 00000000 		.long	.LLST9
 4937 12c0 DF120000 		.long	0x12df
 4938 12c4 1F       		.uleb128 0x1f
 4939 12c5 00000000 		.long	.LASF352
 4940 12c9 01       		.byte	0x1
 4941 12ca E2       		.byte	0xe2
 4942 12cb 61040000 		.long	0x461
 4943 12cf 02       		.byte	0x2
 4944 12d0 91       		.byte	0x91
 4945 12d1 68       		.sleb128 -24
 4946 12d2 22       		.uleb128 0x22
 4947 12d3 637600   		.string	"cv"
 4948 12d6 01       		.byte	0x1
 4949 12d7 E3       		.byte	0xe3
 4950 12d8 68050000 		.long	0x568
 4951 12dc 01       		.byte	0x1
 4952 12dd 61       		.byte	0x61
 4953 12de 00       		.byte	0x0
 4954 12df 1E       		.uleb128 0x1e
 4955 12e0 00000000 		.long	.LASF366
 4956 12e4 01       		.byte	0x1
 4957 12e5 E9       		.byte	0xe9
 4958 12e6 01       		.byte	0x1
 4959 12e7 68050000 		.long	0x568
 4960 12eb 00000000 		.quad	.LFB518
 4960      00000000 
GAS LISTING /tmp/ccQ6OdaV.s 			page 116


 4961 12f3 00000000 		.quad	.LFE518
 4961      00000000 
 4962 12fb 00000000 		.long	.LLST10
 4963 12ff 1E130000 		.long	0x131e
 4964 1303 1F       		.uleb128 0x1f
 4965 1304 00000000 		.long	.LASF352
 4966 1308 01       		.byte	0x1
 4967 1309 E9       		.byte	0xe9
 4968 130a 61040000 		.long	0x461
 4969 130e 02       		.byte	0x2
 4970 130f 91       		.byte	0x91
 4971 1310 68       		.sleb128 -24
 4972 1311 22       		.uleb128 0x22
 4973 1312 637600   		.string	"cv"
 4974 1315 01       		.byte	0x1
 4975 1316 EA       		.byte	0xea
 4976 1317 68050000 		.long	0x568
 4977 131b 01       		.byte	0x1
 4978 131c 61       		.byte	0x61
 4979 131d 00       		.byte	0x0
 4980 131e 1E       		.uleb128 0x1e
 4981 131f 00000000 		.long	.LASF367
 4982 1323 01       		.byte	0x1
 4983 1324 F0       		.byte	0xf0
 4984 1325 01       		.byte	0x1
 4985 1326 7B000000 		.long	0x7b
 4986 132a 00000000 		.quad	.LFB519
 4986      00000000 
 4987 1332 00000000 		.quad	.LFE519
 4987      00000000 
 4988 133a 00000000 		.long	.LLST11
 4989 133e 79130000 		.long	0x1379
 4990 1342 1F       		.uleb128 0x1f
 4991 1343 00000000 		.long	.LASF352
 4992 1347 01       		.byte	0x1
 4993 1348 F0       		.byte	0xf0
 4994 1349 61040000 		.long	0x461
 4995 134d 02       		.byte	0x2
 4996 134e 91       		.byte	0x91
 4997 134f 58       		.sleb128 -40
 4998 1350 22       		.uleb128 0x22
 4999 1351 696E00   		.string	"in"
 5000 1354 01       		.byte	0x1
 5001 1355 F1       		.byte	0xf1
 5002 1356 1F040000 		.long	0x41f
 5003 135a 02       		.byte	0x2
 5004 135b 91       		.byte	0x91
 5005 135c 50       		.sleb128 -48
 5006 135d 22       		.uleb128 0x22
 5007 135e 6F757400 		.string	"out"
 5008 1362 01       		.byte	0x1
 5009 1363 F1       		.byte	0xf1
 5010 1364 B4000000 		.long	0xb4
 5011 1368 02       		.byte	0x2
 5012 1369 91       		.byte	0x91
 5013 136a 48       		.sleb128 -56
 5014 136b 20       		.uleb128 0x20
GAS LISTING /tmp/ccQ6OdaV.s 			page 117


 5015 136c 637600   		.string	"cv"
 5016 136f 01       		.byte	0x1
 5017 1370 F3       		.byte	0xf3
 5018 1371 68050000 		.long	0x568
 5019 1375 02       		.byte	0x2
 5020 1376 91       		.byte	0x91
 5021 1377 60       		.sleb128 -32
 5022 1378 00       		.byte	0x0
 5023 1379 1E       		.uleb128 0x1e
 5024 137a 00000000 		.long	.LASF368
 5025 137e 01       		.byte	0x1
 5026 137f FC       		.byte	0xfc
 5027 1380 01       		.byte	0x1
 5028 1381 7B000000 		.long	0x7b
 5029 1385 00000000 		.quad	.LFB520
 5029      00000000 
 5030 138d 00000000 		.quad	.LFE520
 5030      00000000 
 5031 1395 00000000 		.long	.LLST12
 5032 1399 D4130000 		.long	0x13d4
 5033 139d 1F       		.uleb128 0x1f
 5034 139e 00000000 		.long	.LASF352
 5035 13a2 01       		.byte	0x1
 5036 13a3 FC       		.byte	0xfc
 5037 13a4 61040000 		.long	0x461
 5038 13a8 02       		.byte	0x2
 5039 13a9 91       		.byte	0x91
 5040 13aa 58       		.sleb128 -40
 5041 13ab 22       		.uleb128 0x22
 5042 13ac 696E00   		.string	"in"
 5043 13af 01       		.byte	0x1
 5044 13b0 FD       		.byte	0xfd
 5045 13b1 1F040000 		.long	0x41f
 5046 13b5 02       		.byte	0x2
 5047 13b6 91       		.byte	0x91
 5048 13b7 50       		.sleb128 -48
 5049 13b8 22       		.uleb128 0x22
 5050 13b9 6F757400 		.string	"out"
 5051 13bd 01       		.byte	0x1
 5052 13be FD       		.byte	0xfd
 5053 13bf B4000000 		.long	0xb4
 5054 13c3 02       		.byte	0x2
 5055 13c4 91       		.byte	0x91
 5056 13c5 48       		.sleb128 -56
 5057 13c6 20       		.uleb128 0x20
 5058 13c7 637600   		.string	"cv"
 5059 13ca 01       		.byte	0x1
 5060 13cb FF       		.byte	0xff
 5061 13cc 68050000 		.long	0x568
 5062 13d0 02       		.byte	0x2
 5063 13d1 91       		.byte	0x91
 5064 13d2 60       		.sleb128 -32
 5065 13d3 00       		.byte	0x0
 5066 13d4 24       		.uleb128 0x24
 5067 13d5 00000000 		.long	.LASF369
 5068 13d9 01       		.byte	0x1
 5069 13da 0801     		.value	0x108
GAS LISTING /tmp/ccQ6OdaV.s 			page 118


 5070 13dc 01       		.byte	0x1
 5071 13dd 7B000000 		.long	0x7b
 5072 13e1 00000000 		.quad	.LFB521
 5072      00000000 
 5073 13e9 00000000 		.quad	.LFE521
 5073      00000000 
 5074 13f1 00000000 		.long	.LLST13
 5075 13f5 5C140000 		.long	0x145c
 5076 13f9 25       		.uleb128 0x25
 5077 13fa 00000000 		.long	.LASF352
 5078 13fe 01       		.byte	0x1
 5079 13ff 0801     		.value	0x108
 5080 1401 61040000 		.long	0x461
 5081 1405 02       		.byte	0x2
 5082 1406 91       		.byte	0x91
 5083 1407 58       		.sleb128 -40
 5084 1408 26       		.uleb128 0x26
 5085 1409 696E00   		.string	"in"
 5086 140c 01       		.byte	0x1
 5087 140d 0801     		.value	0x108
 5088 140f 1F040000 		.long	0x41f
 5089 1413 02       		.byte	0x2
 5090 1414 91       		.byte	0x91
 5091 1415 50       		.sleb128 -48
 5092 1416 26       		.uleb128 0x26
 5093 1417 6F757400 		.string	"out"
 5094 141b 01       		.byte	0x1
 5095 141c 0801     		.value	0x108
 5096 141e B4000000 		.long	0xb4
 5097 1422 02       		.byte	0x2
 5098 1423 91       		.byte	0x91
 5099 1424 48       		.sleb128 -56
 5100 1425 27       		.uleb128 0x27
 5101 1426 726300   		.string	"rc"
 5102 1429 01       		.byte	0x1
 5103 142a 0A01     		.value	0x10a
 5104 142c 7B000000 		.long	0x7b
 5105 1430 02       		.byte	0x2
 5106 1431 91       		.byte	0x91
 5107 1432 6C       		.sleb128 -20
 5108 1433 23       		.uleb128 0x23
 5109 1434 00000000 		.long	.LASF356
 5110 1438 6C140000 		.long	0x146c
 5111 143c 01       		.byte	0x1
 5112 143d 09       		.byte	0x9
 5113 143e 03       		.byte	0x3
 5114 143f 00000000 		.quad	__PRETTY_FUNCTION__.6693
 5114      00000000 
 5115 1447 23       		.uleb128 0x23
 5116 1448 00000000 		.long	.LASF357
 5117 144c 71140000 		.long	0x1471
 5118 1450 01       		.byte	0x1
 5119 1451 09       		.byte	0x9
 5120 1452 03       		.byte	0x3
 5121 1453 00000000 		.quad	__func__.6694
 5121      00000000 
 5122 145b 00       		.byte	0x0
GAS LISTING /tmp/ccQ6OdaV.s 			page 119


 5123 145c 16       		.uleb128 0x16
 5124 145d C1000000 		.long	0xc1
 5125 1461 6C140000 		.long	0x146c
 5126 1465 17       		.uleb128 0x17
 5127 1466 B1000000 		.long	0xb1
 5128 146a 11       		.byte	0x11
 5129 146b 00       		.byte	0x0
 5130 146c 0B       		.uleb128 0xb
 5131 146d 5C140000 		.long	0x145c
 5132 1471 0B       		.uleb128 0xb
 5133 1472 5C140000 		.long	0x145c
 5134 1476 24       		.uleb128 0x24
 5135 1477 00000000 		.long	.LASF370
 5136 147b 01       		.byte	0x1
 5137 147c 1C01     		.value	0x11c
 5138 147e 01       		.byte	0x1
 5139 147f 7B000000 		.long	0x7b
 5140 1483 00000000 		.quad	.LFB522
 5140      00000000 
 5141 148b 00000000 		.quad	.LFE522
 5141      00000000 
 5142 1493 00000000 		.long	.LLST14
 5143 1497 FE140000 		.long	0x14fe
 5144 149b 25       		.uleb128 0x25
 5145 149c 00000000 		.long	.LASF352
 5146 14a0 01       		.byte	0x1
 5147 14a1 1C01     		.value	0x11c
 5148 14a3 61040000 		.long	0x461
 5149 14a7 02       		.byte	0x2
 5150 14a8 91       		.byte	0x91
 5151 14a9 58       		.sleb128 -40
 5152 14aa 26       		.uleb128 0x26
 5153 14ab 696E00   		.string	"in"
 5154 14ae 01       		.byte	0x1
 5155 14af 1C01     		.value	0x11c
 5156 14b1 1F040000 		.long	0x41f
 5157 14b5 02       		.byte	0x2
 5158 14b6 91       		.byte	0x91
 5159 14b7 50       		.sleb128 -48
 5160 14b8 26       		.uleb128 0x26
 5161 14b9 6F757400 		.string	"out"
 5162 14bd 01       		.byte	0x1
 5163 14be 1C01     		.value	0x11c
 5164 14c0 B4000000 		.long	0xb4
 5165 14c4 02       		.byte	0x2
 5166 14c5 91       		.byte	0x91
 5167 14c6 48       		.sleb128 -56
 5168 14c7 27       		.uleb128 0x27
 5169 14c8 726300   		.string	"rc"
 5170 14cb 01       		.byte	0x1
 5171 14cc 1E01     		.value	0x11e
 5172 14ce 7B000000 		.long	0x7b
 5173 14d2 02       		.byte	0x2
 5174 14d3 91       		.byte	0x91
 5175 14d4 6C       		.sleb128 -20
 5176 14d5 23       		.uleb128 0x23
 5177 14d6 00000000 		.long	.LASF356
GAS LISTING /tmp/ccQ6OdaV.s 			page 120


 5178 14da FE140000 		.long	0x14fe
 5179 14de 01       		.byte	0x1
 5180 14df 09       		.byte	0x9
 5181 14e0 03       		.byte	0x3
 5182 14e1 00000000 		.quad	__PRETTY_FUNCTION__.6709
 5182      00000000 
 5183 14e9 23       		.uleb128 0x23
 5184 14ea 00000000 		.long	.LASF357
 5185 14ee 03150000 		.long	0x1503
 5186 14f2 01       		.byte	0x1
 5187 14f3 09       		.byte	0x9
 5188 14f4 03       		.byte	0x3
 5189 14f5 00000000 		.quad	__func__.6710
 5189      00000000 
 5190 14fd 00       		.byte	0x0
 5191 14fe 0B       		.uleb128 0xb
 5192 14ff 5C140000 		.long	0x145c
 5193 1503 0B       		.uleb128 0xb
 5194 1504 5C140000 		.long	0x145c
 5195 1508 24       		.uleb128 0x24
 5196 1509 00000000 		.long	.LASF371
 5197 150d 01       		.byte	0x1
 5198 150e 5A01     		.value	0x15a
 5199 1510 01       		.byte	0x1
 5200 1511 7B000000 		.long	0x7b
 5201 1515 00000000 		.quad	.LFB523
 5201      00000000 
 5202 151d 00000000 		.quad	.LFE523
 5202      00000000 
 5203 1525 00000000 		.long	.LLST15
 5204 1529 87150000 		.long	0x1587
 5205 152d 25       		.uleb128 0x25
 5206 152e 00000000 		.long	.LASF352
 5207 1532 01       		.byte	0x1
 5208 1533 5A01     		.value	0x15a
 5209 1535 61040000 		.long	0x461
 5210 1539 02       		.byte	0x2
 5211 153a 91       		.byte	0x91
 5212 153b 58       		.sleb128 -40
 5213 153c 26       		.uleb128 0x26
 5214 153d 696E00   		.string	"in"
 5215 1540 01       		.byte	0x1
 5216 1541 5A01     		.value	0x15a
 5217 1543 1F040000 		.long	0x41f
 5218 1547 02       		.byte	0x2
 5219 1548 91       		.byte	0x91
 5220 1549 50       		.sleb128 -48
 5221 154a 26       		.uleb128 0x26
 5222 154b 6F757400 		.string	"out"
 5223 154f 01       		.byte	0x1
 5224 1550 5A01     		.value	0x15a
 5225 1552 B4000000 		.long	0xb4
 5226 1556 02       		.byte	0x2
 5227 1557 91       		.byte	0x91
 5228 1558 48       		.sleb128 -56
 5229 1559 25       		.uleb128 0x25
 5230 155a 00000000 		.long	.LASF372
GAS LISTING /tmp/ccQ6OdaV.s 			page 121


 5231 155e 01       		.byte	0x1
 5232 155f 5A01     		.value	0x15a
 5233 1561 62000000 		.long	0x62
 5234 1565 02       		.byte	0x2
 5235 1566 91       		.byte	0x91
 5236 1567 44       		.sleb128 -60
 5237 1568 27       		.uleb128 0x27
 5238 1569 70696E00 		.string	"pin"
 5239 156d 01       		.byte	0x1
 5240 156e 5C01     		.value	0x15c
 5241 1570 87150000 		.long	0x1587
 5242 1574 02       		.byte	0x2
 5243 1575 91       		.byte	0x91
 5244 1576 60       		.sleb128 -32
 5245 1577 28       		.uleb128 0x28
 5246 1578 00000000 		.long	.LASF373
 5247 157c 01       		.byte	0x1
 5248 157d 5D01     		.value	0x15d
 5249 157f 92150000 		.long	0x1592
 5250 1583 02       		.byte	0x2
 5251 1584 91       		.byte	0x91
 5252 1585 68       		.sleb128 -24
 5253 1586 00       		.byte	0x0
 5254 1587 0A       		.uleb128 0xa
 5255 1588 08       		.byte	0x8
 5256 1589 8D150000 		.long	0x158d
 5257 158d 0B       		.uleb128 0xb
 5258 158e 49000000 		.long	0x49
 5259 1592 0A       		.uleb128 0xa
 5260 1593 08       		.byte	0x8
 5261 1594 49000000 		.long	0x49
 5262 1598 24       		.uleb128 0x24
 5263 1599 00000000 		.long	.LASF374
 5264 159d 01       		.byte	0x1
 5265 159e 6A01     		.value	0x16a
 5266 15a0 01       		.byte	0x1
 5267 15a1 7B000000 		.long	0x7b
 5268 15a5 00000000 		.quad	.LFB524
 5268      00000000 
 5269 15ad 00000000 		.quad	.LFE524
 5269      00000000 
 5270 15b5 00000000 		.long	.LLST16
 5271 15b9 17160000 		.long	0x1617
 5272 15bd 25       		.uleb128 0x25
 5273 15be 00000000 		.long	.LASF352
 5274 15c2 01       		.byte	0x1
 5275 15c3 6A01     		.value	0x16a
 5276 15c5 61040000 		.long	0x461
 5277 15c9 02       		.byte	0x2
 5278 15ca 91       		.byte	0x91
 5279 15cb 58       		.sleb128 -40
 5280 15cc 26       		.uleb128 0x26
 5281 15cd 696E00   		.string	"in"
 5282 15d0 01       		.byte	0x1
 5283 15d1 6A01     		.value	0x16a
 5284 15d3 1F040000 		.long	0x41f
 5285 15d7 02       		.byte	0x2
GAS LISTING /tmp/ccQ6OdaV.s 			page 122


 5286 15d8 91       		.byte	0x91
 5287 15d9 50       		.sleb128 -48
 5288 15da 26       		.uleb128 0x26
 5289 15db 6F757400 		.string	"out"
 5290 15df 01       		.byte	0x1
 5291 15e0 6A01     		.value	0x16a
 5292 15e2 B4000000 		.long	0xb4
 5293 15e6 02       		.byte	0x2
 5294 15e7 91       		.byte	0x91
 5295 15e8 48       		.sleb128 -56
 5296 15e9 25       		.uleb128 0x25
 5297 15ea 00000000 		.long	.LASF372
 5298 15ee 01       		.byte	0x1
 5299 15ef 6A01     		.value	0x16a
 5300 15f1 62000000 		.long	0x62
 5301 15f5 02       		.byte	0x2
 5302 15f6 91       		.byte	0x91
 5303 15f7 44       		.sleb128 -60
 5304 15f8 27       		.uleb128 0x27
 5305 15f9 70696E00 		.string	"pin"
 5306 15fd 01       		.byte	0x1
 5307 15fe 6C01     		.value	0x16c
 5308 1600 87150000 		.long	0x1587
 5309 1604 02       		.byte	0x2
 5310 1605 91       		.byte	0x91
 5311 1606 60       		.sleb128 -32
 5312 1607 28       		.uleb128 0x28
 5313 1608 00000000 		.long	.LASF373
 5314 160c 01       		.byte	0x1
 5315 160d 6D01     		.value	0x16d
 5316 160f 92150000 		.long	0x1592
 5317 1613 02       		.byte	0x2
 5318 1614 91       		.byte	0x91
 5319 1615 68       		.sleb128 -24
 5320 1616 00       		.byte	0x0
 5321 1617 24       		.uleb128 0x24
 5322 1618 00000000 		.long	.LASF375
 5323 161c 01       		.byte	0x1
 5324 161d 8001     		.value	0x180
 5325 161f 01       		.byte	0x1
 5326 1620 7B000000 		.long	0x7b
 5327 1624 00000000 		.quad	.LFB525
 5327      00000000 
 5328 162c 00000000 		.quad	.LFE525
 5328      00000000 
 5329 1634 00000000 		.long	.LLST17
 5330 1638 B7160000 		.long	0x16b7
 5331 163c 25       		.uleb128 0x25
 5332 163d 00000000 		.long	.LASF352
 5333 1641 01       		.byte	0x1
 5334 1642 8001     		.value	0x180
 5335 1644 DE030000 		.long	0x3de
 5336 1648 03       		.byte	0x3
 5337 1649 91       		.byte	0x91
 5338 164a B87F     		.sleb128 -72
 5339 164c 26       		.uleb128 0x26
 5340 164d 696E00   		.string	"in"
GAS LISTING /tmp/ccQ6OdaV.s 			page 123


 5341 1650 01       		.byte	0x1
 5342 1651 8001     		.value	0x180
 5343 1653 1F040000 		.long	0x41f
 5344 1657 03       		.byte	0x3
 5345 1658 91       		.byte	0x91
 5346 1659 B07F     		.sleb128 -80
 5347 165b 26       		.uleb128 0x26
 5348 165c 6F757400 		.string	"out"
 5349 1660 01       		.byte	0x1
 5350 1661 8001     		.value	0x180
 5351 1663 B4000000 		.long	0xb4
 5352 1667 03       		.byte	0x3
 5353 1668 91       		.byte	0x91
 5354 1669 A87F     		.sleb128 -88
 5355 166b 25       		.uleb128 0x25
 5356 166c 00000000 		.long	.LASF372
 5357 1670 01       		.byte	0x1
 5358 1671 8001     		.value	0x180
 5359 1673 62000000 		.long	0x62
 5360 1677 03       		.byte	0x3
 5361 1678 91       		.byte	0x91
 5362 1679 A47F     		.sleb128 -92
 5363 167b 27       		.uleb128 0x27
 5364 167c 637600   		.string	"cv"
 5365 167f 01       		.byte	0x1
 5366 1680 8201     		.value	0x182
 5367 1682 68050000 		.long	0x568
 5368 1686 02       		.byte	0x2
 5369 1687 91       		.byte	0x91
 5370 1688 40       		.sleb128 -64
 5371 1689 28       		.uleb128 0x28
 5372 168a 00000000 		.long	.LASF360
 5373 168e 01       		.byte	0x1
 5374 168f 8301     		.value	0x183
 5375 1691 68050000 		.long	0x568
 5376 1695 02       		.byte	0x2
 5377 1696 91       		.byte	0x91
 5378 1697 50       		.sleb128 -48
 5379 1698 27       		.uleb128 0x27
 5380 1699 70696E00 		.string	"pin"
 5381 169d 01       		.byte	0x1
 5382 169e 8401     		.value	0x184
 5383 16a0 87150000 		.long	0x1587
 5384 16a4 02       		.byte	0x2
 5385 16a5 91       		.byte	0x91
 5386 16a6 60       		.sleb128 -32
 5387 16a7 28       		.uleb128 0x28
 5388 16a8 00000000 		.long	.LASF373
 5389 16ac 01       		.byte	0x1
 5390 16ad 8501     		.value	0x185
 5391 16af 92150000 		.long	0x1592
 5392 16b3 02       		.byte	0x2
 5393 16b4 91       		.byte	0x91
 5394 16b5 68       		.sleb128 -24
 5395 16b6 00       		.byte	0x0
 5396 16b7 24       		.uleb128 0x24
 5397 16b8 00000000 		.long	.LASF376
GAS LISTING /tmp/ccQ6OdaV.s 			page 124


 5398 16bc 01       		.byte	0x1
 5399 16bd A201     		.value	0x1a2
 5400 16bf 01       		.byte	0x1
 5401 16c0 7B000000 		.long	0x7b
 5402 16c4 00000000 		.quad	.LFB526
 5402      00000000 
 5403 16cc 00000000 		.quad	.LFE526
 5403      00000000 
 5404 16d4 00000000 		.long	.LLST18
 5405 16d8 79170000 		.long	0x1779
 5406 16dc 25       		.uleb128 0x25
 5407 16dd 00000000 		.long	.LASF352
 5408 16e1 01       		.byte	0x1
 5409 16e2 A201     		.value	0x1a2
 5410 16e4 DE030000 		.long	0x3de
 5411 16e8 03       		.byte	0x3
 5412 16e9 91       		.byte	0x91
 5413 16ea A87F     		.sleb128 -88
 5414 16ec 26       		.uleb128 0x26
 5415 16ed 696E00   		.string	"in"
 5416 16f0 01       		.byte	0x1
 5417 16f1 A201     		.value	0x1a2
 5418 16f3 1F040000 		.long	0x41f
 5419 16f7 03       		.byte	0x3
 5420 16f8 91       		.byte	0x91
 5421 16f9 A07F     		.sleb128 -96
 5422 16fb 26       		.uleb128 0x26
 5423 16fc 6F757400 		.string	"out"
 5424 1700 01       		.byte	0x1
 5425 1701 A201     		.value	0x1a2
 5426 1703 B4000000 		.long	0xb4
 5427 1707 03       		.byte	0x3
 5428 1708 91       		.byte	0x91
 5429 1709 987F     		.sleb128 -104
 5430 170b 25       		.uleb128 0x25
 5431 170c 00000000 		.long	.LASF372
 5432 1710 01       		.byte	0x1
 5433 1711 A201     		.value	0x1a2
 5434 1713 62000000 		.long	0x62
 5435 1717 03       		.byte	0x3
 5436 1718 91       		.byte	0x91
 5437 1719 947F     		.sleb128 -108
 5438 171b 27       		.uleb128 0x27
 5439 171c 637600   		.string	"cv"
 5440 171f 01       		.byte	0x1
 5441 1720 A401     		.value	0x1a4
 5442 1722 68050000 		.long	0x568
 5443 1726 03       		.byte	0x3
 5444 1727 91       		.byte	0x91
 5445 1728 B07F     		.sleb128 -80
 5446 172a 28       		.uleb128 0x28
 5447 172b 00000000 		.long	.LASF360
 5448 172f 01       		.byte	0x1
 5449 1730 A501     		.value	0x1a5
 5450 1732 68050000 		.long	0x568
 5451 1736 02       		.byte	0x2
 5452 1737 91       		.byte	0x91
GAS LISTING /tmp/ccQ6OdaV.s 			page 125


 5453 1738 40       		.sleb128 -64
 5454 1739 27       		.uleb128 0x27
 5455 173a 70696E00 		.string	"pin"
 5456 173e 01       		.byte	0x1
 5457 173f A601     		.value	0x1a6
 5458 1741 87150000 		.long	0x1587
 5459 1745 02       		.byte	0x2
 5460 1746 91       		.byte	0x91
 5461 1747 50       		.sleb128 -48
 5462 1748 28       		.uleb128 0x28
 5463 1749 00000000 		.long	.LASF373
 5464 174d 01       		.byte	0x1
 5465 174e A701     		.value	0x1a7
 5466 1750 92150000 		.long	0x1592
 5467 1754 02       		.byte	0x2
 5468 1755 91       		.byte	0x91
 5469 1756 58       		.sleb128 -40
 5470 1757 29       		.uleb128 0x29
 5471 1758 00000000 		.quad	.LBB2
 5471      00000000 
 5472 1760 00000000 		.quad	.LBE2
 5472      00000000 
 5473 1768 28       		.uleb128 0x28
 5474 1769 00000000 		.long	.LASF377
 5475 176d 01       		.byte	0x1
 5476 176e AF01     		.value	0x1af
 5477 1770 68050000 		.long	0x568
 5478 1774 02       		.byte	0x2
 5479 1775 91       		.byte	0x91
 5480 1776 60       		.sleb128 -32
 5481 1777 00       		.byte	0x0
 5482 1778 00       		.byte	0x0
 5483 1779 24       		.uleb128 0x24
 5484 177a 00000000 		.long	.LASF378
 5485 177e 01       		.byte	0x1
 5486 177f C801     		.value	0x1c8
 5487 1781 01       		.byte	0x1
 5488 1782 7B000000 		.long	0x7b
 5489 1786 00000000 		.quad	.LFB527
 5489      00000000 
 5490 178e 00000000 		.quad	.LFE527
 5490      00000000 
 5491 1796 00000000 		.long	.LLST19
 5492 179a 3B180000 		.long	0x183b
 5493 179e 25       		.uleb128 0x25
 5494 179f 00000000 		.long	.LASF352
 5495 17a3 01       		.byte	0x1
 5496 17a4 C801     		.value	0x1c8
 5497 17a6 DE030000 		.long	0x3de
 5498 17aa 03       		.byte	0x3
 5499 17ab 91       		.byte	0x91
 5500 17ac A87F     		.sleb128 -88
 5501 17ae 26       		.uleb128 0x26
 5502 17af 696E00   		.string	"in"
 5503 17b2 01       		.byte	0x1
 5504 17b3 C801     		.value	0x1c8
 5505 17b5 1F040000 		.long	0x41f
GAS LISTING /tmp/ccQ6OdaV.s 			page 126


 5506 17b9 03       		.byte	0x3
 5507 17ba 91       		.byte	0x91
 5508 17bb A07F     		.sleb128 -96
 5509 17bd 26       		.uleb128 0x26
 5510 17be 6F757400 		.string	"out"
 5511 17c2 01       		.byte	0x1
 5512 17c3 C801     		.value	0x1c8
 5513 17c5 B4000000 		.long	0xb4
 5514 17c9 03       		.byte	0x3
 5515 17ca 91       		.byte	0x91
 5516 17cb 987F     		.sleb128 -104
 5517 17cd 25       		.uleb128 0x25
 5518 17ce 00000000 		.long	.LASF372
 5519 17d2 01       		.byte	0x1
 5520 17d3 C801     		.value	0x1c8
 5521 17d5 62000000 		.long	0x62
 5522 17d9 03       		.byte	0x3
 5523 17da 91       		.byte	0x91
 5524 17db 947F     		.sleb128 -108
 5525 17dd 27       		.uleb128 0x27
 5526 17de 637600   		.string	"cv"
 5527 17e1 01       		.byte	0x1
 5528 17e2 CB01     		.value	0x1cb
 5529 17e4 68050000 		.long	0x568
 5530 17e8 03       		.byte	0x3
 5531 17e9 91       		.byte	0x91
 5532 17ea B07F     		.sleb128 -80
 5533 17ec 28       		.uleb128 0x28
 5534 17ed 00000000 		.long	.LASF360
 5535 17f1 01       		.byte	0x1
 5536 17f2 CC01     		.value	0x1cc
 5537 17f4 68050000 		.long	0x568
 5538 17f8 02       		.byte	0x2
 5539 17f9 91       		.byte	0x91
 5540 17fa 40       		.sleb128 -64
 5541 17fb 27       		.uleb128 0x27
 5542 17fc 70696E00 		.string	"pin"
 5543 1800 01       		.byte	0x1
 5544 1801 CD01     		.value	0x1cd
 5545 1803 87150000 		.long	0x1587
 5546 1807 02       		.byte	0x2
 5547 1808 91       		.byte	0x91
 5548 1809 50       		.sleb128 -48
 5549 180a 28       		.uleb128 0x28
 5550 180b 00000000 		.long	.LASF373
 5551 180f 01       		.byte	0x1
 5552 1810 CE01     		.value	0x1ce
 5553 1812 92150000 		.long	0x1592
 5554 1816 02       		.byte	0x2
 5555 1817 91       		.byte	0x91
 5556 1818 58       		.sleb128 -40
 5557 1819 29       		.uleb128 0x29
 5558 181a 00000000 		.quad	.LBB3
 5558      00000000 
 5559 1822 00000000 		.quad	.LBE3
 5559      00000000 
 5560 182a 28       		.uleb128 0x28
GAS LISTING /tmp/ccQ6OdaV.s 			page 127


 5561 182b 00000000 		.long	.LASF377
 5562 182f 01       		.byte	0x1
 5563 1830 D601     		.value	0x1d6
 5564 1832 68050000 		.long	0x568
 5565 1836 02       		.byte	0x2
 5566 1837 91       		.byte	0x91
 5567 1838 60       		.sleb128 -32
 5568 1839 00       		.byte	0x0
 5569 183a 00       		.byte	0x0
 5570 183b 24       		.uleb128 0x24
 5571 183c 00000000 		.long	.LASF379
 5572 1840 01       		.byte	0x1
 5573 1841 E901     		.value	0x1e9
 5574 1843 01       		.byte	0x1
 5575 1844 7B000000 		.long	0x7b
 5576 1848 00000000 		.quad	.LFB528
 5576      00000000 
 5577 1850 00000000 		.quad	.LFE528
 5577      00000000 
 5578 1858 00000000 		.long	.LLST20
 5579 185c FD180000 		.long	0x18fd
 5580 1860 25       		.uleb128 0x25
 5581 1861 00000000 		.long	.LASF352
 5582 1865 01       		.byte	0x1
 5583 1866 E901     		.value	0x1e9
 5584 1868 DE030000 		.long	0x3de
 5585 186c 03       		.byte	0x3
 5586 186d 91       		.byte	0x91
 5587 186e A87F     		.sleb128 -88
 5588 1870 26       		.uleb128 0x26
 5589 1871 696E00   		.string	"in"
 5590 1874 01       		.byte	0x1
 5591 1875 E901     		.value	0x1e9
 5592 1877 1F040000 		.long	0x41f
 5593 187b 03       		.byte	0x3
 5594 187c 91       		.byte	0x91
 5595 187d A07F     		.sleb128 -96
 5596 187f 26       		.uleb128 0x26
 5597 1880 6F757400 		.string	"out"
 5598 1884 01       		.byte	0x1
 5599 1885 E901     		.value	0x1e9
 5600 1887 B4000000 		.long	0xb4
 5601 188b 03       		.byte	0x3
 5602 188c 91       		.byte	0x91
 5603 188d 987F     		.sleb128 -104
 5604 188f 25       		.uleb128 0x25
 5605 1890 00000000 		.long	.LASF372
 5606 1894 01       		.byte	0x1
 5607 1895 E901     		.value	0x1e9
 5608 1897 62000000 		.long	0x62
 5609 189b 03       		.byte	0x3
 5610 189c 91       		.byte	0x91
 5611 189d 947F     		.sleb128 -108
 5612 189f 27       		.uleb128 0x27
 5613 18a0 637600   		.string	"cv"
 5614 18a3 01       		.byte	0x1
 5615 18a4 EC01     		.value	0x1ec
GAS LISTING /tmp/ccQ6OdaV.s 			page 128


 5616 18a6 68050000 		.long	0x568
 5617 18aa 03       		.byte	0x3
 5618 18ab 91       		.byte	0x91
 5619 18ac B07F     		.sleb128 -80
 5620 18ae 28       		.uleb128 0x28
 5621 18af 00000000 		.long	.LASF360
 5622 18b3 01       		.byte	0x1
 5623 18b4 ED01     		.value	0x1ed
 5624 18b6 68050000 		.long	0x568
 5625 18ba 02       		.byte	0x2
 5626 18bb 91       		.byte	0x91
 5627 18bc 40       		.sleb128 -64
 5628 18bd 27       		.uleb128 0x27
 5629 18be 70696E00 		.string	"pin"
 5630 18c2 01       		.byte	0x1
 5631 18c3 EE01     		.value	0x1ee
 5632 18c5 87150000 		.long	0x1587
 5633 18c9 02       		.byte	0x2
 5634 18ca 91       		.byte	0x91
 5635 18cb 50       		.sleb128 -48
 5636 18cc 28       		.uleb128 0x28
 5637 18cd 00000000 		.long	.LASF373
 5638 18d1 01       		.byte	0x1
 5639 18d2 EF01     		.value	0x1ef
 5640 18d4 92150000 		.long	0x1592
 5641 18d8 02       		.byte	0x2
 5642 18d9 91       		.byte	0x91
 5643 18da 58       		.sleb128 -40
 5644 18db 29       		.uleb128 0x29
 5645 18dc 00000000 		.quad	.LBB4
 5645      00000000 
 5646 18e4 00000000 		.quad	.LBE4
 5646      00000000 
 5647 18ec 28       		.uleb128 0x28
 5648 18ed 00000000 		.long	.LASF377
 5649 18f1 01       		.byte	0x1
 5650 18f2 F701     		.value	0x1f7
 5651 18f4 68050000 		.long	0x568
 5652 18f8 02       		.byte	0x2
 5653 18f9 91       		.byte	0x91
 5654 18fa 60       		.sleb128 -32
 5655 18fb 00       		.byte	0x0
 5656 18fc 00       		.byte	0x0
 5657 18fd 24       		.uleb128 0x24
 5658 18fe 00000000 		.long	.LASF380
 5659 1902 01       		.byte	0x1
 5660 1903 0E02     		.value	0x20e
 5661 1905 01       		.byte	0x1
 5662 1906 7B000000 		.long	0x7b
 5663 190a 00000000 		.quad	.LFB529
 5663      00000000 
 5664 1912 00000000 		.quad	.LFE529
 5664      00000000 
 5665 191a 00000000 		.long	.LLST21
 5666 191e 9D190000 		.long	0x199d
 5667 1922 25       		.uleb128 0x25
 5668 1923 00000000 		.long	.LASF352
GAS LISTING /tmp/ccQ6OdaV.s 			page 129


 5669 1927 01       		.byte	0x1
 5670 1928 0E02     		.value	0x20e
 5671 192a DE030000 		.long	0x3de
 5672 192e 03       		.byte	0x3
 5673 192f 91       		.byte	0x91
 5674 1930 B87F     		.sleb128 -72
 5675 1932 26       		.uleb128 0x26
 5676 1933 696E00   		.string	"in"
 5677 1936 01       		.byte	0x1
 5678 1937 0E02     		.value	0x20e
 5679 1939 1F040000 		.long	0x41f
 5680 193d 03       		.byte	0x3
 5681 193e 91       		.byte	0x91
 5682 193f B07F     		.sleb128 -80
 5683 1941 26       		.uleb128 0x26
 5684 1942 6F757400 		.string	"out"
 5685 1946 01       		.byte	0x1
 5686 1947 0E02     		.value	0x20e
 5687 1949 B4000000 		.long	0xb4
 5688 194d 03       		.byte	0x3
 5689 194e 91       		.byte	0x91
 5690 194f A87F     		.sleb128 -88
 5691 1951 25       		.uleb128 0x25
 5692 1952 00000000 		.long	.LASF372
 5693 1956 01       		.byte	0x1
 5694 1957 0E02     		.value	0x20e
 5695 1959 62000000 		.long	0x62
 5696 195d 03       		.byte	0x3
 5697 195e 91       		.byte	0x91
 5698 195f A47F     		.sleb128 -92
 5699 1961 27       		.uleb128 0x27
 5700 1962 637600   		.string	"cv"
 5701 1965 01       		.byte	0x1
 5702 1966 1102     		.value	0x211
 5703 1968 68050000 		.long	0x568
 5704 196c 02       		.byte	0x2
 5705 196d 91       		.byte	0x91
 5706 196e 40       		.sleb128 -64
 5707 196f 28       		.uleb128 0x28
 5708 1970 00000000 		.long	.LASF360
 5709 1974 01       		.byte	0x1
 5710 1975 1202     		.value	0x212
 5711 1977 68050000 		.long	0x568
 5712 197b 02       		.byte	0x2
 5713 197c 91       		.byte	0x91
 5714 197d 50       		.sleb128 -48
 5715 197e 27       		.uleb128 0x27
 5716 197f 70696E00 		.string	"pin"
 5717 1983 01       		.byte	0x1
 5718 1984 1302     		.value	0x213
 5719 1986 87150000 		.long	0x1587
 5720 198a 02       		.byte	0x2
 5721 198b 91       		.byte	0x91
 5722 198c 60       		.sleb128 -32
 5723 198d 28       		.uleb128 0x28
 5724 198e 00000000 		.long	.LASF373
 5725 1992 01       		.byte	0x1
GAS LISTING /tmp/ccQ6OdaV.s 			page 130


 5726 1993 1402     		.value	0x214
 5727 1995 92150000 		.long	0x1592
 5728 1999 02       		.byte	0x2
 5729 199a 91       		.byte	0x91
 5730 199b 68       		.sleb128 -24
 5731 199c 00       		.byte	0x0
 5732 199d 24       		.uleb128 0x24
 5733 199e 00000000 		.long	.LASF381
 5734 19a2 01       		.byte	0x1
 5735 19a3 2C02     		.value	0x22c
 5736 19a5 01       		.byte	0x1
 5737 19a6 7B000000 		.long	0x7b
 5738 19aa 00000000 		.quad	.LFB530
 5738      00000000 
 5739 19b2 00000000 		.quad	.LFE530
 5739      00000000 
 5740 19ba 00000000 		.long	.LLST22
 5741 19be 3D1A0000 		.long	0x1a3d
 5742 19c2 25       		.uleb128 0x25
 5743 19c3 00000000 		.long	.LASF352
 5744 19c7 01       		.byte	0x1
 5745 19c8 2C02     		.value	0x22c
 5746 19ca DE030000 		.long	0x3de
 5747 19ce 03       		.byte	0x3
 5748 19cf 91       		.byte	0x91
 5749 19d0 B87F     		.sleb128 -72
 5750 19d2 26       		.uleb128 0x26
 5751 19d3 696E00   		.string	"in"
 5752 19d6 01       		.byte	0x1
 5753 19d7 2C02     		.value	0x22c
 5754 19d9 1F040000 		.long	0x41f
 5755 19dd 03       		.byte	0x3
 5756 19de 91       		.byte	0x91
 5757 19df B07F     		.sleb128 -80
 5758 19e1 26       		.uleb128 0x26
 5759 19e2 6F757400 		.string	"out"
 5760 19e6 01       		.byte	0x1
 5761 19e7 2C02     		.value	0x22c
 5762 19e9 B4000000 		.long	0xb4
 5763 19ed 03       		.byte	0x3
 5764 19ee 91       		.byte	0x91
 5765 19ef A87F     		.sleb128 -88
 5766 19f1 25       		.uleb128 0x25
 5767 19f2 00000000 		.long	.LASF372
 5768 19f6 01       		.byte	0x1
 5769 19f7 2C02     		.value	0x22c
 5770 19f9 62000000 		.long	0x62
 5771 19fd 03       		.byte	0x3
 5772 19fe 91       		.byte	0x91
 5773 19ff A47F     		.sleb128 -92
 5774 1a01 27       		.uleb128 0x27
 5775 1a02 637600   		.string	"cv"
 5776 1a05 01       		.byte	0x1
 5777 1a06 2F02     		.value	0x22f
 5778 1a08 68050000 		.long	0x568
 5779 1a0c 02       		.byte	0x2
 5780 1a0d 91       		.byte	0x91
GAS LISTING /tmp/ccQ6OdaV.s 			page 131


 5781 1a0e 40       		.sleb128 -64
 5782 1a0f 28       		.uleb128 0x28
 5783 1a10 00000000 		.long	.LASF360
 5784 1a14 01       		.byte	0x1
 5785 1a15 3002     		.value	0x230
 5786 1a17 68050000 		.long	0x568
 5787 1a1b 02       		.byte	0x2
 5788 1a1c 91       		.byte	0x91
 5789 1a1d 50       		.sleb128 -48
 5790 1a1e 27       		.uleb128 0x27
 5791 1a1f 70696E00 		.string	"pin"
 5792 1a23 01       		.byte	0x1
 5793 1a24 3102     		.value	0x231
 5794 1a26 87150000 		.long	0x1587
 5795 1a2a 02       		.byte	0x2
 5796 1a2b 91       		.byte	0x91
 5797 1a2c 60       		.sleb128 -32
 5798 1a2d 28       		.uleb128 0x28
 5799 1a2e 00000000 		.long	.LASF373
 5800 1a32 01       		.byte	0x1
 5801 1a33 3202     		.value	0x232
 5802 1a35 92150000 		.long	0x1592
 5803 1a39 02       		.byte	0x2
 5804 1a3a 91       		.byte	0x91
 5805 1a3b 68       		.sleb128 -24
 5806 1a3c 00       		.byte	0x0
 5807 1a3d 24       		.uleb128 0x24
 5808 1a3e 00000000 		.long	.LASF382
 5809 1a42 01       		.byte	0x1
 5810 1a43 4F02     		.value	0x24f
 5811 1a45 01       		.byte	0x1
 5812 1a46 7B000000 		.long	0x7b
 5813 1a4a 00000000 		.quad	.LFB531
 5813      00000000 
 5814 1a52 00000000 		.quad	.LFE531
 5814      00000000 
 5815 1a5a 00000000 		.long	.LLST23
 5816 1a5e DD1A0000 		.long	0x1add
 5817 1a62 25       		.uleb128 0x25
 5818 1a63 00000000 		.long	.LASF352
 5819 1a67 01       		.byte	0x1
 5820 1a68 4F02     		.value	0x24f
 5821 1a6a DE030000 		.long	0x3de
 5822 1a6e 03       		.byte	0x3
 5823 1a6f 91       		.byte	0x91
 5824 1a70 B87F     		.sleb128 -72
 5825 1a72 26       		.uleb128 0x26
 5826 1a73 696E00   		.string	"in"
 5827 1a76 01       		.byte	0x1
 5828 1a77 4F02     		.value	0x24f
 5829 1a79 1F040000 		.long	0x41f
 5830 1a7d 03       		.byte	0x3
 5831 1a7e 91       		.byte	0x91
 5832 1a7f B07F     		.sleb128 -80
 5833 1a81 26       		.uleb128 0x26
 5834 1a82 6F757400 		.string	"out"
 5835 1a86 01       		.byte	0x1
GAS LISTING /tmp/ccQ6OdaV.s 			page 132


 5836 1a87 4F02     		.value	0x24f
 5837 1a89 B4000000 		.long	0xb4
 5838 1a8d 03       		.byte	0x3
 5839 1a8e 91       		.byte	0x91
 5840 1a8f A87F     		.sleb128 -88
 5841 1a91 25       		.uleb128 0x25
 5842 1a92 00000000 		.long	.LASF372
 5843 1a96 01       		.byte	0x1
 5844 1a97 4F02     		.value	0x24f
 5845 1a99 62000000 		.long	0x62
 5846 1a9d 03       		.byte	0x3
 5847 1a9e 91       		.byte	0x91
 5848 1a9f A47F     		.sleb128 -92
 5849 1aa1 27       		.uleb128 0x27
 5850 1aa2 637600   		.string	"cv"
 5851 1aa5 01       		.byte	0x1
 5852 1aa6 5202     		.value	0x252
 5853 1aa8 68050000 		.long	0x568
 5854 1aac 02       		.byte	0x2
 5855 1aad 91       		.byte	0x91
 5856 1aae 40       		.sleb128 -64
 5857 1aaf 28       		.uleb128 0x28
 5858 1ab0 00000000 		.long	.LASF360
 5859 1ab4 01       		.byte	0x1
 5860 1ab5 5302     		.value	0x253
 5861 1ab7 68050000 		.long	0x568
 5862 1abb 02       		.byte	0x2
 5863 1abc 91       		.byte	0x91
 5864 1abd 50       		.sleb128 -48
 5865 1abe 27       		.uleb128 0x27
 5866 1abf 70696E00 		.string	"pin"
 5867 1ac3 01       		.byte	0x1
 5868 1ac4 5402     		.value	0x254
 5869 1ac6 87150000 		.long	0x1587
 5870 1aca 02       		.byte	0x2
 5871 1acb 91       		.byte	0x91
 5872 1acc 60       		.sleb128 -32
 5873 1acd 28       		.uleb128 0x28
 5874 1ace 00000000 		.long	.LASF373
 5875 1ad2 01       		.byte	0x1
 5876 1ad3 5502     		.value	0x255
 5877 1ad5 92150000 		.long	0x1592
 5878 1ad9 02       		.byte	0x2
 5879 1ada 91       		.byte	0x91
 5880 1adb 68       		.sleb128 -24
 5881 1adc 00       		.byte	0x0
 5882 1add 24       		.uleb128 0x24
 5883 1ade 00000000 		.long	.LASF383
 5884 1ae2 01       		.byte	0x1
 5885 1ae3 6D02     		.value	0x26d
 5886 1ae5 01       		.byte	0x1
 5887 1ae6 7B000000 		.long	0x7b
 5888 1aea 00000000 		.quad	.LFB532
 5888      00000000 
 5889 1af2 00000000 		.quad	.LFE532
 5889      00000000 
 5890 1afa 00000000 		.long	.LLST24
GAS LISTING /tmp/ccQ6OdaV.s 			page 133


 5891 1afe 3E1B0000 		.long	0x1b3e
 5892 1b02 25       		.uleb128 0x25
 5893 1b03 00000000 		.long	.LASF352
 5894 1b07 01       		.byte	0x1
 5895 1b08 6D02     		.value	0x26d
 5896 1b0a DE030000 		.long	0x3de
 5897 1b0e 02       		.byte	0x2
 5898 1b0f 91       		.byte	0x91
 5899 1b10 58       		.sleb128 -40
 5900 1b11 26       		.uleb128 0x26
 5901 1b12 696E00   		.string	"in"
 5902 1b15 01       		.byte	0x1
 5903 1b16 6D02     		.value	0x26d
 5904 1b18 1F040000 		.long	0x41f
 5905 1b1c 02       		.byte	0x2
 5906 1b1d 91       		.byte	0x91
 5907 1b1e 50       		.sleb128 -48
 5908 1b1f 26       		.uleb128 0x26
 5909 1b20 6F757400 		.string	"out"
 5910 1b24 01       		.byte	0x1
 5911 1b25 6D02     		.value	0x26d
 5912 1b27 B4000000 		.long	0xb4
 5913 1b2b 02       		.byte	0x2
 5914 1b2c 91       		.byte	0x91
 5915 1b2d 48       		.sleb128 -56
 5916 1b2e 25       		.uleb128 0x25
 5917 1b2f 00000000 		.long	.LASF372
 5918 1b33 01       		.byte	0x1
 5919 1b34 6D02     		.value	0x26d
 5920 1b36 62000000 		.long	0x62
 5921 1b3a 02       		.byte	0x2
 5922 1b3b 91       		.byte	0x91
 5923 1b3c 44       		.sleb128 -60
 5924 1b3d 00       		.byte	0x0
 5925 1b3e 24       		.uleb128 0x24
 5926 1b3f 00000000 		.long	.LASF384
 5927 1b43 01       		.byte	0x1
 5928 1b44 7B02     		.value	0x27b
 5929 1b46 01       		.byte	0x1
 5930 1b47 7B000000 		.long	0x7b
 5931 1b4b 00000000 		.quad	.LFB533
 5931      00000000 
 5932 1b53 00000000 		.quad	.LFE533
 5932      00000000 
 5933 1b5b 00000000 		.long	.LLST25
 5934 1b5f C71B0000 		.long	0x1bc7
 5935 1b63 25       		.uleb128 0x25
 5936 1b64 00000000 		.long	.LASF352
 5937 1b68 01       		.byte	0x1
 5938 1b69 7B02     		.value	0x27b
 5939 1b6b DE030000 		.long	0x3de
 5940 1b6f 02       		.byte	0x2
 5941 1b70 91       		.byte	0x91
 5942 1b71 68       		.sleb128 -24
 5943 1b72 26       		.uleb128 0x26
 5944 1b73 696E00   		.string	"in"
 5945 1b76 01       		.byte	0x1
GAS LISTING /tmp/ccQ6OdaV.s 			page 134


 5946 1b77 7B02     		.value	0x27b
 5947 1b79 1F040000 		.long	0x41f
 5948 1b7d 02       		.byte	0x2
 5949 1b7e 91       		.byte	0x91
 5950 1b7f 60       		.sleb128 -32
 5951 1b80 26       		.uleb128 0x26
 5952 1b81 6F757400 		.string	"out"
 5953 1b85 01       		.byte	0x1
 5954 1b86 7B02     		.value	0x27b
 5955 1b88 B4000000 		.long	0xb4
 5956 1b8c 02       		.byte	0x2
 5957 1b8d 91       		.byte	0x91
 5958 1b8e 58       		.sleb128 -40
 5959 1b8f 25       		.uleb128 0x25
 5960 1b90 00000000 		.long	.LASF372
 5961 1b94 01       		.byte	0x1
 5962 1b95 7B02     		.value	0x27b
 5963 1b97 62000000 		.long	0x62
 5964 1b9b 02       		.byte	0x2
 5965 1b9c 91       		.byte	0x91
 5966 1b9d 54       		.sleb128 -44
 5967 1b9e 23       		.uleb128 0x23
 5968 1b9f 00000000 		.long	.LASF356
 5969 1ba3 D71B0000 		.long	0x1bd7
 5970 1ba7 01       		.byte	0x1
 5971 1ba8 09       		.byte	0x9
 5972 1ba9 03       		.byte	0x3
 5973 1baa 00000000 		.quad	__PRETTY_FUNCTION__.6943
 5973      00000000 
 5974 1bb2 23       		.uleb128 0x23
 5975 1bb3 00000000 		.long	.LASF357
 5976 1bb7 DC1B0000 		.long	0x1bdc
 5977 1bbb 01       		.byte	0x1
 5978 1bbc 09       		.byte	0x9
 5979 1bbd 03       		.byte	0x3
 5980 1bbe 00000000 		.quad	__func__.6944
 5980      00000000 
 5981 1bc6 00       		.byte	0x0
 5982 1bc7 16       		.uleb128 0x16
 5983 1bc8 C1000000 		.long	0xc1
 5984 1bcc D71B0000 		.long	0x1bd7
 5985 1bd0 17       		.uleb128 0x17
 5986 1bd1 B1000000 		.long	0xb1
 5987 1bd5 14       		.byte	0x14
 5988 1bd6 00       		.byte	0x0
 5989 1bd7 0B       		.uleb128 0xb
 5990 1bd8 C71B0000 		.long	0x1bc7
 5991 1bdc 0B       		.uleb128 0xb
 5992 1bdd C71B0000 		.long	0x1bc7
 5993 1be1 24       		.uleb128 0x24
 5994 1be2 00000000 		.long	.LASF385
 5995 1be6 01       		.byte	0x1
 5996 1be7 8202     		.value	0x282
 5997 1be9 01       		.byte	0x1
 5998 1bea 7B000000 		.long	0x7b
 5999 1bee 00000000 		.quad	.LFB534
 5999      00000000 
GAS LISTING /tmp/ccQ6OdaV.s 			page 135


 6000 1bf6 00000000 		.quad	.LFE534
 6000      00000000 
 6001 1bfe 00000000 		.long	.LLST26
 6002 1c02 6A1C0000 		.long	0x1c6a
 6003 1c06 25       		.uleb128 0x25
 6004 1c07 00000000 		.long	.LASF352
 6005 1c0b 01       		.byte	0x1
 6006 1c0c 8202     		.value	0x282
 6007 1c0e DE030000 		.long	0x3de
 6008 1c12 02       		.byte	0x2
 6009 1c13 91       		.byte	0x91
 6010 1c14 68       		.sleb128 -24
 6011 1c15 26       		.uleb128 0x26
 6012 1c16 696E00   		.string	"in"
 6013 1c19 01       		.byte	0x1
 6014 1c1a 8202     		.value	0x282
 6015 1c1c 1F040000 		.long	0x41f
 6016 1c20 02       		.byte	0x2
 6017 1c21 91       		.byte	0x91
 6018 1c22 60       		.sleb128 -32
 6019 1c23 26       		.uleb128 0x26
 6020 1c24 6F757400 		.string	"out"
 6021 1c28 01       		.byte	0x1
 6022 1c29 8202     		.value	0x282
 6023 1c2b B4000000 		.long	0xb4
 6024 1c2f 02       		.byte	0x2
 6025 1c30 91       		.byte	0x91
 6026 1c31 58       		.sleb128 -40
 6027 1c32 25       		.uleb128 0x25
 6028 1c33 00000000 		.long	.LASF372
 6029 1c37 01       		.byte	0x1
 6030 1c38 8202     		.value	0x282
 6031 1c3a 62000000 		.long	0x62
 6032 1c3e 02       		.byte	0x2
 6033 1c3f 91       		.byte	0x91
 6034 1c40 54       		.sleb128 -44
 6035 1c41 23       		.uleb128 0x23
 6036 1c42 00000000 		.long	.LASF356
 6037 1c46 6A1C0000 		.long	0x1c6a
 6038 1c4a 01       		.byte	0x1
 6039 1c4b 09       		.byte	0x9
 6040 1c4c 03       		.byte	0x3
 6041 1c4d 00000000 		.quad	__PRETTY_FUNCTION__.6953
 6041      00000000 
 6042 1c55 23       		.uleb128 0x23
 6043 1c56 00000000 		.long	.LASF357
 6044 1c5a 6F1C0000 		.long	0x1c6f
 6045 1c5e 01       		.byte	0x1
 6046 1c5f 09       		.byte	0x9
 6047 1c60 03       		.byte	0x3
 6048 1c61 00000000 		.quad	__func__.6954
 6048      00000000 
 6049 1c69 00       		.byte	0x0
 6050 1c6a 0B       		.uleb128 0xb
 6051 1c6b C71B0000 		.long	0x1bc7
 6052 1c6f 0B       		.uleb128 0xb
 6053 1c70 C71B0000 		.long	0x1bc7
GAS LISTING /tmp/ccQ6OdaV.s 			page 136


 6054 1c74 24       		.uleb128 0x24
 6055 1c75 00000000 		.long	.LASF386
 6056 1c79 01       		.byte	0x1
 6057 1c7a A502     		.value	0x2a5
 6058 1c7c 01       		.byte	0x1
 6059 1c7d 7B000000 		.long	0x7b
 6060 1c81 00000000 		.quad	.LFB535
 6060      00000000 
 6061 1c89 00000000 		.quad	.LFE535
 6061      00000000 
 6062 1c91 00000000 		.long	.LLST27
 6063 1c95 EF1C0000 		.long	0x1cef
 6064 1c99 25       		.uleb128 0x25
 6065 1c9a 00000000 		.long	.LASF387
 6066 1c9e 01       		.byte	0x1
 6067 1c9f A502     		.value	0x2a5
 6068 1ca1 EF1C0000 		.long	0x1cef
 6069 1ca5 02       		.byte	0x2
 6070 1ca6 91       		.byte	0x91
 6071 1ca7 58       		.sleb128 -40
 6072 1ca8 25       		.uleb128 0x25
 6073 1ca9 00000000 		.long	.LASF46
 6074 1cad 01       		.byte	0x1
 6075 1cae A602     		.value	0x2a6
 6076 1cb0 F51C0000 		.long	0x1cf5
 6077 1cb4 02       		.byte	0x2
 6078 1cb5 91       		.byte	0x91
 6079 1cb6 50       		.sleb128 -48
 6080 1cb7 27       		.uleb128 0x27
 6081 1cb8 6F626A00 		.string	"obj"
 6082 1cbc 01       		.byte	0x1
 6083 1cbd A802     		.value	0x2a8
 6084 1cbf 001D0000 		.long	0x1d00
 6085 1cc3 02       		.byte	0x2
 6086 1cc4 91       		.byte	0x91
 6087 1cc5 68       		.sleb128 -24
 6088 1cc6 23       		.uleb128 0x23
 6089 1cc7 00000000 		.long	.LASF356
 6090 1ccb 161D0000 		.long	0x1d16
 6091 1ccf 01       		.byte	0x1
 6092 1cd0 09       		.byte	0x9
 6093 1cd1 03       		.byte	0x3
 6094 1cd2 00000000 		.quad	__PRETTY_FUNCTION__.6963
 6094      00000000 
 6095 1cda 23       		.uleb128 0x23
 6096 1cdb 00000000 		.long	.LASF357
 6097 1cdf 1B1D0000 		.long	0x1d1b
 6098 1ce3 01       		.byte	0x1
 6099 1ce4 09       		.byte	0x9
 6100 1ce5 03       		.byte	0x3
 6101 1ce6 00000000 		.quad	__func__.6964
 6101      00000000 
 6102 1cee 00       		.byte	0x0
 6103 1cef 0A       		.uleb128 0xa
 6104 1cf0 08       		.byte	0x8
 6105 1cf1 DE030000 		.long	0x3de
 6106 1cf5 0A       		.uleb128 0xa
GAS LISTING /tmp/ccQ6OdaV.s 			page 137


 6107 1cf6 08       		.byte	0x8
 6108 1cf7 FB1C0000 		.long	0x1cfb
 6109 1cfb 0B       		.uleb128 0xb
 6110 1cfc C3080000 		.long	0x8c3
 6111 1d00 0A       		.uleb128 0xa
 6112 1d01 08       		.byte	0x8
 6113 1d02 F9070000 		.long	0x7f9
 6114 1d06 16       		.uleb128 0x16
 6115 1d07 C1000000 		.long	0xc1
 6116 1d0b 161D0000 		.long	0x1d16
 6117 1d0f 17       		.uleb128 0x17
 6118 1d10 B1000000 		.long	0xb1
 6119 1d14 12       		.byte	0x12
 6120 1d15 00       		.byte	0x0
 6121 1d16 0B       		.uleb128 0xb
 6122 1d17 061D0000 		.long	0x1d06
 6123 1d1b 0B       		.uleb128 0xb
 6124 1d1c 061D0000 		.long	0x1d06
 6125 1d20 24       		.uleb128 0x24
 6126 1d21 00000000 		.long	.LASF388
 6127 1d25 01       		.byte	0x1
 6128 1d26 B202     		.value	0x2b2
 6129 1d28 01       		.byte	0x1
 6130 1d29 7B000000 		.long	0x7b
 6131 1d2d 00000000 		.quad	.LFB536
 6131      00000000 
 6132 1d35 00000000 		.quad	.LFE536
 6132      00000000 
 6133 1d3d 00000000 		.long	.LLST28
 6134 1d41 821D0000 		.long	0x1d82
 6135 1d45 25       		.uleb128 0x25
 6136 1d46 00000000 		.long	.LASF352
 6137 1d4a 01       		.byte	0x1
 6138 1d4b B202     		.value	0x2b2
 6139 1d4d DE030000 		.long	0x3de
 6140 1d51 02       		.byte	0x2
 6141 1d52 91       		.byte	0x91
 6142 1d53 58       		.sleb128 -40
 6143 1d54 25       		.uleb128 0x25
 6144 1d55 00000000 		.long	.LASF46
 6145 1d59 01       		.byte	0x1
 6146 1d5a B302     		.value	0x2b3
 6147 1d5c F51C0000 		.long	0x1cf5
 6148 1d60 02       		.byte	0x2
 6149 1d61 91       		.byte	0x91
 6150 1d62 50       		.sleb128 -48
 6151 1d63 27       		.uleb128 0x27
 6152 1d64 64616400 		.string	"dad"
 6153 1d68 01       		.byte	0x1
 6154 1d69 B502     		.value	0x2b5
 6155 1d6b 821D0000 		.long	0x1d82
 6156 1d6f 02       		.byte	0x2
 6157 1d70 91       		.byte	0x91
 6158 1d71 60       		.sleb128 -32
 6159 1d72 27       		.uleb128 0x27
 6160 1d73 61657300 		.string	"aes"
 6161 1d77 01       		.byte	0x1
GAS LISTING /tmp/ccQ6OdaV.s 			page 138


 6162 1d78 B602     		.value	0x2b6
 6163 1d7a 001D0000 		.long	0x1d00
 6164 1d7e 02       		.byte	0x2
 6165 1d7f 91       		.byte	0x91
 6166 1d80 68       		.sleb128 -24
 6167 1d81 00       		.byte	0x0
 6168 1d82 0A       		.uleb128 0xa
 6169 1d83 08       		.byte	0x8
 6170 1d84 54010000 		.long	0x154
 6171 1d88 24       		.uleb128 0x24
 6172 1d89 00000000 		.long	.LASF389
 6173 1d8d 01       		.byte	0x1
 6174 1d8e C802     		.value	0x2c8
 6175 1d90 01       		.byte	0x1
 6176 1d91 7B000000 		.long	0x7b
 6177 1d95 00000000 		.quad	.LFB537
 6177      00000000 
 6178 1d9d 00000000 		.quad	.LFE537
 6178      00000000 
 6179 1da5 00000000 		.long	.LLST29
 6180 1da9 031E0000 		.long	0x1e03
 6181 1dad 25       		.uleb128 0x25
 6182 1dae 00000000 		.long	.LASF387
 6183 1db2 01       		.byte	0x1
 6184 1db3 C802     		.value	0x2c8
 6185 1db5 EF1C0000 		.long	0x1cef
 6186 1db9 02       		.byte	0x2
 6187 1dba 91       		.byte	0x91
 6188 1dbb 58       		.sleb128 -40
 6189 1dbc 25       		.uleb128 0x25
 6190 1dbd 00000000 		.long	.LASF46
 6191 1dc1 01       		.byte	0x1
 6192 1dc2 C902     		.value	0x2c9
 6193 1dc4 F51C0000 		.long	0x1cf5
 6194 1dc8 02       		.byte	0x2
 6195 1dc9 91       		.byte	0x91
 6196 1dca 50       		.sleb128 -48
 6197 1dcb 27       		.uleb128 0x27
 6198 1dcc 6F626A00 		.string	"obj"
 6199 1dd0 01       		.byte	0x1
 6200 1dd1 CB02     		.value	0x2cb
 6201 1dd3 031E0000 		.long	0x1e03
 6202 1dd7 02       		.byte	0x2
 6203 1dd8 91       		.byte	0x91
 6204 1dd9 68       		.sleb128 -24
 6205 1dda 23       		.uleb128 0x23
 6206 1ddb 00000000 		.long	.LASF356
 6207 1ddf 191E0000 		.long	0x1e19
 6208 1de3 01       		.byte	0x1
 6209 1de4 09       		.byte	0x9
 6210 1de5 03       		.byte	0x3
 6211 1de6 00000000 		.quad	__PRETTY_FUNCTION__.6990
 6211      00000000 
 6212 1dee 23       		.uleb128 0x23
 6213 1def 00000000 		.long	.LASF357
 6214 1df3 1E1E0000 		.long	0x1e1e
 6215 1df7 01       		.byte	0x1
GAS LISTING /tmp/ccQ6OdaV.s 			page 139


 6216 1df8 09       		.byte	0x9
 6217 1df9 03       		.byte	0x3
 6218 1dfa 00000000 		.quad	__func__.6991
 6218      00000000 
 6219 1e02 00       		.byte	0x0
 6220 1e03 0A       		.uleb128 0xa
 6221 1e04 08       		.byte	0x8
 6222 1e05 5B080000 		.long	0x85b
 6223 1e09 16       		.uleb128 0x16
 6224 1e0a C1000000 		.long	0xc1
 6225 1e0e 191E0000 		.long	0x1e19
 6226 1e12 17       		.uleb128 0x17
 6227 1e13 B1000000 		.long	0xb1
 6228 1e17 13       		.byte	0x13
 6229 1e18 00       		.byte	0x0
 6230 1e19 0B       		.uleb128 0xb
 6231 1e1a 091E0000 		.long	0x1e09
 6232 1e1e 0B       		.uleb128 0xb
 6233 1e1f 091E0000 		.long	0x1e09
 6234 1e23 24       		.uleb128 0x24
 6235 1e24 00000000 		.long	.LASF390
 6236 1e28 01       		.byte	0x1
 6237 1e29 D502     		.value	0x2d5
 6238 1e2b 01       		.byte	0x1
 6239 1e2c 7B000000 		.long	0x7b
 6240 1e30 00000000 		.quad	.LFB538
 6240      00000000 
 6241 1e38 00000000 		.quad	.LFE538
 6241      00000000 
 6242 1e40 00000000 		.long	.LLST30
 6243 1e44 851E0000 		.long	0x1e85
 6244 1e48 25       		.uleb128 0x25
 6245 1e49 00000000 		.long	.LASF352
 6246 1e4d 01       		.byte	0x1
 6247 1e4e D502     		.value	0x2d5
 6248 1e50 DE030000 		.long	0x3de
 6249 1e54 02       		.byte	0x2
 6250 1e55 91       		.byte	0x91
 6251 1e56 58       		.sleb128 -40
 6252 1e57 25       		.uleb128 0x25
 6253 1e58 00000000 		.long	.LASF46
 6254 1e5c 01       		.byte	0x1
 6255 1e5d D602     		.value	0x2d6
 6256 1e5f F51C0000 		.long	0x1cf5
 6257 1e63 02       		.byte	0x2
 6258 1e64 91       		.byte	0x91
 6259 1e65 50       		.sleb128 -48
 6260 1e66 27       		.uleb128 0x27
 6261 1e67 64616400 		.string	"dad"
 6262 1e6b 01       		.byte	0x1
 6263 1e6c D802     		.value	0x2d8
 6264 1e6e 821D0000 		.long	0x1d82
 6265 1e72 02       		.byte	0x2
 6266 1e73 91       		.byte	0x91
 6267 1e74 60       		.sleb128 -32
 6268 1e75 28       		.uleb128 0x28
 6269 1e76 00000000 		.long	.LASF391
GAS LISTING /tmp/ccQ6OdaV.s 			page 140


 6270 1e7a 01       		.byte	0x1
 6271 1e7b D902     		.value	0x2d9
 6272 1e7d 031E0000 		.long	0x1e03
 6273 1e81 02       		.byte	0x2
 6274 1e82 91       		.byte	0x91
 6275 1e83 68       		.sleb128 -24
 6276 1e84 00       		.byte	0x0
 6277 1e85 2A       		.uleb128 0x2a
 6278 1e86 01       		.byte	0x1
 6279 1e87 00000000 		.long	.LASF399
 6280 1e8b 01       		.byte	0x1
 6281 1e8c EA02     		.value	0x2ea
 6282 1e8e 01       		.byte	0x1
 6283 1e8f 7B000000 		.long	0x7b
 6284 1e93 00000000 		.quad	.LFB539
 6284      00000000 
 6285 1e9b 00000000 		.quad	.LFE539
 6285      00000000 
 6286 1ea3 00000000 		.long	.LLST31
 6287 1ea7 301F0000 		.long	0x1f30
 6288 1eab 25       		.uleb128 0x25
 6289 1eac 00000000 		.long	.LASF392
 6290 1eb0 01       		.byte	0x1
 6291 1eb1 EA02     		.value	0x2ea
 6292 1eb3 301F0000 		.long	0x1f30
 6293 1eb7 02       		.byte	0x2
 6294 1eb8 91       		.byte	0x91
 6295 1eb9 48       		.sleb128 -56
 6296 1eba 25       		.uleb128 0x25
 6297 1ebb 00000000 		.long	.LASF393
 6298 1ebf 01       		.byte	0x1
 6299 1ec0 EA02     		.value	0x2ea
 6300 1ec2 9D080000 		.long	0x89d
 6301 1ec6 02       		.byte	0x2
 6302 1ec7 91       		.byte	0x91
 6303 1ec8 44       		.sleb128 -60
 6304 1ec9 27       		.uleb128 0x27
 6305 1eca 726300   		.string	"rc"
 6306 1ecd 01       		.byte	0x1
 6307 1ece EC02     		.value	0x2ec
 6308 1ed0 7B000000 		.long	0x7b
 6309 1ed4 02       		.byte	0x2
 6310 1ed5 91       		.byte	0x91
 6311 1ed6 6C       		.sleb128 -20
 6312 1ed7 28       		.uleb128 0x28
 6313 1ed8 00000000 		.long	.LASF46
 6314 1edc 01       		.byte	0x1
 6315 1edd ED02     		.value	0x2ed
 6316 1edf 361F0000 		.long	0x1f36
 6317 1ee3 02       		.byte	0x2
 6318 1ee4 91       		.byte	0x91
 6319 1ee5 60       		.sleb128 -32
 6320 1ee6 23       		.uleb128 0x23
 6321 1ee7 00000000 		.long	.LASF356
 6322 1eeb 4C1F0000 		.long	0x1f4c
 6323 1eef 01       		.byte	0x1
 6324 1ef0 09       		.byte	0x9
GAS LISTING /tmp/ccQ6OdaV.s 			page 141


 6325 1ef1 03       		.byte	0x3
 6326 1ef2 00000000 		.quad	__PRETTY_FUNCTION__.7018
 6326      00000000 
 6327 1efa 23       		.uleb128 0x23
 6328 1efb 00000000 		.long	.LASF357
 6329 1eff 511F0000 		.long	0x1f51
 6330 1f03 01       		.byte	0x1
 6331 1f04 09       		.byte	0x9
 6332 1f05 03       		.byte	0x3
 6333 1f06 00000000 		.quad	__func__.7019
 6333      00000000 
 6334 1f0e 29       		.uleb128 0x29
 6335 1f0f 00000000 		.quad	.LBB5
 6335      00000000 
 6336 1f17 00000000 		.quad	.LBE5
 6336      00000000 
 6337 1f1f 27       		.uleb128 0x27
 6338 1f20 6F626A00 		.string	"obj"
 6339 1f24 01       		.byte	0x1
 6340 1f25 0403     		.value	0x304
 6341 1f27 DE030000 		.long	0x3de
 6342 1f2b 02       		.byte	0x2
 6343 1f2c 91       		.byte	0x91
 6344 1f2d 58       		.sleb128 -40
 6345 1f2e 00       		.byte	0x0
 6346 1f2f 00       		.byte	0x0
 6347 1f30 0A       		.uleb128 0xa
 6348 1f31 08       		.byte	0x8
 6349 1f32 821D0000 		.long	0x1d82
 6350 1f36 0A       		.uleb128 0xa
 6351 1f37 08       		.byte	0x8
 6352 1f38 C3080000 		.long	0x8c3
 6353 1f3c 16       		.uleb128 0x16
 6354 1f3d C1000000 		.long	0xc1
 6355 1f41 4C1F0000 		.long	0x1f4c
 6356 1f45 17       		.uleb128 0x17
 6357 1f46 B1000000 		.long	0xb1
 6358 1f4a 0E       		.byte	0xe
 6359 1f4b 00       		.byte	0x0
 6360 1f4c 0B       		.uleb128 0xb
 6361 1f4d 3C1F0000 		.long	0x1f3c
 6362 1f51 0B       		.uleb128 0xb
 6363 1f52 3C1F0000 		.long	0x1f3c
 6364 1f56 28       		.uleb128 0x28
 6365 1f57 00000000 		.long	.LASF394
 6366 1f5b 01       		.byte	0x1
 6367 1f5c 8802     		.value	0x288
 6368 1f5e 87020000 		.long	0x287
 6369 1f62 09       		.byte	0x9
 6370 1f63 03       		.byte	0x3
 6371 1f64 00000000 		.quad	KCipherVec_vt_v1
 6371      00000000 
 6372 1f6c 16       		.uleb128 0x16
 6373 1f6d C1000000 		.long	0xc1
 6374 1f71 7C1F0000 		.long	0x1f7c
 6375 1f75 17       		.uleb128 0x17
 6376 1f76 B1000000 		.long	0xb1
GAS LISTING /tmp/ccQ6OdaV.s 			page 142


 6377 1f7a 0B       		.byte	0xb
 6378 1f7b 00       		.byte	0x0
 6379 1f7c 2B       		.uleb128 0x2b
 6380 1f7d 00000000 		.long	.LASF400
 6381 1f81 01       		.byte	0x1
 6382 1f82 36       		.byte	0x36
 6383 1f83 921F0000 		.long	0x1f92
 6384 1f87 01       		.byte	0x1
 6385 1f88 09       		.byte	0x9
 6386 1f89 03       		.byte	0x3
 6387 1f8a 00000000 		.quad	KCipherVecClassName
 6387      00000000 
 6388 1f92 0B       		.uleb128 0xb
 6389 1f93 6C1F0000 		.long	0x1f6c
 6390 1f97 00       		.byte	0x0
 6391              		.section	.debug_abbrev
 6392 0000 01       		.uleb128 0x1
 6393 0001 11       		.uleb128 0x11
 6394 0002 01       		.byte	0x1
 6395 0003 25       		.uleb128 0x25
 6396 0004 0E       		.uleb128 0xe
 6397 0005 13       		.uleb128 0x13
 6398 0006 0B       		.uleb128 0xb
 6399 0007 03       		.uleb128 0x3
 6400 0008 0E       		.uleb128 0xe
 6401 0009 1B       		.uleb128 0x1b
 6402 000a 0E       		.uleb128 0xe
 6403 000b 11       		.uleb128 0x11
 6404 000c 01       		.uleb128 0x1
 6405 000d 12       		.uleb128 0x12
 6406 000e 01       		.uleb128 0x1
 6407 000f 10       		.uleb128 0x10
 6408 0010 06       		.uleb128 0x6
 6409 0011 00       		.byte	0x0
 6410 0012 00       		.byte	0x0
 6411 0013 02       		.uleb128 0x2
 6412 0014 24       		.uleb128 0x24
 6413 0015 00       		.byte	0x0
 6414 0016 0B       		.uleb128 0xb
 6415 0017 0B       		.uleb128 0xb
 6416 0018 3E       		.uleb128 0x3e
 6417 0019 0B       		.uleb128 0xb
 6418 001a 03       		.uleb128 0x3
 6419 001b 0E       		.uleb128 0xe
 6420 001c 00       		.byte	0x0
 6421 001d 00       		.byte	0x0
 6422 001e 03       		.uleb128 0x3
 6423 001f 24       		.uleb128 0x24
 6424 0020 00       		.byte	0x0
 6425 0021 0B       		.uleb128 0xb
 6426 0022 0B       		.uleb128 0xb
 6427 0023 3E       		.uleb128 0x3e
 6428 0024 0B       		.uleb128 0xb
 6429 0025 03       		.uleb128 0x3
 6430 0026 08       		.uleb128 0x8
 6431 0027 00       		.byte	0x0
 6432 0028 00       		.byte	0x0
GAS LISTING /tmp/ccQ6OdaV.s 			page 143


 6433 0029 04       		.uleb128 0x4
 6434 002a 16       		.uleb128 0x16
 6435 002b 00       		.byte	0x0
 6436 002c 03       		.uleb128 0x3
 6437 002d 0E       		.uleb128 0xe
 6438 002e 3A       		.uleb128 0x3a
 6439 002f 0B       		.uleb128 0xb
 6440 0030 3B       		.uleb128 0x3b
 6441 0031 0B       		.uleb128 0xb
 6442 0032 49       		.uleb128 0x49
 6443 0033 13       		.uleb128 0x13
 6444 0034 00       		.byte	0x0
 6445 0035 00       		.byte	0x0
 6446 0036 05       		.uleb128 0x5
 6447 0037 13       		.uleb128 0x13
 6448 0038 01       		.byte	0x1
 6449 0039 03       		.uleb128 0x3
 6450 003a 0E       		.uleb128 0xe
 6451 003b 0B       		.uleb128 0xb
 6452 003c 0B       		.uleb128 0xb
 6453 003d 3A       		.uleb128 0x3a
 6454 003e 0B       		.uleb128 0xb
 6455 003f 3B       		.uleb128 0x3b
 6456 0040 0B       		.uleb128 0xb
 6457 0041 01       		.uleb128 0x1
 6458 0042 13       		.uleb128 0x13
 6459 0043 00       		.byte	0x0
 6460 0044 00       		.byte	0x0
 6461 0045 06       		.uleb128 0x6
 6462 0046 0D       		.uleb128 0xd
 6463 0047 00       		.byte	0x0
 6464 0048 03       		.uleb128 0x3
 6465 0049 0E       		.uleb128 0xe
 6466 004a 3A       		.uleb128 0x3a
 6467 004b 0B       		.uleb128 0xb
 6468 004c 3B       		.uleb128 0x3b
 6469 004d 0B       		.uleb128 0xb
 6470 004e 49       		.uleb128 0x49
 6471 004f 13       		.uleb128 0x13
 6472 0050 38       		.uleb128 0x38
 6473 0051 0A       		.uleb128 0xa
 6474 0052 00       		.byte	0x0
 6475 0053 00       		.byte	0x0
 6476 0054 07       		.uleb128 0x7
 6477 0055 35       		.uleb128 0x35
 6478 0056 00       		.byte	0x0
 6479 0057 49       		.uleb128 0x49
 6480 0058 13       		.uleb128 0x13
 6481 0059 00       		.byte	0x0
 6482 005a 00       		.byte	0x0
 6483 005b 08       		.uleb128 0x8
 6484 005c 24       		.uleb128 0x24
 6485 005d 00       		.byte	0x0
 6486 005e 0B       		.uleb128 0xb
 6487 005f 0B       		.uleb128 0xb
 6488 0060 3E       		.uleb128 0x3e
 6489 0061 0B       		.uleb128 0xb
GAS LISTING /tmp/ccQ6OdaV.s 			page 144


 6490 0062 00       		.byte	0x0
 6491 0063 00       		.byte	0x0
 6492 0064 09       		.uleb128 0x9
 6493 0065 0F       		.uleb128 0xf
 6494 0066 00       		.byte	0x0
 6495 0067 0B       		.uleb128 0xb
 6496 0068 0B       		.uleb128 0xb
 6497 0069 00       		.byte	0x0
 6498 006a 00       		.byte	0x0
 6499 006b 0A       		.uleb128 0xa
 6500 006c 0F       		.uleb128 0xf
 6501 006d 00       		.byte	0x0
 6502 006e 0B       		.uleb128 0xb
 6503 006f 0B       		.uleb128 0xb
 6504 0070 49       		.uleb128 0x49
 6505 0071 13       		.uleb128 0x13
 6506 0072 00       		.byte	0x0
 6507 0073 00       		.byte	0x0
 6508 0074 0B       		.uleb128 0xb
 6509 0075 26       		.uleb128 0x26
 6510 0076 00       		.byte	0x0
 6511 0077 49       		.uleb128 0x49
 6512 0078 13       		.uleb128 0x13
 6513 0079 00       		.byte	0x0
 6514 007a 00       		.byte	0x0
 6515 007b 0C       		.uleb128 0xc
 6516 007c 04       		.uleb128 0x4
 6517 007d 01       		.byte	0x1
 6518 007e 0B       		.uleb128 0xb
 6519 007f 0B       		.uleb128 0xb
 6520 0080 3A       		.uleb128 0x3a
 6521 0081 0B       		.uleb128 0xb
 6522 0082 3B       		.uleb128 0x3b
 6523 0083 0B       		.uleb128 0xb
 6524 0084 01       		.uleb128 0x1
 6525 0085 13       		.uleb128 0x13
 6526 0086 00       		.byte	0x0
 6527 0087 00       		.byte	0x0
 6528 0088 0D       		.uleb128 0xd
 6529 0089 28       		.uleb128 0x28
 6530 008a 00       		.byte	0x0
 6531 008b 03       		.uleb128 0x3
 6532 008c 0E       		.uleb128 0xe
 6533 008d 1C       		.uleb128 0x1c
 6534 008e 0D       		.uleb128 0xd
 6535 008f 00       		.byte	0x0
 6536 0090 00       		.byte	0x0
 6537 0091 0E       		.uleb128 0xe
 6538 0092 0D       		.uleb128 0xd
 6539 0093 00       		.byte	0x0
 6540 0094 03       		.uleb128 0x3
 6541 0095 08       		.uleb128 0x8
 6542 0096 3A       		.uleb128 0x3a
 6543 0097 0B       		.uleb128 0xb
 6544 0098 3B       		.uleb128 0x3b
 6545 0099 0B       		.uleb128 0xb
 6546 009a 49       		.uleb128 0x49
GAS LISTING /tmp/ccQ6OdaV.s 			page 145


 6547 009b 13       		.uleb128 0x13
 6548 009c 38       		.uleb128 0x38
 6549 009d 0A       		.uleb128 0xa
 6550 009e 00       		.byte	0x0
 6551 009f 00       		.byte	0x0
 6552 00a0 0F       		.uleb128 0xf
 6553 00a1 15       		.uleb128 0x15
 6554 00a2 01       		.byte	0x1
 6555 00a3 27       		.uleb128 0x27
 6556 00a4 0C       		.uleb128 0xc
 6557 00a5 01       		.uleb128 0x1
 6558 00a6 13       		.uleb128 0x13
 6559 00a7 00       		.byte	0x0
 6560 00a8 00       		.byte	0x0
 6561 00a9 10       		.uleb128 0x10
 6562 00aa 05       		.uleb128 0x5
 6563 00ab 00       		.byte	0x0
 6564 00ac 49       		.uleb128 0x49
 6565 00ad 13       		.uleb128 0x13
 6566 00ae 00       		.byte	0x0
 6567 00af 00       		.byte	0x0
 6568 00b0 11       		.uleb128 0x11
 6569 00b1 15       		.uleb128 0x15
 6570 00b2 01       		.byte	0x1
 6571 00b3 27       		.uleb128 0x27
 6572 00b4 0C       		.uleb128 0xc
 6573 00b5 49       		.uleb128 0x49
 6574 00b6 13       		.uleb128 0x13
 6575 00b7 01       		.uleb128 0x1
 6576 00b8 13       		.uleb128 0x13
 6577 00b9 00       		.byte	0x0
 6578 00ba 00       		.byte	0x0
 6579 00bb 12       		.uleb128 0x12
 6580 00bc 26       		.uleb128 0x26
 6581 00bd 00       		.byte	0x0
 6582 00be 00       		.byte	0x0
 6583 00bf 00       		.byte	0x0
 6584 00c0 13       		.uleb128 0x13
 6585 00c1 17       		.uleb128 0x17
 6586 00c2 01       		.byte	0x1
 6587 00c3 03       		.uleb128 0x3
 6588 00c4 0E       		.uleb128 0xe
 6589 00c5 0B       		.uleb128 0xb
 6590 00c6 0B       		.uleb128 0xb
 6591 00c7 3A       		.uleb128 0x3a
 6592 00c8 0B       		.uleb128 0xb
 6593 00c9 3B       		.uleb128 0x3b
 6594 00ca 0B       		.uleb128 0xb
 6595 00cb 01       		.uleb128 0x1
 6596 00cc 13       		.uleb128 0x13
 6597 00cd 00       		.byte	0x0
 6598 00ce 00       		.byte	0x0
 6599 00cf 14       		.uleb128 0x14
 6600 00d0 0D       		.uleb128 0xd
 6601 00d1 00       		.byte	0x0
 6602 00d2 03       		.uleb128 0x3
 6603 00d3 0E       		.uleb128 0xe
GAS LISTING /tmp/ccQ6OdaV.s 			page 146


 6604 00d4 3A       		.uleb128 0x3a
 6605 00d5 0B       		.uleb128 0xb
 6606 00d6 3B       		.uleb128 0x3b
 6607 00d7 0B       		.uleb128 0xb
 6608 00d8 49       		.uleb128 0x49
 6609 00d9 13       		.uleb128 0x13
 6610 00da 00       		.byte	0x0
 6611 00db 00       		.byte	0x0
 6612 00dc 15       		.uleb128 0x15
 6613 00dd 0D       		.uleb128 0xd
 6614 00de 00       		.byte	0x0
 6615 00df 03       		.uleb128 0x3
 6616 00e0 08       		.uleb128 0x8
 6617 00e1 3A       		.uleb128 0x3a
 6618 00e2 0B       		.uleb128 0xb
 6619 00e3 3B       		.uleb128 0x3b
 6620 00e4 0B       		.uleb128 0xb
 6621 00e5 49       		.uleb128 0x49
 6622 00e6 13       		.uleb128 0x13
 6623 00e7 00       		.byte	0x0
 6624 00e8 00       		.byte	0x0
 6625 00e9 16       		.uleb128 0x16
 6626 00ea 01       		.uleb128 0x1
 6627 00eb 01       		.byte	0x1
 6628 00ec 49       		.uleb128 0x49
 6629 00ed 13       		.uleb128 0x13
 6630 00ee 01       		.uleb128 0x1
 6631 00ef 13       		.uleb128 0x13
 6632 00f0 00       		.byte	0x0
 6633 00f1 00       		.byte	0x0
 6634 00f2 17       		.uleb128 0x17
 6635 00f3 21       		.uleb128 0x21
 6636 00f4 00       		.byte	0x0
 6637 00f5 49       		.uleb128 0x49
 6638 00f6 13       		.uleb128 0x13
 6639 00f7 2F       		.uleb128 0x2f
 6640 00f8 0B       		.uleb128 0xb
 6641 00f9 00       		.byte	0x0
 6642 00fa 00       		.byte	0x0
 6643 00fb 18       		.uleb128 0x18
 6644 00fc 01       		.uleb128 0x1
 6645 00fd 01       		.byte	0x1
 6646 00fe 8742     		.uleb128 0x2107
 6647 0100 0C       		.uleb128 0xc
 6648 0101 49       		.uleb128 0x49
 6649 0102 13       		.uleb128 0x13
 6650 0103 01       		.uleb128 0x1
 6651 0104 13       		.uleb128 0x13
 6652 0105 00       		.byte	0x0
 6653 0106 00       		.byte	0x0
 6654 0107 19       		.uleb128 0x19
 6655 0108 15       		.uleb128 0x15
 6656 0109 01       		.byte	0x1
 6657 010a 49       		.uleb128 0x49
 6658 010b 13       		.uleb128 0x13
 6659 010c 01       		.uleb128 0x1
 6660 010d 13       		.uleb128 0x13
GAS LISTING /tmp/ccQ6OdaV.s 			page 147


 6661 010e 00       		.byte	0x0
 6662 010f 00       		.byte	0x0
 6663 0110 1A       		.uleb128 0x1a
 6664 0111 18       		.uleb128 0x18
 6665 0112 00       		.byte	0x0
 6666 0113 00       		.byte	0x0
 6667 0114 00       		.byte	0x0
 6668 0115 1B       		.uleb128 0x1b
 6669 0116 13       		.uleb128 0x13
 6670 0117 01       		.byte	0x1
 6671 0118 03       		.uleb128 0x3
 6672 0119 0E       		.uleb128 0xe
 6673 011a 0B       		.uleb128 0xb
 6674 011b 05       		.uleb128 0x5
 6675 011c 3A       		.uleb128 0x3a
 6676 011d 0B       		.uleb128 0xb
 6677 011e 3B       		.uleb128 0x3b
 6678 011f 0B       		.uleb128 0xb
 6679 0120 01       		.uleb128 0x1
 6680 0121 13       		.uleb128 0x13
 6681 0122 00       		.byte	0x0
 6682 0123 00       		.byte	0x0
 6683 0124 1C       		.uleb128 0x1c
 6684 0125 04       		.uleb128 0x4
 6685 0126 01       		.byte	0x1
 6686 0127 03       		.uleb128 0x3
 6687 0128 0E       		.uleb128 0xe
 6688 0129 0B       		.uleb128 0xb
 6689 012a 0B       		.uleb128 0xb
 6690 012b 3A       		.uleb128 0x3a
 6691 012c 0B       		.uleb128 0xb
 6692 012d 3B       		.uleb128 0x3b
 6693 012e 0B       		.uleb128 0xb
 6694 012f 01       		.uleb128 0x1
 6695 0130 13       		.uleb128 0x13
 6696 0131 00       		.byte	0x0
 6697 0132 00       		.byte	0x0
 6698 0133 1D       		.uleb128 0x1d
 6699 0134 04       		.uleb128 0x4
 6700 0135 01       		.byte	0x1
 6701 0136 03       		.uleb128 0x3
 6702 0137 0E       		.uleb128 0xe
 6703 0138 0B       		.uleb128 0xb
 6704 0139 0B       		.uleb128 0xb
 6705 013a 3A       		.uleb128 0x3a
 6706 013b 0B       		.uleb128 0xb
 6707 013c 3B       		.uleb128 0x3b
 6708 013d 05       		.uleb128 0x5
 6709 013e 01       		.uleb128 0x1
 6710 013f 13       		.uleb128 0x13
 6711 0140 00       		.byte	0x0
 6712 0141 00       		.byte	0x0
 6713 0142 1E       		.uleb128 0x1e
 6714 0143 2E       		.uleb128 0x2e
 6715 0144 01       		.byte	0x1
 6716 0145 03       		.uleb128 0x3
 6717 0146 0E       		.uleb128 0xe
GAS LISTING /tmp/ccQ6OdaV.s 			page 148


 6718 0147 3A       		.uleb128 0x3a
 6719 0148 0B       		.uleb128 0xb
 6720 0149 3B       		.uleb128 0x3b
 6721 014a 0B       		.uleb128 0xb
 6722 014b 27       		.uleb128 0x27
 6723 014c 0C       		.uleb128 0xc
 6724 014d 49       		.uleb128 0x49
 6725 014e 13       		.uleb128 0x13
 6726 014f 11       		.uleb128 0x11
 6727 0150 01       		.uleb128 0x1
 6728 0151 12       		.uleb128 0x12
 6729 0152 01       		.uleb128 0x1
 6730 0153 40       		.uleb128 0x40
 6731 0154 06       		.uleb128 0x6
 6732 0155 01       		.uleb128 0x1
 6733 0156 13       		.uleb128 0x13
 6734 0157 00       		.byte	0x0
 6735 0158 00       		.byte	0x0
 6736 0159 1F       		.uleb128 0x1f
 6737 015a 05       		.uleb128 0x5
 6738 015b 00       		.byte	0x0
 6739 015c 03       		.uleb128 0x3
 6740 015d 0E       		.uleb128 0xe
 6741 015e 3A       		.uleb128 0x3a
 6742 015f 0B       		.uleb128 0xb
 6743 0160 3B       		.uleb128 0x3b
 6744 0161 0B       		.uleb128 0xb
 6745 0162 49       		.uleb128 0x49
 6746 0163 13       		.uleb128 0x13
 6747 0164 02       		.uleb128 0x2
 6748 0165 0A       		.uleb128 0xa
 6749 0166 00       		.byte	0x0
 6750 0167 00       		.byte	0x0
 6751 0168 20       		.uleb128 0x20
 6752 0169 34       		.uleb128 0x34
 6753 016a 00       		.byte	0x0
 6754 016b 03       		.uleb128 0x3
 6755 016c 08       		.uleb128 0x8
 6756 016d 3A       		.uleb128 0x3a
 6757 016e 0B       		.uleb128 0xb
 6758 016f 3B       		.uleb128 0x3b
 6759 0170 0B       		.uleb128 0xb
 6760 0171 49       		.uleb128 0x49
 6761 0172 13       		.uleb128 0x13
 6762 0173 02       		.uleb128 0x2
 6763 0174 0A       		.uleb128 0xa
 6764 0175 00       		.byte	0x0
 6765 0176 00       		.byte	0x0
 6766 0177 21       		.uleb128 0x21
 6767 0178 2E       		.uleb128 0x2e
 6768 0179 01       		.byte	0x1
 6769 017a 03       		.uleb128 0x3
 6770 017b 0E       		.uleb128 0xe
 6771 017c 3A       		.uleb128 0x3a
 6772 017d 0B       		.uleb128 0xb
 6773 017e 3B       		.uleb128 0x3b
 6774 017f 0B       		.uleb128 0xb
GAS LISTING /tmp/ccQ6OdaV.s 			page 149


 6775 0180 27       		.uleb128 0x27
 6776 0181 0C       		.uleb128 0xc
 6777 0182 11       		.uleb128 0x11
 6778 0183 01       		.uleb128 0x1
 6779 0184 12       		.uleb128 0x12
 6780 0185 01       		.uleb128 0x1
 6781 0186 40       		.uleb128 0x40
 6782 0187 06       		.uleb128 0x6
 6783 0188 01       		.uleb128 0x1
 6784 0189 13       		.uleb128 0x13
 6785 018a 00       		.byte	0x0
 6786 018b 00       		.byte	0x0
 6787 018c 22       		.uleb128 0x22
 6788 018d 05       		.uleb128 0x5
 6789 018e 00       		.byte	0x0
 6790 018f 03       		.uleb128 0x3
 6791 0190 08       		.uleb128 0x8
 6792 0191 3A       		.uleb128 0x3a
 6793 0192 0B       		.uleb128 0xb
 6794 0193 3B       		.uleb128 0x3b
 6795 0194 0B       		.uleb128 0xb
 6796 0195 49       		.uleb128 0x49
 6797 0196 13       		.uleb128 0x13
 6798 0197 02       		.uleb128 0x2
 6799 0198 0A       		.uleb128 0xa
 6800 0199 00       		.byte	0x0
 6801 019a 00       		.byte	0x0
 6802 019b 23       		.uleb128 0x23
 6803 019c 34       		.uleb128 0x34
 6804 019d 00       		.byte	0x0
 6805 019e 03       		.uleb128 0x3
 6806 019f 0E       		.uleb128 0xe
 6807 01a0 49       		.uleb128 0x49
 6808 01a1 13       		.uleb128 0x13
 6809 01a2 34       		.uleb128 0x34
 6810 01a3 0C       		.uleb128 0xc
 6811 01a4 02       		.uleb128 0x2
 6812 01a5 0A       		.uleb128 0xa
 6813 01a6 00       		.byte	0x0
 6814 01a7 00       		.byte	0x0
 6815 01a8 24       		.uleb128 0x24
 6816 01a9 2E       		.uleb128 0x2e
 6817 01aa 01       		.byte	0x1
 6818 01ab 03       		.uleb128 0x3
 6819 01ac 0E       		.uleb128 0xe
 6820 01ad 3A       		.uleb128 0x3a
 6821 01ae 0B       		.uleb128 0xb
 6822 01af 3B       		.uleb128 0x3b
 6823 01b0 05       		.uleb128 0x5
 6824 01b1 27       		.uleb128 0x27
 6825 01b2 0C       		.uleb128 0xc
 6826 01b3 49       		.uleb128 0x49
 6827 01b4 13       		.uleb128 0x13
 6828 01b5 11       		.uleb128 0x11
 6829 01b6 01       		.uleb128 0x1
 6830 01b7 12       		.uleb128 0x12
 6831 01b8 01       		.uleb128 0x1
GAS LISTING /tmp/ccQ6OdaV.s 			page 150


 6832 01b9 40       		.uleb128 0x40
 6833 01ba 06       		.uleb128 0x6
 6834 01bb 01       		.uleb128 0x1
 6835 01bc 13       		.uleb128 0x13
 6836 01bd 00       		.byte	0x0
 6837 01be 00       		.byte	0x0
 6838 01bf 25       		.uleb128 0x25
 6839 01c0 05       		.uleb128 0x5
 6840 01c1 00       		.byte	0x0
 6841 01c2 03       		.uleb128 0x3
 6842 01c3 0E       		.uleb128 0xe
 6843 01c4 3A       		.uleb128 0x3a
 6844 01c5 0B       		.uleb128 0xb
 6845 01c6 3B       		.uleb128 0x3b
 6846 01c7 05       		.uleb128 0x5
 6847 01c8 49       		.uleb128 0x49
 6848 01c9 13       		.uleb128 0x13
 6849 01ca 02       		.uleb128 0x2
 6850 01cb 0A       		.uleb128 0xa
 6851 01cc 00       		.byte	0x0
 6852 01cd 00       		.byte	0x0
 6853 01ce 26       		.uleb128 0x26
 6854 01cf 05       		.uleb128 0x5
 6855 01d0 00       		.byte	0x0
 6856 01d1 03       		.uleb128 0x3
 6857 01d2 08       		.uleb128 0x8
 6858 01d3 3A       		.uleb128 0x3a
 6859 01d4 0B       		.uleb128 0xb
 6860 01d5 3B       		.uleb128 0x3b
 6861 01d6 05       		.uleb128 0x5
 6862 01d7 49       		.uleb128 0x49
 6863 01d8 13       		.uleb128 0x13
 6864 01d9 02       		.uleb128 0x2
 6865 01da 0A       		.uleb128 0xa
 6866 01db 00       		.byte	0x0
 6867 01dc 00       		.byte	0x0
 6868 01dd 27       		.uleb128 0x27
 6869 01de 34       		.uleb128 0x34
 6870 01df 00       		.byte	0x0
 6871 01e0 03       		.uleb128 0x3
 6872 01e1 08       		.uleb128 0x8
 6873 01e2 3A       		.uleb128 0x3a
 6874 01e3 0B       		.uleb128 0xb
 6875 01e4 3B       		.uleb128 0x3b
 6876 01e5 05       		.uleb128 0x5
 6877 01e6 49       		.uleb128 0x49
 6878 01e7 13       		.uleb128 0x13
 6879 01e8 02       		.uleb128 0x2
 6880 01e9 0A       		.uleb128 0xa
 6881 01ea 00       		.byte	0x0
 6882 01eb 00       		.byte	0x0
 6883 01ec 28       		.uleb128 0x28
 6884 01ed 34       		.uleb128 0x34
 6885 01ee 00       		.byte	0x0
 6886 01ef 03       		.uleb128 0x3
 6887 01f0 0E       		.uleb128 0xe
 6888 01f1 3A       		.uleb128 0x3a
GAS LISTING /tmp/ccQ6OdaV.s 			page 151


 6889 01f2 0B       		.uleb128 0xb
 6890 01f3 3B       		.uleb128 0x3b
 6891 01f4 05       		.uleb128 0x5
 6892 01f5 49       		.uleb128 0x49
 6893 01f6 13       		.uleb128 0x13
 6894 01f7 02       		.uleb128 0x2
 6895 01f8 0A       		.uleb128 0xa
 6896 01f9 00       		.byte	0x0
 6897 01fa 00       		.byte	0x0
 6898 01fb 29       		.uleb128 0x29
 6899 01fc 0B       		.uleb128 0xb
 6900 01fd 01       		.byte	0x1
 6901 01fe 11       		.uleb128 0x11
 6902 01ff 01       		.uleb128 0x1
 6903 0200 12       		.uleb128 0x12
 6904 0201 01       		.uleb128 0x1
 6905 0202 00       		.byte	0x0
 6906 0203 00       		.byte	0x0
 6907 0204 2A       		.uleb128 0x2a
 6908 0205 2E       		.uleb128 0x2e
 6909 0206 01       		.byte	0x1
 6910 0207 3F       		.uleb128 0x3f
 6911 0208 0C       		.uleb128 0xc
 6912 0209 03       		.uleb128 0x3
 6913 020a 0E       		.uleb128 0xe
 6914 020b 3A       		.uleb128 0x3a
 6915 020c 0B       		.uleb128 0xb
 6916 020d 3B       		.uleb128 0x3b
 6917 020e 05       		.uleb128 0x5
 6918 020f 27       		.uleb128 0x27
 6919 0210 0C       		.uleb128 0xc
 6920 0211 49       		.uleb128 0x49
 6921 0212 13       		.uleb128 0x13
 6922 0213 11       		.uleb128 0x11
 6923 0214 01       		.uleb128 0x1
 6924 0215 12       		.uleb128 0x12
 6925 0216 01       		.uleb128 0x1
 6926 0217 40       		.uleb128 0x40
 6927 0218 06       		.uleb128 0x6
 6928 0219 01       		.uleb128 0x1
 6929 021a 13       		.uleb128 0x13
 6930 021b 00       		.byte	0x0
 6931 021c 00       		.byte	0x0
 6932 021d 2B       		.uleb128 0x2b
 6933 021e 34       		.uleb128 0x34
 6934 021f 00       		.byte	0x0
 6935 0220 03       		.uleb128 0x3
 6936 0221 0E       		.uleb128 0xe
 6937 0222 3A       		.uleb128 0x3a
 6938 0223 0B       		.uleb128 0xb
 6939 0224 3B       		.uleb128 0x3b
 6940 0225 0B       		.uleb128 0xb
 6941 0226 49       		.uleb128 0x49
 6942 0227 13       		.uleb128 0x13
 6943 0228 3F       		.uleb128 0x3f
 6944 0229 0C       		.uleb128 0xc
 6945 022a 02       		.uleb128 0x2
GAS LISTING /tmp/ccQ6OdaV.s 			page 152


 6946 022b 0A       		.uleb128 0xa
 6947 022c 00       		.byte	0x0
 6948 022d 00       		.byte	0x0
 6949 022e 00       		.byte	0x0
 6950              		.section	.debug_pubnames,"",@progbits
 6951 0000 39000000 		.long	0x39
 6952 0004 0200     		.value	0x2
 6953 0006 00000000 		.long	.Ldebug_info0
 6954 000a 981F0000 		.long	0x1f98
 6955 000e 851E0000 		.long	0x1e85
 6956 0012 4B436970 		.string	"KCipherVecMake"
 6956      68657256 
 6956      65634D61 
 6956      6B6500
 6957 0021 7C1F0000 		.long	0x1f7c
 6958 0025 4B436970 		.string	"KCipherVecClassName"
 6958      68657256 
 6958      6563436C 
 6958      6173734E 
 6958      616D6500 
 6959 0039 00000000 		.long	0x0
 6960              		.section	.debug_aranges,"",@progbits
 6961 0000 2C000000 		.long	0x2c
 6962 0004 0200     		.value	0x2
 6963 0006 00000000 		.long	.Ldebug_info0
 6964 000a 08       		.byte	0x8
 6965 000b 00       		.byte	0x0
 6966 000c 0000     		.value	0x0
 6967 000e 0000     		.value	0x0
 6968 0010 00000000 		.quad	.Ltext0
 6968      00000000 
 6969 0018 7C100000 		.quad	.Letext0-.Ltext0
 6969      00000000 
 6970 0020 00000000 		.quad	0x0
 6970      00000000 
 6971 0028 00000000 		.quad	0x0
 6971      00000000 
 6972              		.section	.debug_str,"MS",@progbits,1
 6973              	.LASF90:
 6974 0000 645F6B65 		.string	"d_key"
 6974      7900
 6975              	.LASF332:
 6976 0006 72634475 		.string	"rcDuplicate"
 6976      706C6963 
 6976      61746500 
 6977              	.LASF359:
 6978 0012 4B436970 		.string	"KCipherVecSetEncryptIvec"
 6978      68657256 
 6978      65635365 
 6978      74456E63 
 6978      72797074 
 6979              	.LASF135:
 6980 002b 7263436F 		.string	"rcCondition"
 6980      6E646974 
 6980      696F6E00 
 6981              	.LASF249:
 6982 0037 7263456E 		.string	"rcEncrypting"
GAS LISTING /tmp/ccQ6OdaV.s 			page 153


 6982      63727970 
 6982      74696E67 
 6982      00
 6983              	.LASF208:
 6984 0044 72634F70 		.string	"rcOpening"
 6984      656E696E 
 6984      6700
 6985              	.LASF216:
 6986 004e 72635065 		.string	"rcPersisting"
 6986      72736973 
 6986      74696E67 
 6986      00
 6987              	.LASF385:
 6988 005b 4B436970 		.string	"KCipherVecDecryptCtr"
 6988      68657256 
 6988      65634465 
 6988      63727970 
 6988      74437472 
 6989              	.LASF254:
 6990 0070 72635365 		.string	"rcSending"
 6990      6E64696E 
 6990      6700
 6991              	.LASF248:
 6992 007a 72634170 		.string	"rcAppending"
 6992      70656E64 
 6992      696E6700 
 6993              	.LASF234:
 6994 0086 72635369 		.string	"rcSignaling"
 6994      676E616C 
 6994      696E6700 
 6995              	.LASF14:
 6996 0092 4442475F 		.string	"DBG_BLAST"
 6996      424C4153 
 6996      5400
 6997              	.LASF290:
 6998 009c 72635369 		.string	"rcSignalSet"
 6998      676E616C 
 6998      53657400 
 6999              	.LASF236:
 7000 00a8 72634174 		.string	"rcAttaching"
 7000      74616368 
 7000      696E6700 
 7001              	.LASF168:
 7002 00b4 72635461 		.string	"rcTable"
 7002      626C6500 
 7003              	.LASF66:
 7004 00bc 64656372 		.string	"decrypt_cfb"
 7004      7970745F 
 7004      63666200 
 7005              	.LASF132:
 7006 00c8 72634275 		.string	"rcBuffer"
 7006      66666572 
 7006      00
 7007              	.LASF264:
 7008 00d1 72634D65 		.string	"rcMemory"
 7008      6D6F7279 
 7008      00
GAS LISTING /tmp/ccQ6OdaV.s 			page 154


 7009              	.LASF197:
 7010 00da 72634C6F 		.string	"rcLocking"
 7010      636B696E 
 7010      6700
 7011              	.LASF232:
 7012 00e4 72635061 		.string	"rcParsing"
 7012      7273696E 
 7012      6700
 7013              	.LASF261:
 7014 00ee 72635365 		.string	"rcSelf"
 7014      6C6600
 7015              	.LASF154:
 7016 00f5 72634D65 		.string	"rcMetadata"
 7016      74616461 
 7016      746100
 7017              	.LASF277:
 7018 0100 72634172 		.string	"rcArcHardLink"
 7018      63486172 
 7018      644C696E 
 7018      6B00
 7019              	.LASF103:
 7020 010e 7263436F 		.string	"rcCont"
 7020      6E7400
 7021              	.LASF285:
 7022 0115 72634368 		.string	"rcChecksum"
 7022      65636B73 
 7022      756D00
 7023              	.LASF357:
 7024 0120 5F5F6675 		.string	"__func__"
 7024      6E635F5F 
 7024      00
 7025              	.LASF329:
 7026 0129 7263546F 		.string	"rcTooShort"
 7026      6F53686F 
 7026      727400
 7027              	.LASF159:
 7028 0134 72635061 		.string	"rcPagemap"
 7028      67656D61 
 7028      7000
 7029              	.LASF111:
 7030 013e 72634170 		.string	"rcApp"
 7030      7000
 7031              	.LASF10:
 7032 0144 61746F6D 		.string	"atomic32_t"
 7032      69633332 
 7032      5F7400
 7033              	.LASF56:
 7034 014f 7365745F 		.string	"set_decrypt_ctr_func"
 7034      64656372 
 7034      7970745F 
 7034      6374725F 
 7034      66756E63 
 7035              	.LASF65:
 7036 0164 656E6372 		.string	"encrypt_cfb"
 7036      7970745F 
 7036      63666200 
 7037              	.LASF173:
GAS LISTING /tmp/ccQ6OdaV.s 			page 155


 7038 0170 72635472 		.string	"rcTrie"
 7038      696500
 7039              	.LASF114:
 7040 0177 72634C61 		.string	"rcLastModule_v1_0"
 7040      73744D6F 
 7040      64756C65 
 7040      5F76315F 
 7040      3000
 7041              	.LASF121:
 7042 0189 72634C61 		.string	"rcLastModule_v1_1"
 7042      73744D6F 
 7042      64756C65 
 7042      5F76315F 
 7042      3100
 7043              	.LASF272:
 7044 019b 72634279 		.string	"rcByteOrder"
 7044      74654F72 
 7044      64657200 
 7045              	.LASF85:
 7046 01a7 4145534B 		.string	"AESKeySchedule"
 7046      65795363 
 7046      68656475 
 7046      6C6500
 7047              	.LASF333:
 7048 01b6 72634F75 		.string	"rcOutOfKDirectory"
 7048      744F664B 
 7048      44697265 
 7048      63746F72 
 7048      7900
 7049              	.LASF86:
 7050 01c8 726F756E 		.string	"round_keys"
 7050      645F6B65 
 7050      797300
 7051              	.LASF190:
 7052 01d3 7263436F 		.string	"rcConstructing"
 7052      6E737472 
 7052      75637469 
 7052      6E6700
 7053              	.LASF96:
 7054 01e2 6B636970 		.string	"kcipher_AES"
 7054      6865725F 
 7054      41455300 
 7055              	.LASF97:
 7056 01ee 6B636970 		.string	"kcipher_count"
 7056      6865725F 
 7056      636F756E 
 7056      7400
 7057              	.LASF379:
 7058 01fc 4B436970 		.string	"KCipherVecDecryptPcbc"
 7058      68657256 
 7058      65634465 
 7058      63727970 
 7058      74506362 
 7059              	.LASF393:
 7060 0212 74797065 		.string	"type"
 7060      00
 7061              	.LASF347:
GAS LISTING /tmp/ccQ6OdaV.s 			page 156


 7062 0217 626C6F63 		.string	"block"
 7062      6B00
 7063              	.LASF9:
 7064 021d 72635F74 		.string	"rc_t"
 7064      00
 7065              	.LASF266:
 7066 0222 7263466F 		.string	"rcFormat"
 7066      726D6174 
 7066      00
 7067              	.LASF324:
 7068 022b 7263556E 		.string	"rcUnauthorized"
 7068      61757468 
 7068      6F72697A 
 7068      656400
 7069              	.LASF349:
 7070 023a 63766F75 		.string	"cvout"
 7070      7400
 7071              	.LASF204:
 7072 0240 72635265 		.string	"rcRemoving"
 7072      6D6F7669 
 7072      6E6700
 7073              	.LASF117:
 7074 024b 72634B72 		.string	"rcKrypto"
 7074      7970746F 
 7074      00
 7075              	.LASF378:
 7076 0254 4B436970 		.string	"KCipherVecEncryptPcbc"
 7076      68657256 
 7076      6563456E 
 7076      63727970 
 7076      74506362 
 7077              	.LASF195:
 7078 026a 72635669 		.string	"rcVisiting"
 7078      73697469 
 7078      6E6700
 7079              	.LASF125:
 7080 0275 72634172 		.string	"rcArc"
 7080      6300
 7081              	.LASF362:
 7082 027b 4B436970 		.string	"KCipherVecSetEncryptCounterFunc"
 7082      68657256 
 7082      65635365 
 7082      74456E63 
 7082      72797074 
 7083              	.LASF100:
 7084 029b 72634578 		.string	"rcExe"
 7084      6500
 7085              	.LASF330:
 7086 02a1 7263546F 		.string	"rcTooLong"
 7086      6F4C6F6E 
 7086      6700
 7087              	.LASF258:
 7088 02ab 52434F62 		.string	"RCObject"
 7088      6A656374 
 7088      00
 7089              	.LASF268:
 7090 02b4 7263496E 		.string	"rcInterface"
GAS LISTING /tmp/ccQ6OdaV.s 			page 157


 7090      74657266 
 7090      61636500 
 7091              	.LASF196:
 7092 02c0 72635265 		.string	"rcResolving"
 7092      736F6C76 
 7092      696E6700 
 7093              	.LASF394:
 7094 02cc 4B436970 		.string	"KCipherVec_vt_v1"
 7094      68657256 
 7094      65635F76 
 7094      745F7631 
 7094      00
 7095              	.LASF88:
 7096 02dd 43697068 		.string	"CipherAes"
 7096      65724165 
 7096      7300
 7097              	.LASF138:
 7098 02e7 72634469 		.string	"rcDirectory"
 7098      72656374 
 7098      6F727900 
 7099              	.LASF2:
 7100 02f3 6C6F6E67 		.string	"long int"
 7100      20696E74 
 7100      00
 7101              	.LASF226:
 7102 02fc 72635661 		.string	"rcValidating"
 7102      6C696461 
 7102      74696E67 
 7102      00
 7103              	.LASF44:
 7104 0309 63697068 		.string	"cipher_ctr_func"
 7104      65725F63 
 7104      74725F66 
 7104      756E6300 
 7105              	.LASF128:
 7106 0319 72634172 		.string	"rcArgv"
 7106      677600
 7107              	.LASF104:
 7108 0320 72634353 		.string	"rcCS"
 7108      00
 7109              	.LASF185:
 7110 0325 72635572 		.string	"rcUri"
 7110      6900
 7111              	.LASF207:
 7112 032b 72634372 		.string	"rcCreating"
 7112      65617469 
 7112      6E6700
 7113              	.LASF40:
 7114 0336 656E6372 		.string	"encrypt_ivec"
 7114      7970745F 
 7114      69766563 
 7114      00
 7115              	.LASF57:
 7116 0343 656E6372 		.string	"encrypt"
 7116      79707400 
 7117              	.LASF72:
 7118 034b 43697068 		.string	"CipherBlock"
GAS LISTING /tmp/ccQ6OdaV.s 			page 158


 7118      6572426C 
 7118      6F636B00 
 7119              	.LASF77:
 7120 0357 76313238 		.string	"v128_u8_t"
 7120      5F75385F 
 7120      7400
 7121              	.LASF19:
 7122 0361 4442475F 		.string	"DBG_XML"
 7122      584D4C00 
 7123              	.LASF31:
 7124 0369 4442475F 		.string	"DBG_MOD_COUNT"
 7124      4D4F445F 
 7124      434F554E 
 7124      5400
 7125              	.LASF355:
 7126 0377 75736572 		.string	"user_key_bits"
 7126      5F6B6579 
 7126      5F626974 
 7126      7300
 7127              	.LASF109:
 7128 0385 72634442 		.string	"rcDB"
 7128      00
 7129              	.LASF287:
 7130 038a 7263436F 		.string	"rcConnection"
 7130      6E6E6563 
 7130      74696F6E 
 7130      00
 7131              	.LASF155:
 7132 0397 72634D67 		.string	"rcMgr"
 7132      7200
 7133              	.LASF317:
 7134 039d 72635669 		.string	"rcViolated"
 7134      6F6C6174 
 7134      656400
 7135              	.LASF45:
 7136 03a8 4B436970 		.string	"KCipherVec"
 7136      68657256 
 7136      656300
 7137              	.LASF250:
 7138 03b3 72634465 		.string	"rcDecrypting"
 7138      63727970 
 7138      74696E67 
 7138      00
 7139              	.LASF0:
 7140 03c0 7369676E 		.string	"signed char"
 7140      65642063 
 7140      68617200 
 7141              	.LASF5:
 7142 03cc 75696E74 		.string	"uint8_t"
 7142      385F7400 
 7143              	.LASF133:
 7144 03d4 72634368 		.string	"rcChar"
 7144      617200
 7145              	.LASF118:
 7146 03db 72635244 		.string	"rcRDBMS"
 7146      424D5300 
 7147              	.LASF162:
GAS LISTING /tmp/ccQ6OdaV.s 			page 159


 7148 03e3 72635175 		.string	"rcQueue"
 7148      65756500 
 7149              	.LASF356:
 7150 03eb 5F5F5052 		.string	"__PRETTY_FUNCTION__"
 7150      45545459 
 7150      5F46554E 
 7150      4354494F 
 7150      4E5F5F00 
 7151              	.LASF12:
 7152 03ff 4442475F 		.string	"DBG_MOD_NOT_FOUND"
 7152      4D4F445F 
 7152      4E4F545F 
 7152      464F554E 
 7152      4400
 7153              	.LASF214:
 7154 0411 72635265 		.string	"rcReverting"
 7154      76657274 
 7154      696E6700 
 7155              	.LASF130:
 7156 041d 72634261 		.string	"rcBarrier"
 7156      72726965 
 7156      7200
 7157              	.LASF314:
 7158 0427 72634578 		.string	"rcExhausted"
 7158      68617573 
 7158      74656400 
 7159              	.LASF3:
 7160 0433 756E7369 		.string	"unsigned char"
 7160      676E6564 
 7160      20636861 
 7160      7200
 7161              	.LASF187:
 7162 0441 5243436F 		.string	"RCContext"
 7162      6E746578 
 7162      7400
 7163              	.LASF150:
 7164 044b 72634C6F 		.string	"rcLock"
 7164      636B00
 7165              	.LASF303:
 7166 0452 72634261 		.string	"rcBadVersion"
 7166      64566572 
 7166      73696F6E 
 7166      00
 7167              	.LASF304:
 7168 045f 72634465 		.string	"rcDestroyed"
 7168      7374726F 
 7168      79656400 
 7169              	.LASF167:
 7170 046b 72635374 		.string	"rcString"
 7170      72696E67 
 7170      00
 7171              	.LASF129:
 7172 0474 72634174 		.string	"rcAttr"
 7172      747200
 7173              	.LASF371:
 7174 047b 4B436970 		.string	"KCipherVecEncryptEcb"
 7174      68657256 
GAS LISTING /tmp/ccQ6OdaV.s 			page 160


 7174      6563456E 
 7174      63727970 
 7174      74456362 
 7175              	.LASF151:
 7176 0490 72634C6F 		.string	"rcLog"
 7176      6700
 7177              	.LASF392:
 7178 0496 6E65775F 		.string	"new_obj"
 7178      6F626A00 
 7179              	.LASF15:
 7180 049e 4442475F 		.string	"DBG_KDB"
 7180      4B444200 
 7181              	.LASF255:
 7182 04a6 72635072 		.string	"rcProcessing"
 7182      6F636573 
 7182      73696E67 
 7182      00
 7183              	.LASF105:
 7184 04b3 72634646 		.string	"rcFF"
 7184      00
 7185              	.LASF106:
 7186 04b8 72634653 		.string	"rcFS"
 7186      00
 7187              	.LASF350:
 7188 04bd 43697068 		.string	"CipherVecIn"
 7188      65725665 
 7188      63496E00 
 7189              	.LASF193:
 7190 04c9 72634163 		.string	"rcAccessing"
 7190      63657373 
 7190      696E6700 
 7191              	.LASF311:
 7192 04d5 7263496E 		.string	"rcInterrupted"
 7192      74657272 
 7192      75707465 
 7192      6400
 7193              	.LASF319:
 7194 04e3 72634E6F 		.string	"rcNotFound"
 7194      74466F75 
 7194      6E6400
 7195              	.LASF11:
 7196 04ee 63686172 		.string	"char"
 7196      00
 7197              	.LASF157:
 7198 04f3 72634E6F 		.string	"rcNode"
 7198      646500
 7199              	.LASF366:
 7200 04fa 4B436970 		.string	"KCipherVecDecryptV1"
 7200      68657256 
 7200      65634465 
 7200      63727970 
 7200      74563100 
 7201              	.LASF29:
 7202 050e 4442475F 		.string	"DBG_AES"
 7202      41455300 
 7203              	.LASF288:
 7204 0516 72634572 		.string	"rcError"
GAS LISTING /tmp/ccQ6OdaV.s 			page 161


 7204      726F7200 
 7205              	.LASF387:
 7206 051e 706F626A 		.string	"pobj"
 7206      00
 7207              	.LASF205:
 7208 0523 7263436C 		.string	"rcClearing"
 7208      65617269 
 7208      6E6700
 7209              	.LASF263:
 7210 052e 72634F66 		.string	"rcOffset"
 7210      66736574 
 7210      00
 7211              	.LASF209:
 7212 0537 7263436C 		.string	"rcClosing"
 7212      6F73696E 
 7212      6700
 7213              	.LASF141:
 7214 0541 72634669 		.string	"rcFile"
 7214      6C6500
 7215              	.LASF170:
 7216 0548 72635469 		.string	"rcTimeout"
 7216      6D656F75 
 7216      7400
 7217              	.LASF158:
 7218 0552 72634E75 		.string	"rcNumeral"
 7218      6D657261 
 7218      6C00
 7219              	.LASF235:
 7220 055c 72635761 		.string	"rcWaiting"
 7220      6974696E 
 7220      6700
 7221              	.LASF239:
 7222 0566 72634650 		.string	"rcFPCoding"
 7222      436F6469 
 7222      6E6700
 7223              	.LASF291:
 7224 0571 72635369 		.string	"rcSize"
 7224      7A6500
 7225              	.LASF276:
 7226 0578 72634469 		.string	"rcDirEntry"
 7226      72456E74 
 7226      727900
 7227              	.LASF228:
 7228 0583 72634875 		.string	"rcHuffmanCoding"
 7228      66666D61 
 7228      6E436F64 
 7228      696E6700 
 7229              	.LASF24:
 7230 0593 4442475F 		.string	"DBG_KFG"
 7230      4B464700 
 7231              	.LASF309:
 7232 059b 72634275 		.string	"rcBusy"
 7232      737900
 7233              	.LASF21:
 7234 05a2 4442475F 		.string	"DBG_SRA"
 7234      53524100 
 7235              	.LASF267:
GAS LISTING /tmp/ccQ6OdaV.s 			page 162


 7236 05aa 72635472 		.string	"rcTransfer"
 7236      616E7366 
 7236      657200
 7237              	.LASF18:
 7238 05b5 4442475F 		.string	"DBG_KFS"
 7238      4B465300 
 7239              	.LASF222:
 7240 05bd 72635061 		.string	"rcPacking"
 7240      636B696E 
 7240      6700
 7241              	.LASF218:
 7242 05c7 7263436F 		.string	"rcCopying"
 7242      7079696E 
 7242      6700
 7243              	.LASF256:
 7244 05d1 72634964 		.string	"rcIdentifying"
 7244      656E7469 
 7244      6679696E 
 7244      6700
 7245              	.LASF397:
 7246 05df 2F686F6D 		.string	"/home/rodarmer/sra_sdk-2.3.1/linux/gcc/dyn/x86_64/dbg/obj/libs/krypto"
 7246      652F726F 
 7246      6461726D 
 7246      65722F73 
 7246      72615F73 
 7247              	.LASF60:
 7248 0625 64656372 		.string	"decrypt_ecb"
 7248      7970745F 
 7248      65636200 
 7249              	.LASF225:
 7250 0631 72634465 		.string	"rcDecoding"
 7250      636F6469 
 7250      6E6700
 7251              	.LASF389:
 7252 063c 4B436970 		.string	"KCipherVecAllocNull"
 7252      68657256 
 7252      6563416C 
 7252      6C6F634E 
 7252      756C6C00 
 7253              	.LASF153:
 7254 0650 72634D65 		.string	"rcMemMap"
 7254      6D4D6170 
 7254      00
 7255              	.LASF198:
 7256 0659 7263556E 		.string	"rcUnlocking"
 7256      6C6F636B 
 7256      696E6700 
 7257              	.LASF281:
 7258 0665 72634974 		.string	"rcItem"
 7258      656D00
 7259              	.LASF83:
 7260 066c 4B426C6F 		.string	"KBlockCipherVec_vt_v1"
 7260      636B4369 
 7260      70686572 
 7260      5665635F 
 7260      76745F76 
 7261              	.LASF17:
GAS LISTING /tmp/ccQ6OdaV.s 			page 163


 7262 0682 4442475F 		.string	"DBG_LEGREF"
 7262      4C454752 
 7262      454600
 7263              	.LASF348:
 7264 068d 6376696E 		.string	"cvin"
 7264      00
 7265              	.LASF199:
 7266 0692 72635265 		.string	"rcRenaming"
 7266      6E616D69 
 7266      6E6700
 7267              	.LASF354:
 7268 069d 75736572 		.string	"user_key"
 7268      5F6B6579 
 7268      00
 7269              	.LASF269:
 7270 06a6 72634964 		.string	"rcId"
 7270      00
 7271              	.LASF182:
 7272 06ab 7263436D 		.string	"rcCmd"
 7272      6400
 7273              	.LASF398:
 7274 06b1 43697068 		.string	"CipherVecOut"
 7274      65725665 
 7274      634F7574 
 7274      00
 7275              	.LASF27:
 7276 06be 4442475F 		.string	"DBG_LOADLIB"
 7276      4C4F4144 
 7276      4C494200 
 7277              	.LASF321:
 7278 06ca 7263556E 		.string	"rcUnlocked"
 7278      6C6F636B 
 7278      656400
 7279              	.LASF122:
 7280 06d5 52434D6F 		.string	"RCModule"
 7280      64756C65 
 7280      00
 7281              	.LASF283:
 7282 06de 7263456E 		.string	"rcEncryption"
 7282      63727970 
 7282      74696F6E 
 7282      00
 7283              	.LASF318:
 7284 06eb 72634578 		.string	"rcExists"
 7284      69737473 
 7284      00
 7285              	.LASF78:
 7286 06f4 43697068 		.string	"CipherVec"
 7286      65725665 
 7286      6300
 7287              	.LASF59:
 7288 06fe 656E6372 		.string	"encrypt_ecb"
 7288      7970745F 
 7288      65636200 
 7289              	.LASF337:
 7290 070a 72634F70 		.string	"rcOpen"
 7290      656E00
GAS LISTING /tmp/ccQ6OdaV.s 			page 164


 7291              	.LASF323:
 7292 0711 72634465 		.string	"rcDeadlock"
 7292      61646C6F 
 7292      636B00
 7293              	.LASF260:
 7294 071c 72634C69 		.string	"rcLink"
 7294      6E6B00
 7295              	.LASF247:
 7296 0723 7263466C 		.string	"rcFlushing"
 7296      75736869 
 7296      6E6700
 7297              	.LASF295:
 7298 072e 72634E6F 		.string	"rcNoErr"
 7298      45727200 
 7299              	.LASF274:
 7300 0736 72635461 		.string	"rcTag"
 7300      6700
 7301              	.LASF23:
 7302 073c 4442475F 		.string	"DBG_ALIGN"
 7302      414C4947 
 7302      4E00
 7303              	.LASF238:
 7304 0746 72634C6F 		.string	"rcLogging"
 7304      6767696E 
 7304      6700
 7305              	.LASF331:
 7306 0750 7263546F 		.string	"rcTooBig"
 7306      6F426967 
 7306      00
 7307              	.LASF175:
 7308 0759 72635665 		.string	"rcVector"
 7308      63746F72 
 7308      00
 7309              	.LASF210:
 7310 0762 72635265 		.string	"rcResizing"
 7310      73697A69 
 7310      6E6700
 7311              	.LASF184:
 7312 076d 72635175 		.string	"rcQuery"
 7312      65727900 
 7313              	.LASF8:
 7314 0775 6C6F6E67 		.string	"long unsigned int"
 7314      20756E73 
 7314      69676E65 
 7314      6420696E 
 7314      7400
 7315              	.LASF316:
 7316 0787 72634578 		.string	"rcExcessive"
 7316      63657373 
 7316      69766500 
 7317              	.LASF244:
 7318 0793 72634576 		.string	"rcEvaluating"
 7318      616C7561 
 7318      74696E67 
 7318      00
 7319              	.LASF181:
 7320 07a0 7263526E 		.string	"rcRng"
GAS LISTING /tmp/ccQ6OdaV.s 			page 165


 7320      6700
 7321              	.LASF189:
 7322 07a6 72634361 		.string	"rcCasting"
 7322      7374696E 
 7322      6700
 7323              	.LASF352:
 7324 07b0 73656C66 		.string	"self"
 7324      00
 7325              	.LASF149:
 7326 07b5 72634974 		.string	"rcIterator"
 7326      65726174 
 7326      6F7200
 7327              	.LASF376:
 7328 07c0 4B436970 		.string	"KCipherVecDecryptCbc"
 7328      68657256 
 7328      65634465 
 7328      63727970 
 7328      74436263 
 7329              	.LASF84:
 7330 07d5 4B426C6F 		.string	"KBlockCipherVec"
 7330      636B4369 
 7330      70686572 
 7330      56656300 
 7331              	.LASF166:
 7332 07e5 72635374 		.string	"rcStorage"
 7332      6F726167 
 7332      6500
 7333              	.LASF396:
 7334 07ef 2F686F6D 		.string	"/home/rodarmer/sra_sdk-2.3.1/libs/krypto/cipher-vec.c"
 7334      652F726F 
 7334      6461726D 
 7334      65722F73 
 7334      72615F73 
 7335              	.LASF68:
 7336 0825 64656372 		.string	"decrypt_ofb"
 7336      7970745F 
 7336      6F666200 
 7337              	.LASF46:
 7338 0831 626C6F63 		.string	"block_cipher"
 7338      6B5F6369 
 7338      70686572 
 7338      00
 7339              	.LASF372:
 7340 083e 626C6F63 		.string	"block_count"
 7340      6B5F636F 
 7340      756E7400 
 7341              	.LASF278:
 7342 084a 7263526F 		.string	"rcRow"
 7342      7700
 7343              	.LASF382:
 7344 0850 4B436970 		.string	"KCipherVecEncryptOfb"
 7344      68657256 
 7344      6563456E 
 7344      63727970 
 7344      744F6662 
 7345              	.LASF20:
 7346 0865 4442475F 		.string	"DBG_VDB"
GAS LISTING /tmp/ccQ6OdaV.s 			page 166


 7346      56444200 
 7347              	.LASF94:
 7348 086d 6B636970 		.string	"kcipher_type"
 7348      6865725F 
 7348      74797065 
 7348      00
 7349              	.LASF178:
 7350 087a 72634C61 		.string	"rcLastTarget_v1_0"
 7350      73745461 
 7350      72676574 
 7350      5F76315F 
 7350      3000
 7351              	.LASF186:
 7352 088c 72634C61 		.string	"rcLastTarget_v1_1"
 7352      73745461 
 7352      72676574 
 7352      5F76315F 
 7352      3100
 7353              	.LASF165:
 7354 089e 72635365 		.string	"rcSemaphore"
 7354      6D617068 
 7354      6F726500 
 7355              	.LASF219:
 7356 08aa 7263436F 		.string	"rcConcatenating"
 7356      6E636174 
 7356      656E6174 
 7356      696E6700 
 7357              	.LASF310:
 7358 08ba 7263496E 		.string	"rcIncomplete"
 7358      636F6D70 
 7358      6C657465 
 7358      00
 7359              	.LASF339:
 7360 08c7 72634E6F 		.string	"rcNotOpen"
 7360      744F7065 
 7360      6E00
 7361              	.LASF365:
 7362 08d1 4B436970 		.string	"KCipherVecEncryptV1"
 7362      68657256 
 7362      6563456E 
 7362      63727970 
 7362      74563100 
 7363              	.LASF148:
 7364 08e5 7263496E 		.string	"rcIndex"
 7364      64657800 
 7365              	.LASF67:
 7366 08ed 656E6372 		.string	"encrypt_ofb"
 7366      7970745F 
 7366      6F666200 
 7367              	.LASF55:
 7368 08f9 7365745F 		.string	"set_encrypt_ctr_func"
 7368      656E6372 
 7368      7970745F 
 7368      6374725F 
 7368      66756E63 
 7369              	.LASF22:
 7370 090e 4442475F 		.string	"DBG_XARC"
GAS LISTING /tmp/ccQ6OdaV.s 			page 167


 7370      58415243 
 7370      00
 7371              	.LASF395:
 7372 0917 474E5520 		.string	"GNU C 4.4.2"
 7372      4320342E 
 7372      342E3200 
 7373              	.LASF360:
 7374 0923 69766563 		.string	"ivec"
 7374      00
 7375              	.LASF101:
 7376 0928 72635275 		.string	"rcRuntime"
 7376      6E74696D 
 7376      6500
 7377              	.LASF140:
 7378 0932 7263586D 		.string	"rcXmlDoc"
 7378      6C446F63 
 7378      00
 7379              	.LASF73:
 7380 093b 6C6F6E67 		.string	"long long int"
 7380      206C6F6E 
 7380      6720696E 
 7380      7400
 7381              	.LASF221:
 7382 0949 7263506F 		.string	"rcPositioning"
 7382      73697469 
 7382      6F6E696E 
 7382      6700
 7383              	.LASF34:
 7384 0957 636F756E 		.string	"counter"
 7384      74657200 
 7385              	.LASF70:
 7386 095f 64656372 		.string	"decrypt_ctr"
 7386      7970745F 
 7386      63747200 
 7387              	.LASF95:
 7388 096b 6B636970 		.string	"kcipher_null"
 7388      6865725F 
 7388      6E756C6C 
 7388      00
 7389              	.LASF152:
 7390 0978 72634D44 		.string	"rcMD5SumFmt"
 7390      3553756D 
 7390      466D7400 
 7391              	.LASF388:
 7392 0984 4B436970 		.string	"KCipherVecInitAes"
 7392      68657256 
 7392      6563496E 
 7392      69744165 
 7392      7300
 7393              	.LASF203:
 7394 0996 7263496E 		.string	"rcInserting"
 7394      73657274 
 7394      696E6700 
 7395              	.LASF384:
 7396 09a2 4B436970 		.string	"KCipherVecEncryptCtr"
 7396      68657256 
 7396      6563456E 
GAS LISTING /tmp/ccQ6OdaV.s 			page 168


 7396      63727970 
 7396      74437472 
 7397              	.LASF251:
 7398 09b7 7263436F 		.string	"rcComparing"
 7398      6D706172 
 7398      696E6700 
 7399              	.LASF313:
 7400 09c3 7263456D 		.string	"rcEmpty"
 7400      70747900 
 7401              	.LASF145:
 7402 09cb 7263466F 		.string	"rcFormatter"
 7402      726D6174 
 7402      74657200 
 7403              	.LASF76:
 7404 09d7 646F7562 		.string	"double"
 7404      6C6500
 7405              	.LASF230:
 7406 09de 72635265 		.string	"rcRegistering"
 7406      67697374 
 7406      6572696E 
 7406      6700
 7407              	.LASF35:
 7408 09ec 72656663 		.string	"refcount"
 7408      6F756E74 
 7408      00
 7409              	.LASF119:
 7410 09f5 72634E53 		.string	"rcNS"
 7410      00
 7411              	.LASF262:
 7412 09fa 72635061 		.string	"rcParam"
 7412      72616D00 
 7413              	.LASF227:
 7414 0a02 72634578 		.string	"rcExecuting"
 7414      65637574 
 7414      696E6700 
 7415              	.LASF123:
 7416 0a0e 52435461 		.string	"RCTarget"
 7416      72676574 
 7416      00
 7417              	.LASF368:
 7418 0a17 4B436970 		.string	"KCipherVecDecryptV1Int"
 7418      68657256 
 7418      65634465 
 7418      63727970 
 7418      74563149 
 7419              	.LASF284:
 7420 0a2e 72634372 		.string	"rcCrc"
 7420      6300
 7421              	.LASF26:
 7422 0a34 4442475F 		.string	"DBG_SEARCH"
 7422      53454152 
 7422      434800
 7423              	.LASF112:
 7424 0a3f 7263584D 		.string	"rcXML"
 7424      4C00
 7425              	.LASF69:
 7426 0a45 656E6372 		.string	"encrypt_ctr"
GAS LISTING /tmp/ccQ6OdaV.s 			page 169


 7426      7970745F 
 7426      63747200 
 7427              	.LASF400:
 7428 0a51 4B436970 		.string	"KCipherVecClassName"
 7428      68657256 
 7428      6563436C 
 7428      6173734E 
 7428      616D6500 
 7429              	.LASF28:
 7430 0a65 4442475F 		.string	"DBG_VFS"
 7430      56465300 
 7431              	.LASF74:
 7432 0a6d 666C6F61 		.string	"float"
 7432      7400
 7433              	.LASF206:
 7434 0a73 72635570 		.string	"rcUpdating"
 7434      64617469 
 7434      6E6700
 7435              	.LASF399:
 7436 0a7e 4B436970 		.string	"KCipherVecMake"
 7436      68657256 
 7436      65634D61 
 7436      6B6500
 7437              	.LASF233:
 7438 0a8d 7263436F 		.string	"rcConverting"
 7438      6E766572 
 7438      74696E67 
 7438      00
 7439              	.LASF64:
 7440 0a9a 64656372 		.string	"decrypt_pcbc"
 7440      7970745F 
 7440      70636263 
 7440      00
 7441              	.LASF98:
 7442 0aa7 4B426C6F 		.string	"KBlockCipher"
 7442      636B4369 
 7442      70686572 
 7442      00
 7443              	.LASF176:
 7444 0ab4 72634479 		.string	"rcDylib"
 7444      6C696200 
 7445              	.LASF325:
 7446 0abc 72635265 		.string	"rcReadonly"
 7446      61646F6E 
 7446      6C7900
 7447              	.LASF369:
 7448 0ac7 4B436970 		.string	"KCipherVecEncrypt"
 7448      68657256 
 7448      6563456E 
 7448      63727970 
 7448      7400
 7449              	.LASF381:
 7450 0ad9 4B436970 		.string	"KCipherVecDecryptCfb"
 7450      68657256 
 7450      65634465 
 7450      63727970 
 7450      74436662 
GAS LISTING /tmp/ccQ6OdaV.s 			page 170


 7451              	.LASF7:
 7452 0aee 756E7369 		.string	"unsigned int"
 7452      676E6564 
 7452      20696E74 
 7452      00
 7453              	.LASF326:
 7454 0afb 72635772 		.string	"rcWriteonly"
 7454      6974656F 
 7454      6E6C7900 
 7455              	.LASF47:
 7456 0b07 4B436970 		.string	"KCipher_vt"
 7456      6865725F 
 7456      767400
 7457              	.LASF320:
 7458 0b12 72634C6F 		.string	"rcLocked"
 7458      636B6564 
 7458      00
 7459              	.LASF202:
 7460 0b1b 72635072 		.string	"rcProjecting"
 7460      6F6A6563 
 7460      74696E67 
 7460      00
 7461              	.LASF107:
 7462 0b28 72635053 		.string	"rcPS"
 7462      00
 7463              	.LASF292:
 7464 0b2d 72635265 		.string	"rcRefcount"
 7464      66636F75 
 7464      6E7400
 7465              	.LASF127:
 7466 0b38 7263546F 		.string	"rcTocEntry"
 7466      63456E74 
 7466      727900
 7467              	.LASF383:
 7468 0b43 4B436970 		.string	"KCipherVecDecryptOfb"
 7468      68657256 
 7468      65634465 
 7468      63727970 
 7468      744F6662 
 7469              	.LASF282:
 7470 0b58 72634D6F 		.string	"rcMode"
 7470      646500
 7471              	.LASF341:
 7472 0b5f 7263556E 		.string	"rcUnequal"
 7472      65717561 
 7472      6C00
 7473              	.LASF322:
 7474 0b69 72634465 		.string	"rcDetached"
 7474      74616368 
 7474      656400
 7475              	.LASF328:
 7476 0b74 7263496E 		.string	"rcInPlaceNotAllowed"
 7476      506C6163 
 7476      654E6F74 
 7476      416C6C6F 
 7476      77656400 
 7477              	.LASF270:
GAS LISTING /tmp/ccQ6OdaV.s 			page 171


 7478 0b88 72635261 		.string	"rcRange"
 7478      6E676500 
 7479              	.LASF58:
 7480 0b90 64656372 		.string	"decrypt"
 7480      79707400 
 7481              	.LASF280:
 7482 0b98 72634C61 		.string	"rcLastObject_v1_0"
 7482      73744F62 
 7482      6A656374 
 7482      5F76315F 
 7482      3000
 7483              	.LASF293:
 7484 0baa 72634C61 		.string	"rcLastObject_v1_1"
 7484      73744F62 
 7484      6A656374 
 7484      5F76315F 
 7484      3100
 7485              	.LASF99:
 7486 0bbc 62797465 		.string	"byte"
 7486      00
 7487              	.LASF315:
 7488 0bc1 7263496E 		.string	"rcInsufficient"
 7488      73756666 
 7488      69636965 
 7488      6E7400
 7489              	.LASF246:
 7490 0bd0 72634C61 		.string	"rcLastContext_v1_0"
 7490      7374436F 
 7490      6E746578 
 7490      745F7631 
 7490      5F3000
 7491              	.LASF257:
 7492 0be3 72634C61 		.string	"rcLastContext_v1_1"
 7492      7374436F 
 7492      6E746578 
 7492      745F7631 
 7492      5F3100
 7493              	.LASF390:
 7494 0bf6 4B436970 		.string	"KCipherVecInitNull"
 7494      68657256 
 7494      6563496E 
 7494      69744E75 
 7494      6C6C00
 7495              	.LASF39:
 7496 0c09 64656372 		.string	"decrypt_key"
 7496      7970745F 
 7496      6B657900 
 7497              	.LASF177:
 7498 0c15 72634578 		.string	"rcExpression"
 7498      70726573 
 7498      73696F6E 
 7498      00
 7499              	.LASF223:
 7500 0c22 7263556E 		.string	"rcUnpacking"
 7500      7061636B 
 7500      696E6700 
 7501              	.LASF139:
GAS LISTING /tmp/ccQ6OdaV.s 			page 172


 7502 0c2e 7263446F 		.string	"rcDoc"
 7502      6300
 7503              	.LASF380:
 7504 0c34 4B436970 		.string	"KCipherVecEncryptCfb"
 7504      68657256 
 7504      6563456E 
 7504      63727970 
 7504      74436662 
 7505              	.LASF13:
 7506 0c49 4442475F 		.string	"DBG_APP"
 7506      41505000 
 7507              	.LASF240:
 7508 0c51 72634D75 		.string	"rcMultiplexing"
 7508      6C746970 
 7508      6C657869 
 7508      6E6700
 7509              	.LASF242:
 7510 0c60 72635365 		.string	"rcSearching"
 7510      61726368 
 7510      696E6700 
 7511              	.LASF342:
 7512 0c6c 72634661 		.string	"rcFailed"
 7512      696C6564 
 7512      00
 7513              	.LASF48:
 7514 0c75 4B436970 		.string	"KCipher_vt_v1"
 7514      6865725F 
 7514      76745F76 
 7514      3100
 7515              	.LASF361:
 7516 0c83 4B436970 		.string	"KCipherVecSetDecryptIvec"
 7516      68657256 
 7516      65635365 
 7516      74446563 
 7516      72797074 
 7517              	.LASF307:
 7518 0c9c 7263496E 		.string	"rcIncorrect"
 7518      636F7272 
 7518      65637400 
 7519              	.LASF146:
 7520 0ca8 72634675 		.string	"rcFunctParam"
 7520      6E637450 
 7520      6172616D 
 7520      00
 7521              	.LASF38:
 7522 0cb5 656E6372 		.string	"encrypt_key"
 7522      7970745F 
 7522      6B657900 
 7523              	.LASF271:
 7524 0cc1 7263436F 		.string	"rcConstraint"
 7524      6E737472 
 7524      61696E74 
 7524      00
 7525              	.LASF217:
 7526 0cce 72634672 		.string	"rcFreezing"
 7526      65657A69 
 7526      6E6700
GAS LISTING /tmp/ccQ6OdaV.s 			page 173


 7527              	.LASF297:
 7528 0cd9 7263556E 		.string	"rcUnknown"
 7528      6B6E6F77 
 7528      6E00
 7529              	.LASF136:
 7530 0ce3 72634375 		.string	"rcCursor"
 7530      72736F72 
 7530      00
 7531              	.LASF294:
 7532 0cec 52435374 		.string	"RCState"
 7532      61746500 
 7533              	.LASF82:
 7534 0cf4 4B426C6F 		.string	"KBlockCipherByte"
 7534      636B4369 
 7534      70686572 
 7534      42797465 
 7534      00
 7535              	.LASF142:
 7536 0d05 72634669 		.string	"rcFileDesc"
 7536      6C654465 
 7536      736300
 7537              	.LASF80:
 7538 0d10 4B426C6F 		.string	"KBlockCipherByte_vt_v1"
 7538      636B4369 
 7538      70686572 
 7538      42797465 
 7538      5F76745F 
 7539              	.LASF334:
 7540 0d27 72634967 		.string	"rcIgnored"
 7540      6E6F7265 
 7540      6400
 7541              	.LASF91:
 7542 0d31 655F6976 		.string	"e_ivec"
 7542      656300
 7543              	.LASF192:
 7544 0d38 72635265 		.string	"rcReleasing"
 7544      6C656173 
 7544      696E6700 
 7545              	.LASF115:
 7546 0d44 72634B46 		.string	"rcKFG"
 7546      4700
 7547              	.LASF273:
 7548 0d4a 72634D65 		.string	"rcMessage"
 7548      73736167 
 7548      6500
 7549              	.LASF220:
 7550 0d54 7263466F 		.string	"rcFormatting"
 7550      726D6174 
 7550      74696E67 
 7550      00
 7551              	.LASF113:
 7552 0d61 72635352 		.string	"rcSRA"
 7552      4100
 7553              	.LASF289:
 7554 0d67 7263456E 		.string	"rcEnvironment"
 7554      7669726F 
 7554      6E6D656E 
GAS LISTING /tmp/ccQ6OdaV.s 			page 174


 7554      7400
 7555              	.LASF75:
 7556 0d75 6C6F6E67 		.string	"long long unsigned int"
 7556      206C6F6E 
 7556      6720756E 
 7556      7369676E 
 7556      65642069 
 7557              	.LASF50:
 7558 0d8c 64657374 		.string	"destroy"
 7558      726F7900 
 7559              	.LASF171:
 7560 0d94 7263546F 		.string	"rcToken"
 7560      6B656E00 
 7561              	.LASF231:
 7562 0d9c 7263546F 		.string	"rcTokenizing"
 7562      6B656E69 
 7562      7A696E67 
 7562      00
 7563              	.LASF16:
 7564 0da9 4442475F 		.string	"DBG_REF"
 7564      52454600 
 7565              	.LASF212:
 7566 0db1 72635772 		.string	"rcWriting"
 7566      6974696E 
 7566      6700
 7567              	.LASF188:
 7568 0dbb 7263416C 		.string	"rcAllocating"
 7568      6C6F6361 
 7568      74696E67 
 7568      00
 7569              	.LASF174:
 7570 0dc8 72635479 		.string	"rcType"
 7570      706500
 7571              	.LASF275:
 7572 0dcf 72635265 		.string	"rcResources"
 7572      736F7572 
 7572      63657300 
 7573              	.LASF156:
 7574 0ddb 72634E61 		.string	"rcNamelist"
 7574      6D656C69 
 7574      737400
 7575              	.LASF340:
 7576 0de6 7263556E 		.string	"rcUndefined"
 7576      64656669 
 7576      6E656400 
 7577              	.LASF92:
 7578 0df2 645F6976 		.string	"d_ivec"
 7578      656300
 7579              	.LASF308:
 7580 0df9 7263496E 		.string	"rcInconsistent"
 7580      636F6E73 
 7580      69737465 
 7580      6E7400
 7581              	.LASF253:
 7582 0e08 72635265 		.string	"rcRetrieving"
 7582      74726965 
 7582      76696E67 
GAS LISTING /tmp/ccQ6OdaV.s 			page 175


 7582      00
 7583              	.LASF49:
 7584 0e15 76657273 		.string	"version"
 7584      696F6E00 
 7585              	.LASF265:
 7586 0e1d 72634E61 		.string	"rcName"
 7586      6D6500
 7587              	.LASF367:
 7588 0e24 4B436970 		.string	"KCipherVecEncryptV1Int"
 7588      68657256 
 7588      6563456E 
 7588      63727970 
 7588      74563149 
 7589              	.LASF54:
 7590 0e3b 7365745F 		.string	"set_decrypt_ivec"
 7590      64656372 
 7590      7970745F 
 7590      69766563 
 7590      00
 7591              	.LASF302:
 7592 0e4c 72634E75 		.string	"rcNull"
 7592      6C6C00
 7593              	.LASF224:
 7594 0e53 7263456E 		.string	"rcEncoding"
 7594      636F6469 
 7594      6E6700
 7595              	.LASF143:
 7596 0e5e 72634669 		.string	"rcFileFormat"
 7596      6C65466F 
 7596      726D6174 
 7596      00
 7597              	.LASF180:
 7598 0e6b 7263456E 		.string	"rcEncryptionKey"
 7598      63727970 
 7598      74696F6E 
 7598      4B657900 
 7599              	.LASF245:
 7600 0e7b 7263496E 		.string	"rcInflating"
 7600      666C6174 
 7600      696E6700 
 7601              	.LASF327:
 7602 0e87 72634E6F 		.string	"rcNoPerm"
 7602      5065726D 
 7602      00
 7603              	.LASF353:
 7604 0e90 4B436970 		.string	"KCipherVecSetEncryptKey"
 7604      68657256 
 7604      65635365 
 7604      74456E63 
 7604      72797074 
 7605              	.LASF358:
 7606 0ea8 4B436970 		.string	"KCipherVecSetDecryptKey"
 7606      68657256 
 7606      65635365 
 7606      74446563 
 7606      72797074 
 7607              	.LASF215:
GAS LISTING /tmp/ccQ6OdaV.s 			page 176


 7608 0ec0 72635265 		.string	"rcResetting"
 7608      73657474 
 7608      696E6700 
 7609              	.LASF36:
 7610 0ecc 626C6F63 		.string	"block_size"
 7610      6B5F7369 
 7610      7A6500
 7611              	.LASF163:
 7612 0ed7 72635257 		.string	"rcRWLock"
 7612      4C6F636B 
 7612      00
 7613              	.LASF194:
 7614 0ee0 72634C69 		.string	"rcListing"
 7614      7374696E 
 7614      6700
 7615              	.LASF63:
 7616 0eea 656E6372 		.string	"encrypt_pcbc"
 7616      7970745F 
 7616      70636263 
 7616      00
 7617              	.LASF32:
 7618 0ef7 4B526566 		.string	"KRefcount"
 7618      636F756E 
 7618      7400
 7619              	.LASF144:
 7620 0f01 72634675 		.string	"rcFunction"
 7620      6E637469 
 7620      6F6E00
 7621              	.LASF300:
 7622 0f0c 7263556E 		.string	"rcUnrecognized"
 7622      7265636F 
 7622      676E697A 
 7622      656400
 7623              	.LASF87:
 7624 0f1b 6E756D62 		.string	"number_of_rounds"
 7624      65725F6F 
 7624      665F726F 
 7624      756E6473 
 7624      00
 7625              	.LASF116:
 7626 0f2c 7263416C 		.string	"rcAlign"
 7626      69676E00 
 7627              	.LASF179:
 7628 0f34 72635072 		.string	"rcProduction"
 7628      6F647563 
 7628      74696F6E 
 7628      00
 7629              	.LASF169:
 7630 0f41 72635468 		.string	"rcThread"
 7630      72656164 
 7630      00
 7631              	.LASF37:
 7632 0f4a 6E616D65 		.string	"name"
 7632      00
 7633              	.LASF391:
 7634 0f4f 6E756C6C 		.string	"null"
 7634      00
GAS LISTING /tmp/ccQ6OdaV.s 			page 177


 7635              	.LASF52:
 7636 0f54 7365745F 		.string	"set_decrypt_key"
 7636      64656372 
 7636      7970745F 
 7636      6B657900 
 7637              	.LASF373:
 7638 0f64 706F7574 		.string	"pout"
 7638      00
 7639              	.LASF33:
 7640 0f69 4B436970 		.string	"KCipher"
 7640      68657200 
 7641              	.LASF79:
 7642 0f71 4B426C6F 		.string	"KBlockCipher_vt"
 7642      636B4369 
 7642      70686572 
 7642      5F767400 
 7643              	.LASF286:
 7644 0f81 72635365 		.string	"rcSeed"
 7644      656400
 7645              	.LASF243:
 7646 0f88 72634C6F 		.string	"rcLoading"
 7646      6164696E 
 7646      6700
 7647              	.LASF1:
 7648 0f92 73686F72 		.string	"short int"
 7648      7420696E 
 7648      7400
 7649              	.LASF364:
 7650 0f9c 4B436970 		.string	"KCipherVecSetDecryptCounterFunc"
 7650      68657256 
 7650      65635365 
 7650      74446563 
 7650      72797074 
 7651              	.LASF351:
 7652 0fbc 4B436970 		.string	"KCipherVecDestroy"
 7652      68657256 
 7652      65634465 
 7652      7374726F 
 7652      7900
 7653              	.LASF363:
 7654 0fce 66756E63 		.string	"func"
 7654      00
 7655              	.LASF336:
 7656 0fd3 72634C61 		.string	"rcLastState_v1_0"
 7656      73745374 
 7656      6174655F 
 7656      76315F30 
 7656      00
 7657              	.LASF345:
 7658 0fe4 72634C61 		.string	"rcLastState_v1_1"
 7658      73745374 
 7658      6174655F 
 7658      76315F31 
 7658      00
 7659              	.LASF110:
 7660 0ff5 72635644 		.string	"rcVDB"
 7660      4200
GAS LISTING /tmp/ccQ6OdaV.s 			page 178


 7661              	.LASF93:
 7662 0ffb 43697068 		.string	"CipherNull"
 7662      65724E75 
 7662      6C6C00
 7663              	.LASF51:
 7664 1006 7365745F 		.string	"set_encrypt_key"
 7664      656E6372 
 7664      7970745F 
 7664      6B657900 
 7665              	.LASF108:
 7666 1016 72635846 		.string	"rcXF"
 7666      00
 7667              	.LASF71:
 7668 101b 4B436970 		.string	"KCipher_ptr"
 7668      6865725F 
 7668      70747200 
 7669              	.LASF89:
 7670 1027 655F6B65 		.string	"e_key"
 7670      7900
 7671              	.LASF191:
 7672 102d 72634465 		.string	"rcDestroying"
 7672      7374726F 
 7672      79696E67 
 7672      00
 7673              	.LASF296:
 7674 103a 7263446F 		.string	"rcDone"
 7674      6E6500
 7675              	.LASF126:
 7676 1041 7263546F 		.string	"rcToc"
 7676      6300
 7677              	.LASF43:
 7678 1047 64656372 		.string	"decrypt_counter_func"
 7678      7970745F 
 7678      636F756E 
 7678      7465725F 
 7678      66756E63 
 7679              	.LASF374:
 7680 105c 4B436970 		.string	"KCipherVecDecryptEcb"
 7680      68657256 
 7680      65634465 
 7680      63727970 
 7680      74456362 
 7681              	.LASF200:
 7682 1071 7263416C 		.string	"rcAliasing"
 7682      69617369 
 7682      6E6700
 7683              	.LASF161:
 7684 107c 72635072 		.string	"rcProcess"
 7684      6F636573 
 7684      7300
 7685              	.LASF259:
 7686 1086 72634E6F 		.string	"rcNoObj"
 7686      4F626A00 
 7687              	.LASF298:
 7688 108e 7263556E 		.string	"rcUnsupported"
 7688      73757070 
 7688      6F727465 
GAS LISTING /tmp/ccQ6OdaV.s 			page 179


 7688      6400
 7689              	.LASF237:
 7690 109c 72634465 		.string	"rcDetaching"
 7690      74616368 
 7690      696E6700 
 7691              	.LASF134:
 7692 10a8 7263436F 		.string	"rcColumn"
 7692      6C756D6E 
 7692      00
 7693              	.LASF42:
 7694 10b1 656E6372 		.string	"encrypt_counter_func"
 7694      7970745F 
 7694      636F756E 
 7694      7465725F 
 7694      66756E63 
 7695              	.LASF299:
 7696 10c6 7263556E 		.string	"rcUnexpected"
 7696      65787065 
 7696      63746564 
 7696      00
 7697              	.LASF62:
 7698 10d3 64656372 		.string	"decrypt_cbc"
 7698      7970745F 
 7698      63626300 
 7699              	.LASF6:
 7700 10df 75696E74 		.string	"uint32_t"
 7700      33325F74 
 7700      00
 7701              	.LASF120:
 7702 10e8 72635646 		.string	"rcVFS"
 7702      5300
 7703              	.LASF25:
 7704 10ee 4442475F 		.string	"DBG_KRYPTO"
 7704      4B525950 
 7704      544F00
 7705              	.LASF375:
 7706 10f9 4B436970 		.string	"KCipherVecEncryptCbc"
 7706      68657256 
 7706      6563456E 
 7706      63727970 
 7706      74436263 
 7707              	.LASF344:
 7708 110e 72635772 		.string	"rcWrongType"
 7708      6F6E6754 
 7708      79706500 
 7709              	.LASF279:
 7710 111a 72634C69 		.string	"rcLibrary"
 7710      62726172 
 7710      7900
 7711              	.LASF312:
 7712 1124 72634361 		.string	"rcCanceled"
 7712      6E63656C 
 7712      656400
 7713              	.LASF183:
 7714 112f 72634461 		.string	"rcData"
 7714      746100
 7715              	.LASF147:
GAS LISTING /tmp/ccQ6OdaV.s 			page 180


 7716 1136 72634865 		.string	"rcHeader"
 7716      61646572 
 7716      00
 7717              	.LASF4:
 7718 113f 73686F72 		.string	"short unsigned int"
 7718      7420756E 
 7718      7369676E 
 7718      65642069 
 7718      6E7400
 7719              	.LASF137:
 7720 1152 72634461 		.string	"rcDatabase"
 7720      74616261 
 7720      736500
 7721              	.LASF61:
 7722 115d 656E6372 		.string	"encrypt_cbc"
 7722      7970745F 
 7722      63626300 
 7723              	.LASF213:
 7724 1169 7263436F 		.string	"rcCommitting"
 7724      6D6D6974 
 7724      74696E67 
 7724      00
 7725              	.LASF241:
 7726 1176 7263436C 		.string	"rcClassifying"
 7726      61737369 
 7726      6679696E 
 7726      6700
 7727              	.LASF172:
 7728 1184 72635472 		.string	"rcTree"
 7728      656500
 7729              	.LASF41:
 7730 118b 64656372 		.string	"decrypt_ivec"
 7730      7970745F 
 7730      69766563 
 7730      00
 7731              	.LASF30:
 7732 1198 4442475F 		.string	"DBG_ARGS"
 7732      41524753 
 7732      00
 7733              	.LASF201:
 7734 11a1 72635365 		.string	"rcSelecting"
 7734      6C656374 
 7734      696E6700 
 7735              	.LASF102:
 7736 11ad 72635465 		.string	"rcText"
 7736      787400
 7737              	.LASF338:
 7738 11b4 72634F75 		.string	"rcOutoforder"
 7738      746F666F 
 7738      72646572 
 7738      00
 7739              	.LASF386:
 7740 11c1 4B436970 		.string	"KCipherVecAllocAes"
 7740      68657256 
 7740      6563416C 
 7740      6C6F6341 
 7740      657300
GAS LISTING /tmp/ccQ6OdaV.s 			page 181


 7741              	.LASF305:
 7742 11d4 7263496E 		.string	"rcInvalid"
 7742      76616C69 
 7742      6400
 7743              	.LASF252:
 7744 11de 7263496E 		.string	"rcInitializing"
 7744      69746961 
 7744      6C697A69 
 7744      6E6700
 7745              	.LASF131:
 7746 11ed 7263426C 		.string	"rcBlob"
 7746      6F6200
 7747              	.LASF53:
 7748 11f4 7365745F 		.string	"set_encrypt_ivec"
 7748      656E6372 
 7748      7970745F 
 7748      69766563 
 7748      00
 7749              	.LASF377:
 7750 1205 74656D70 		.string	"temp"
 7750      00
 7751              	.LASF229:
 7752 120a 72635265 		.string	"rcReindexing"
 7752      696E6465 
 7752      78696E67 
 7752      00
 7753              	.LASF124:
 7754 1217 72634E6F 		.string	"rcNoTarg"
 7754      54617267 
 7754      00
 7755              	.LASF306:
 7756 1220 7263436F 		.string	"rcCorrupt"
 7756      72727570 
 7756      7400
 7757              	.LASF335:
 7758 122a 72634F75 		.string	"rcOutofrange"
 7758      746F6672 
 7758      616E6765 
 7758      00
 7759              	.LASF164:
 7760 1237 72635363 		.string	"rcSchema"
 7760      68656D61 
 7760      00
 7761              	.LASF346:
 7762 1240 43697068 		.string	"CipherVec_u"
 7762      65725665 
 7762      635F7500 
 7763              	.LASF160:
 7764 124c 72635061 		.string	"rcPath"
 7764      746800
 7765              	.LASF211:
 7766 1253 72635265 		.string	"rcReading"
 7766      6164696E 
 7766      6700
 7767              	.LASF81:
 7768 125d 6B65795F 		.string	"key_size"
 7768      73697A65 
GAS LISTING /tmp/ccQ6OdaV.s 			page 182


 7768      00
 7769              	.LASF343:
 7770 1266 72634E6F 		.string	"rcNotAvailable"
 7770      74417661 
 7770      696C6162 
 7770      6C6500
 7771              	.LASF370:
 7772 1275 4B436970 		.string	"KCipherVecDecrypt"
 7772      68657256 
 7772      65634465 
 7772      63727970 
 7772      7400
 7773              	.LASF301:
 7774 1287 7263416D 		.string	"rcAmbiguous"
 7774      62696775 
 7774      6F757300 
 7775              		.ident	"GCC: (GNU) 4.4.2"
 7776              		.section	.note.GNU-stack,"",@progbits
GAS LISTING /tmp/ccQ6OdaV.s 			page 183


DEFINED SYMBOLS
                            *ABS*:0000000000000000 cipher-vec.c
     /tmp/ccQ6OdaV.s:14     .rodata:0000000000000000 KCipherVecClassName
     /tmp/ccQ6OdaV.s:18     .text:0000000000000000 CipherVecIn
     /tmp/ccQ6OdaV.s:48     .text:000000000000002b CipherVecOut
     /tmp/ccQ6OdaV.s:79     .text:0000000000000060 KCipherVecDestroy
     /tmp/ccQ6OdaV.s:127    .text:000000000000009a KCipherVecSetEncryptKey
     /tmp/ccQ6OdaV.s:2002   .rodata:00000000000002e0 __PRETTY_FUNCTION__.6562
     /tmp/ccQ6OdaV.s:2007   .rodata:0000000000000300 __func__.6564
     /tmp/ccQ6OdaV.s:212    .text:0000000000000184 KCipherVecSetDecryptKey
     /tmp/ccQ6OdaV.s:1992   .rodata:00000000000002a0 __PRETTY_FUNCTION__.6586
     /tmp/ccQ6OdaV.s:1997   .rodata:00000000000002c0 __func__.6588
     /tmp/ccQ6OdaV.s:301    .text:000000000000026e KCipherVecSetEncryptIvec
     /tmp/ccQ6OdaV.s:1987   .rodata:0000000000000280 __PRETTY_FUNCTION__.6608
     /tmp/ccQ6OdaV.s:352    .text:00000000000002f1 KCipherVecSetDecryptIvec
     /tmp/ccQ6OdaV.s:1982   .rodata:0000000000000260 __PRETTY_FUNCTION__.6621
     /tmp/ccQ6OdaV.s:407    .text:0000000000000374 KCipherVecSetEncryptCounterFunc
     /tmp/ccQ6OdaV.s:1977   .rodata:0000000000000240 __PRETTY_FUNCTION__.6634
     /tmp/ccQ6OdaV.s:452    .text:00000000000003e3 KCipherVecSetDecryptCounterFunc
     /tmp/ccQ6OdaV.s:1972   .rodata:0000000000000220 __PRETTY_FUNCTION__.6644
     /tmp/ccQ6OdaV.s:497    .text:0000000000000452 KCipherVecEncryptV1
     /tmp/ccQ6OdaV.s:525    .text:0000000000000479 KCipherVecDecryptV1
     /tmp/ccQ6OdaV.s:553    .text:00000000000004a0 KCipherVecEncryptV1Int
     /tmp/ccQ6OdaV.s:593    .text:00000000000004f3 KCipherVecDecryptV1Int
     /tmp/ccQ6OdaV.s:633    .text:0000000000000546 KCipherVecEncrypt
     /tmp/ccQ6OdaV.s:1962   .rodata:00000000000001d0 __func__.6694
     /tmp/ccQ6OdaV.s:682    .text:00000000000005aa KCipherVecDecrypt
     /tmp/ccQ6OdaV.s:1952   .rodata:0000000000000190 __func__.6710
     /tmp/ccQ6OdaV.s:733    .text:0000000000000615 KCipherVecEncryptEcb
     /tmp/ccQ6OdaV.s:789    .text:0000000000000685 KCipherVecDecryptEcb
     /tmp/ccQ6OdaV.s:845    .text:00000000000006f5 KCipherVecEncryptCbc
     /tmp/ccQ6OdaV.s:927    .text:00000000000007c3 KCipherVecDecryptCbc
     /tmp/ccQ6OdaV.s:1013   .text:0000000000000897 KCipherVecEncryptPcbc
     /tmp/ccQ6OdaV.s:1100   .text:0000000000000974 KCipherVecDecryptPcbc
     /tmp/ccQ6OdaV.s:1182   .text:0000000000000a3a KCipherVecEncryptCfb
     /tmp/ccQ6OdaV.s:1262   .text:0000000000000b00 KCipherVecDecryptCfb
     /tmp/ccQ6OdaV.s:1342   .text:0000000000000bc6 KCipherVecEncryptOfb
     /tmp/ccQ6OdaV.s:1422   .text:0000000000000c8c KCipherVecDecryptOfb
     /tmp/ccQ6OdaV.s:1457   .text:0000000000000cc5 KCipherVecEncryptCtr
     /tmp/ccQ6OdaV.s:1942   .rodata:0000000000000150 __func__.6944
     /tmp/ccQ6OdaV.s:1486   .text:0000000000000cfb KCipherVecDecryptCtr
     /tmp/ccQ6OdaV.s:1932   .rodata:0000000000000110 __func__.6954
     /tmp/ccQ6OdaV.s:1518   .data.rel.local:0000000000000000 KCipherVec_vt_v1
     /tmp/ccQ6OdaV.s:1544   .text:0000000000000d31 KCipherVecAllocAes
     /tmp/ccQ6OdaV.s:1922   .rodata:00000000000000d0 __func__.6964
     /tmp/ccQ6OdaV.s:1586   .text:0000000000000d8c KCipherVecInitAes
     /tmp/ccQ6OdaV.s:1647   .text:0000000000000e2a KCipherVecAllocNull
     /tmp/ccQ6OdaV.s:1912   .rodata:0000000000000090 __func__.6991
     /tmp/ccQ6OdaV.s:1689   .text:0000000000000e85 KCipherVecInitNull
     /tmp/ccQ6OdaV.s:1751   .text:0000000000000f1a KCipherVecMake
     /tmp/ccQ6OdaV.s:1903   .rodata:000000000000006c __func__.7019
     /tmp/ccQ6OdaV.s:1907   .rodata:000000000000007b __PRETTY_FUNCTION__.7018
     /tmp/ccQ6OdaV.s:1917   .rodata:00000000000000b0 __PRETTY_FUNCTION__.6990
     /tmp/ccQ6OdaV.s:1927   .rodata:00000000000000f0 __PRETTY_FUNCTION__.6963
     /tmp/ccQ6OdaV.s:1937   .rodata:0000000000000130 __PRETTY_FUNCTION__.6953
     /tmp/ccQ6OdaV.s:1947   .rodata:0000000000000170 __PRETTY_FUNCTION__.6943
     /tmp/ccQ6OdaV.s:1957   .rodata:00000000000001b0 __PRETTY_FUNCTION__.6709
GAS LISTING /tmp/ccQ6OdaV.s 			page 184


     /tmp/ccQ6OdaV.s:1967   .rodata:00000000000001f0 __PRETTY_FUNCTION__.6693

UNDEFINED SYMBOLS
_GLOBAL_OFFSET_TABLE_
memmove
KCipherDestroy
free
__assert_fail
SetRCFileFuncLine
memcpy
calloc
KCipherInit
KNullBlockCipherVecMake
KAESBlockCipherVecMake
