GAS LISTING /tmp/ccf9IsGZ.s 			page 1


   1              		.file	"cipher-vec.c"
   2              		.section	.debug_abbrev,"",@progbits
   3              	.Ldebug_abbrev0:
   4              		.section	.debug_info,"",@progbits
   5              	.Ldebug_info0:
   6              		.section	.debug_line,"",@progbits
   7              	.Ldebug_line0:
   8 0000 CF030000 		.text
   8      0200E801 
   8      00000101 
   8      FB0E0D00 
   8      01010101 
   9              	.Ltext0:
  10              	.globl KCipherVecAesNiClassName
  11              		.section	.rodata
  12              		.type	KCipherVecAesNiClassName, @object
  13              		.size	KCipherVecAesNiClassName, 12
  14              	KCipherVecAesNiClassName:
  15 0000 43495048 		.string	"CIPHER_IMPL"
  15      45525F49 
  15      4D504C00 
  16              		.text
  17              		.type	CipherVecIn, @function
  18              	CipherVecIn:
  19              	.LFB601:
  20              		.file 1 "/home/rodarmer/sra_sdk-2.3.1/libs/krypto/cipher-vec.c"
   1:/home/rodarmer/sra_sdk-2.3.1/libs/krypto/cipher-vec.c **** /*===========================================================================
   2:/home/rodarmer/sra_sdk-2.3.1/libs/krypto/cipher-vec.c ****  *
   3:/home/rodarmer/sra_sdk-2.3.1/libs/krypto/cipher-vec.c ****  *                            PUBLIC DOMAIN NOTICE
   4:/home/rodarmer/sra_sdk-2.3.1/libs/krypto/cipher-vec.c ****  *               National Center for Biotechnology Information
   5:/home/rodarmer/sra_sdk-2.3.1/libs/krypto/cipher-vec.c ****  *
   6:/home/rodarmer/sra_sdk-2.3.1/libs/krypto/cipher-vec.c ****  *  This software/database is a "United States Government Work" under the
   7:/home/rodarmer/sra_sdk-2.3.1/libs/krypto/cipher-vec.c ****  *  terms of the United States Copyright Act.  It was written as part of
   8:/home/rodarmer/sra_sdk-2.3.1/libs/krypto/cipher-vec.c ****  *  the author's official duties as a United States Government employee and
   9:/home/rodarmer/sra_sdk-2.3.1/libs/krypto/cipher-vec.c ****  *  thus cannot be copyrighted.  This software/database is freely available
  10:/home/rodarmer/sra_sdk-2.3.1/libs/krypto/cipher-vec.c ****  *  to the public for use. The National Library of Medicine and the U.S.
  11:/home/rodarmer/sra_sdk-2.3.1/libs/krypto/cipher-vec.c ****  *  Government have not placed any restriction on its use or reproduction.
  12:/home/rodarmer/sra_sdk-2.3.1/libs/krypto/cipher-vec.c ****  *
  13:/home/rodarmer/sra_sdk-2.3.1/libs/krypto/cipher-vec.c ****  *  Although all reasonable efforts have been taken to ensure the accuracy
  14:/home/rodarmer/sra_sdk-2.3.1/libs/krypto/cipher-vec.c ****  *  and reliability of the software and data, the NLM and the U.S.
  15:/home/rodarmer/sra_sdk-2.3.1/libs/krypto/cipher-vec.c ****  *  Government do not and cannot warrant the performance or results that
  16:/home/rodarmer/sra_sdk-2.3.1/libs/krypto/cipher-vec.c ****  *  may be obtained by using this software or data. The NLM and the U.S.
  17:/home/rodarmer/sra_sdk-2.3.1/libs/krypto/cipher-vec.c ****  *  Government disclaim all warranties, express or implied, including
  18:/home/rodarmer/sra_sdk-2.3.1/libs/krypto/cipher-vec.c ****  *  warranties of performance, merchantability or fitness for any particular
  19:/home/rodarmer/sra_sdk-2.3.1/libs/krypto/cipher-vec.c ****  *  purpose.
  20:/home/rodarmer/sra_sdk-2.3.1/libs/krypto/cipher-vec.c ****  *
  21:/home/rodarmer/sra_sdk-2.3.1/libs/krypto/cipher-vec.c ****  *  Please cite the author in any work or product based on this material.
  22:/home/rodarmer/sra_sdk-2.3.1/libs/krypto/cipher-vec.c ****  *
  23:/home/rodarmer/sra_sdk-2.3.1/libs/krypto/cipher-vec.c ****  * ===========================================================================
  24:/home/rodarmer/sra_sdk-2.3.1/libs/krypto/cipher-vec.c ****  */
  25:/home/rodarmer/sra_sdk-2.3.1/libs/krypto/cipher-vec.c **** 
  26:/home/rodarmer/sra_sdk-2.3.1/libs/krypto/cipher-vec.c **** #include <krypto/extern.h>
  27:/home/rodarmer/sra_sdk-2.3.1/libs/krypto/cipher-vec.c **** #include <klib/defs.h>
  28:/home/rodarmer/sra_sdk-2.3.1/libs/krypto/cipher-vec.c **** 
  29:/home/rodarmer/sra_sdk-2.3.1/libs/krypto/cipher-vec.c **** /* CIPHER_IMPL and BLOCKCIPHER_IMPL are defined in this header */
  30:/home/rodarmer/sra_sdk-2.3.1/libs/krypto/cipher-vec.c **** #include "ncbi-priv.h"
  31:/home/rodarmer/sra_sdk-2.3.1/libs/krypto/cipher-vec.c **** /* CIPHER_IMPL is used in this header */
GAS LISTING /tmp/ccf9IsGZ.s 			page 2


  32:/home/rodarmer/sra_sdk-2.3.1/libs/krypto/cipher-vec.c **** #include "cipher-impl.h"
  33:/home/rodarmer/sra_sdk-2.3.1/libs/krypto/cipher-vec.c **** /* BLOCKCIPHER_IMPL is used in this header */
  34:/home/rodarmer/sra_sdk-2.3.1/libs/krypto/cipher-vec.c **** #include "blockcipher-impl.h"
  35:/home/rodarmer/sra_sdk-2.3.1/libs/krypto/cipher-vec.c **** 
  36:/home/rodarmer/sra_sdk-2.3.1/libs/krypto/cipher-vec.c **** #include "aes-ncbi-priv.h"
  37:/home/rodarmer/sra_sdk-2.3.1/libs/krypto/cipher-vec.c **** #include "null-ncbi-priv.h"
  38:/home/rodarmer/sra_sdk-2.3.1/libs/krypto/cipher-vec.c **** #include "cipher-priv.h"
  39:/home/rodarmer/sra_sdk-2.3.1/libs/krypto/cipher-vec.c **** #include "blockcipher-priv.h"
  40:/home/rodarmer/sra_sdk-2.3.1/libs/krypto/cipher-vec.c **** 
  41:/home/rodarmer/sra_sdk-2.3.1/libs/krypto/cipher-vec.c **** #include <krypto/cipher.h>
  42:/home/rodarmer/sra_sdk-2.3.1/libs/krypto/cipher-vec.c **** #include <krypto/ciphermgr.h>
  43:/home/rodarmer/sra_sdk-2.3.1/libs/krypto/cipher-vec.c **** 
  44:/home/rodarmer/sra_sdk-2.3.1/libs/krypto/cipher-vec.c **** #include <klib/defs.h>
  45:/home/rodarmer/sra_sdk-2.3.1/libs/krypto/cipher-vec.c **** #include <klib/refcount.h>
  46:/home/rodarmer/sra_sdk-2.3.1/libs/krypto/cipher-vec.c **** #include <klib/out.h>
  47:/home/rodarmer/sra_sdk-2.3.1/libs/krypto/cipher-vec.c **** #include <klib/rc.h>
  48:/home/rodarmer/sra_sdk-2.3.1/libs/krypto/cipher-vec.c **** 
  49:/home/rodarmer/sra_sdk-2.3.1/libs/krypto/cipher-vec.c **** #include <stdlib.h>
  50:/home/rodarmer/sra_sdk-2.3.1/libs/krypto/cipher-vec.c **** #include <string.h>
  51:/home/rodarmer/sra_sdk-2.3.1/libs/krypto/cipher-vec.c **** #include <assert.h>
  52:/home/rodarmer/sra_sdk-2.3.1/libs/krypto/cipher-vec.c **** 
  53:/home/rodarmer/sra_sdk-2.3.1/libs/krypto/cipher-vec.c **** 
  54:/home/rodarmer/sra_sdk-2.3.1/libs/krypto/cipher-vec.c **** const char CMEMBER(ClassName)[] = CLASS_STRING(CIPHER_IMPL);
  55:/home/rodarmer/sra_sdk-2.3.1/libs/krypto/cipher-vec.c **** 
  56:/home/rodarmer/sra_sdk-2.3.1/libs/krypto/cipher-vec.c **** 
  57:/home/rodarmer/sra_sdk-2.3.1/libs/krypto/cipher-vec.c **** 
  58:/home/rodarmer/sra_sdk-2.3.1/libs/krypto/cipher-vec.c **** struct CIPHER_IMPL
  59:/home/rodarmer/sra_sdk-2.3.1/libs/krypto/cipher-vec.c **** {
  60:/home/rodarmer/sra_sdk-2.3.1/libs/krypto/cipher-vec.c ****     KCipher dad;
  61:/home/rodarmer/sra_sdk-2.3.1/libs/krypto/cipher-vec.c ****     const KBlockCipherVec * block_cipher;
  62:/home/rodarmer/sra_sdk-2.3.1/libs/krypto/cipher-vec.c **** };
  63:/home/rodarmer/sra_sdk-2.3.1/libs/krypto/cipher-vec.c **** 
  64:/home/rodarmer/sra_sdk-2.3.1/libs/krypto/cipher-vec.c **** typedef union CipherVec_u
  65:/home/rodarmer/sra_sdk-2.3.1/libs/krypto/cipher-vec.c **** {
  66:/home/rodarmer/sra_sdk-2.3.1/libs/krypto/cipher-vec.c ****     CipherVec   vec;
  67:/home/rodarmer/sra_sdk-2.3.1/libs/krypto/cipher-vec.c ****     CipherBlock block;
  68:/home/rodarmer/sra_sdk-2.3.1/libs/krypto/cipher-vec.c **** } CipherVec_u;
  69:/home/rodarmer/sra_sdk-2.3.1/libs/krypto/cipher-vec.c **** 
  70:/home/rodarmer/sra_sdk-2.3.1/libs/krypto/cipher-vec.c **** /*
  71:/home/rodarmer/sra_sdk-2.3.1/libs/krypto/cipher-vec.c ****  * Read a blocks worth of bytes into an AESState
  72:/home/rodarmer/sra_sdk-2.3.1/libs/krypto/cipher-vec.c ****  */
  73:/home/rodarmer/sra_sdk-2.3.1/libs/krypto/cipher-vec.c **** static __inline__ CipherVec CipherVecIn (const void * cvin)
  74:/home/rodarmer/sra_sdk-2.3.1/libs/krypto/cipher-vec.c **** {
  21              		.loc 1 74 0
  22              		.cfi_startproc
  23 0000 55       		pushq	%rbp
  24              	.LCFI0:
  25              		.cfi_def_cfa_offset 16
  26 0001 4889E5   		movq	%rsp, %rbp
  27              		.cfi_offset 6, -16
  28              	.LCFI1:
  29              		.cfi_def_cfa_register 6
  30 0004 48897DF8 		movq	%rdi, -8(%rbp)
  75:/home/rodarmer/sra_sdk-2.3.1/libs/krypto/cipher-vec.c **** #if USE_VEC_REG
  76:/home/rodarmer/sra_sdk-2.3.1/libs/krypto/cipher-vec.c ****     register CipherVec cv;
  77:/home/rodarmer/sra_sdk-2.3.1/libs/krypto/cipher-vec.c **** 
  78:/home/rodarmer/sra_sdk-2.3.1/libs/krypto/cipher-vec.c ****     __asm__ (
GAS LISTING /tmp/ccf9IsGZ.s 			page 3


  31              		.loc 1 78 0
  32 0008 488B45F8 		movq	-8(%rbp), %rax
  33 000c 4889C7   		movq	%rax, %rdi
  34              	#APP
  35              	# 78 "/home/rodarmer/sra_sdk-2.3.1/libs/krypto/cipher-vec.c" 1
  79              	        "movdqu (%[a]),%[s]" : [s] "=x" (cv) : [a] "D" (cvin)
  36              		movdqu (%rdi),%xmm0
  37              	# 0 "" 2
  38              	#NO_APP
  39 0013 660F7F45 		movdqa	%xmm0, -32(%rbp)
  39      E0
  80:/home/rodarmer/sra_sdk-2.3.1/libs/krypto/cipher-vec.c ****         );
  81:/home/rodarmer/sra_sdk-2.3.1/libs/krypto/cipher-vec.c **** 
  82:/home/rodarmer/sra_sdk-2.3.1/libs/krypto/cipher-vec.c ****     return cv;
  40              		.loc 1 82 0
  41 0018 660F6F45 		movdqa	-32(%rbp), %xmm0
  41      E0
  83:/home/rodarmer/sra_sdk-2.3.1/libs/krypto/cipher-vec.c **** #else
  84:/home/rodarmer/sra_sdk-2.3.1/libs/krypto/cipher-vec.c ****     CipherVec_u u;
  85:/home/rodarmer/sra_sdk-2.3.1/libs/krypto/cipher-vec.c **** 
  86:/home/rodarmer/sra_sdk-2.3.1/libs/krypto/cipher-vec.c ****     memmove (&u.block, cvin, sizeof (u));
  87:/home/rodarmer/sra_sdk-2.3.1/libs/krypto/cipher-vec.c ****     return u.vec;
  88:/home/rodarmer/sra_sdk-2.3.1/libs/krypto/cipher-vec.c **** #endif
  89:/home/rodarmer/sra_sdk-2.3.1/libs/krypto/cipher-vec.c **** }
  42              		.loc 1 89 0
  43 001d C9       		leave
  44 001e C3       		ret
  45              		.cfi_endproc
  46              	.LFE601:
  47              		.size	CipherVecIn, .-CipherVecIn
  48              		.type	CipherVecOut, @function
  49              	CipherVecOut:
  50              	.LFB602:
  90:/home/rodarmer/sra_sdk-2.3.1/libs/krypto/cipher-vec.c **** 
  91:/home/rodarmer/sra_sdk-2.3.1/libs/krypto/cipher-vec.c **** 
  92:/home/rodarmer/sra_sdk-2.3.1/libs/krypto/cipher-vec.c **** 
  93:/home/rodarmer/sra_sdk-2.3.1/libs/krypto/cipher-vec.c **** /*
  94:/home/rodarmer/sra_sdk-2.3.1/libs/krypto/cipher-vec.c ****  * Write a block's worth of bytes out from an AESState
  95:/home/rodarmer/sra_sdk-2.3.1/libs/krypto/cipher-vec.c ****  */
  96:/home/rodarmer/sra_sdk-2.3.1/libs/krypto/cipher-vec.c **** static __inline__ void CipherVecOut (const CipherVec cv, void * cvout)
  97:/home/rodarmer/sra_sdk-2.3.1/libs/krypto/cipher-vec.c **** {
  51              		.loc 1 97 0
  52              		.cfi_startproc
  53 001f 55       		pushq	%rbp
  54              	.LCFI2:
  55              		.cfi_def_cfa_offset 16
  56 0020 4889E5   		movq	%rsp, %rbp
  57              		.cfi_offset 6, -16
  58              	.LCFI3:
  59              		.cfi_def_cfa_register 6
  60 0023 660F7F45 		movdqa	%xmm0, -16(%rbp)
  60      F0
  61 0028 48897DE8 		movq	%rdi, -24(%rbp)
  98:/home/rodarmer/sra_sdk-2.3.1/libs/krypto/cipher-vec.c **** #if USE_VEC_REG
  99:/home/rodarmer/sra_sdk-2.3.1/libs/krypto/cipher-vec.c ****     register CipherVec rcv = cv;
  62              		.loc 1 99 0
  63 002c 660F6F45 		movdqa	-16(%rbp), %xmm0
GAS LISTING /tmp/ccf9IsGZ.s 			page 4


  63      F0
  64 0031 660F7F45 		movdqa	%xmm0, -48(%rbp)
  64      D0
 100:/home/rodarmer/sra_sdk-2.3.1/libs/krypto/cipher-vec.c **** 
 101:/home/rodarmer/sra_sdk-2.3.1/libs/krypto/cipher-vec.c ****     __asm__ (
  65              		.loc 1 101 0
  66 0036 488B45E8 		movq	-24(%rbp), %rax
  67 003a 660F6F45 		movdqa	-48(%rbp), %xmm0
  67      D0
  68 003f 4889C7   		movq	%rax, %rdi
  69              	#APP
  70              	# 101 "/home/rodarmer/sra_sdk-2.3.1/libs/krypto/cipher-vec.c" 1
 102              	        "movdqu %[s],(%[a])" : : [s] "x" (rcv), [a] "D" (cvout)
 103:/home/rodarmer/sra_sdk-2.3.1/libs/krypto/cipher-vec.c ****         );
 104:/home/rodarmer/sra_sdk-2.3.1/libs/krypto/cipher-vec.c **** #else
 105:/home/rodarmer/sra_sdk-2.3.1/libs/krypto/cipher-vec.c ****     CipherVec lcv = cv;
 106:/home/rodarmer/sra_sdk-2.3.1/libs/krypto/cipher-vec.c ****     memmove (cvout, &lcv, sizeof (lcv));
 107:/home/rodarmer/sra_sdk-2.3.1/libs/krypto/cipher-vec.c **** #endif
 108:/home/rodarmer/sra_sdk-2.3.1/libs/krypto/cipher-vec.c **** }
  71              		movdqu %xmm0,(%rdi)
  72              	# 0 "" 2
  73              		.loc 1 108 0
  74              	#NO_APP
  75 0046 C9       		leave
  76 0047 C3       		ret
  77              		.cfi_endproc
  78              	.LFE602:
  79              		.size	CipherVecOut, .-CipherVecOut
  80              		.type	KCipherVecAesNiDestroy, @function
  81              	KCipherVecAesNiDestroy:
  82              	.LFB603:
 109:/home/rodarmer/sra_sdk-2.3.1/libs/krypto/cipher-vec.c **** 
 110:/home/rodarmer/sra_sdk-2.3.1/libs/krypto/cipher-vec.c **** 
 111:/home/rodarmer/sra_sdk-2.3.1/libs/krypto/cipher-vec.c **** static rc_t CMEMBER(Destroy) (CIPHER_IMPL * self)
 112:/home/rodarmer/sra_sdk-2.3.1/libs/krypto/cipher-vec.c **** {
  83              		.loc 1 112 0
  84              		.cfi_startproc
  85 0048 55       		pushq	%rbp
  86              	.LCFI4:
  87              		.cfi_def_cfa_offset 16
  88 0049 4889E5   		movq	%rsp, %rbp
  89              		.cfi_offset 6, -16
  90              	.LCFI5:
  91              		.cfi_def_cfa_register 6
  92 004c 4883EC20 		subq	$32, %rsp
  93 0050 48897DE8 		movq	%rdi, -24(%rbp)
 113:/home/rodarmer/sra_sdk-2.3.1/libs/krypto/cipher-vec.c ****     rc_t rc = 0;
  94              		.loc 1 113 0
  95 0054 C745FC00 		movl	$0, -4(%rbp)
  95      000000
 114:/home/rodarmer/sra_sdk-2.3.1/libs/krypto/cipher-vec.c **** 
 115:/home/rodarmer/sra_sdk-2.3.1/libs/krypto/cipher-vec.c ****     if (self)
  96              		.loc 1 115 0
  97 005b 48837DE8 		cmpq	$0, -24(%rbp)
  97      00
  98 0060 741B     		je	.L6
 116:/home/rodarmer/sra_sdk-2.3.1/libs/krypto/cipher-vec.c ****     {
GAS LISTING /tmp/ccf9IsGZ.s 			page 5


 117:/home/rodarmer/sra_sdk-2.3.1/libs/krypto/cipher-vec.c ****         rc =  KCipherDestroy (&self->dad);
  99              		.loc 1 117 0
 100 0062 488B45E8 		movq	-24(%rbp), %rax
 101 0066 4889C7   		movq	%rax, %rdi
 102 0069 E8000000 		call	KCipherDestroy@PLT
 102      00
 103 006e 8945FC   		movl	%eax, -4(%rbp)
 118:/home/rodarmer/sra_sdk-2.3.1/libs/krypto/cipher-vec.c ****         free (self);
 104              		.loc 1 118 0
 105 0071 488B45E8 		movq	-24(%rbp), %rax
 106 0075 4889C7   		movq	%rax, %rdi
 107 0078 E8000000 		call	free@PLT
 107      00
 108              	.L6:
 119:/home/rodarmer/sra_sdk-2.3.1/libs/krypto/cipher-vec.c ****     }
 120:/home/rodarmer/sra_sdk-2.3.1/libs/krypto/cipher-vec.c ****     return rc;
 109              		.loc 1 120 0
 110 007d 8B45FC   		movl	-4(%rbp), %eax
 121:/home/rodarmer/sra_sdk-2.3.1/libs/krypto/cipher-vec.c **** }
 111              		.loc 1 121 0
 112 0080 C9       		leave
 113 0081 C3       		ret
 114              		.cfi_endproc
 115              	.LFE603:
 116              		.size	KCipherVecAesNiDestroy, .-KCipherVecAesNiDestroy
 117              		.section	.rodata
 118 000c 00000000 		.align 8
 119              	.LC0:
 120 0010 2F686F6D 		.string	"/home/rodarmer/sra_sdk-2.3.1/libs/krypto/cipher-vec.c"
 120      652F726F 
 120      6461726D 
 120      65722F73 
 120      72615F73 
 121              	.LC1:
 122 0046 73656C66 		.string	"self"
 122      00
 123              	.LC2:
 124 004b 75736572 		.string	"user_key"
 124      5F6B6579 
 124      00
 125              	.LC3:
 126 0054 75736572 		.string	"user_key_bits"
 126      5F6B6579 
 126      5F626974 
 126      7300
 127              		.text
 128              		.type	KCipherVecAesNiSetEncryptKey, @function
 129              	KCipherVecAesNiSetEncryptKey:
 130              	.LFB604:
 122:/home/rodarmer/sra_sdk-2.3.1/libs/krypto/cipher-vec.c **** 
 123:/home/rodarmer/sra_sdk-2.3.1/libs/krypto/cipher-vec.c **** 
 124:/home/rodarmer/sra_sdk-2.3.1/libs/krypto/cipher-vec.c **** static rc_t CMEMBER(SetEncryptKey)(CIPHER_IMPL * self,
 125:/home/rodarmer/sra_sdk-2.3.1/libs/krypto/cipher-vec.c ****                                   const char * user_key,
 126:/home/rodarmer/sra_sdk-2.3.1/libs/krypto/cipher-vec.c ****                                   uint32_t user_key_bits)
 127:/home/rodarmer/sra_sdk-2.3.1/libs/krypto/cipher-vec.c **** {
 131              		.loc 1 127 0
 132              		.cfi_startproc
GAS LISTING /tmp/ccf9IsGZ.s 			page 6


 133 0082 55       		pushq	%rbp
 134              	.LCFI6:
 135              		.cfi_def_cfa_offset 16
 136 0083 4889E5   		movq	%rsp, %rbp
 137              		.cfi_offset 6, -16
 138              	.LCFI7:
 139              		.cfi_def_cfa_register 6
 140 0086 53       		pushq	%rbx
 141 0087 4883EC38 		subq	$56, %rsp
 142 008b 48897DD8 		movq	%rdi, -40(%rbp)
 143 008f 488975D0 		movq	%rsi, -48(%rbp)
 144 0093 8955CC   		movl	%edx, -52(%rbp)
 128:/home/rodarmer/sra_sdk-2.3.1/libs/krypto/cipher-vec.c ****     rc_t rc = 0;
 145              		.loc 1 128 0
 146 0096 C745EC00 		movl	$0, -20(%rbp)
 146      000000
 129:/home/rodarmer/sra_sdk-2.3.1/libs/krypto/cipher-vec.c **** 
 130:/home/rodarmer/sra_sdk-2.3.1/libs/krypto/cipher-vec.c ****     assert (self);
 147              		.loc 1 130 0
 148 009d 48837DD8 		cmpq	$0, -40(%rbp)
 148      00
 149 00a2 751F     		jne	.L9
 150              		.cfi_offset 3, -24
 151 00a4 488D0D00 		leaq	__PRETTY_FUNCTION__.7296(%rip), %rcx
 151      000000
 152 00ab BA820000 		movl	$130, %edx
 152      00
 153 00b0 488D3500 		leaq	.LC0(%rip), %rsi
 153      000000
 154 00b7 488D3D00 		leaq	.LC1(%rip), %rdi
 154      000000
 155 00be E8000000 		call	__assert_fail@PLT
 155      00
 156              	.L9:
 131:/home/rodarmer/sra_sdk-2.3.1/libs/krypto/cipher-vec.c ****     assert (user_key);
 157              		.loc 1 131 0
 158 00c3 48837DD0 		cmpq	$0, -48(%rbp)
 158      00
 159 00c8 751F     		jne	.L10
 160 00ca 488D0D00 		leaq	__PRETTY_FUNCTION__.7296(%rip), %rcx
 160      000000
 161 00d1 BA830000 		movl	$131, %edx
 161      00
 162 00d6 488D3500 		leaq	.LC0(%rip), %rsi
 162      000000
 163 00dd 488D3D00 		leaq	.LC2(%rip), %rdi
 163      000000
 164 00e4 E8000000 		call	__assert_fail@PLT
 164      00
 165              	.L10:
 132:/home/rodarmer/sra_sdk-2.3.1/libs/krypto/cipher-vec.c ****     assert (user_key_bits);
 166              		.loc 1 132 0
 167 00e9 837DCC00 		cmpl	$0, -52(%rbp)
 168 00ed 751F     		jne	.L11
 169 00ef 488D0D00 		leaq	__PRETTY_FUNCTION__.7296(%rip), %rcx
 169      000000
 170 00f6 BA840000 		movl	$132, %edx
GAS LISTING /tmp/ccf9IsGZ.s 			page 7


 170      00
 171 00fb 488D3500 		leaq	.LC0(%rip), %rsi
 171      000000
 172 0102 488D3D00 		leaq	.LC3(%rip), %rdi
 172      000000
 173 0109 E8000000 		call	__assert_fail@PLT
 173      00
 174              	.L11:
 133:/home/rodarmer/sra_sdk-2.3.1/libs/krypto/cipher-vec.c **** 
 134:/home/rodarmer/sra_sdk-2.3.1/libs/krypto/cipher-vec.c ****     switch (self->block_cipher->version.maj)
 175              		.loc 1 134 0
 176 010e 488B45D8 		movq	-40(%rbp), %rax
 177 0112 488B4048 		movq	72(%rax), %rax
 178 0116 8B00     		movl	(%rax), %eax
 179 0118 83F801   		cmpl	$1, %eax
 180 011b 7422     		je	.L13
 135:/home/rodarmer/sra_sdk-2.3.1/libs/krypto/cipher-vec.c ****     {
 136:/home/rodarmer/sra_sdk-2.3.1/libs/krypto/cipher-vec.c ****     default:
 137:/home/rodarmer/sra_sdk-2.3.1/libs/krypto/cipher-vec.c ****         rc = RC (rcKrypto, rcCipher, rcUpdating, rcBlockCipher, rcBadVersion);
 181              		.loc 1 137 0
 182 011d B9890000 		movl	$137, %ecx
 182      00
 183 0122 488D1500 		leaq	__func__.7298(%rip), %rdx
 183      000000
 184 0129 488D3500 		leaq	.LC0(%rip), %rsi
 184      000000
 185 0130 BF088E04 		movl	$-2029744632, %edi
 185      87
 186 0135 E8000000 		call	SetRCFileFuncLine@PLT
 186      00
 187 013a 8945EC   		movl	%eax, -20(%rbp)
 138:/home/rodarmer/sra_sdk-2.3.1/libs/krypto/cipher-vec.c ****         break;
 188              		.loc 1 138 0
 189 013d EB23     		jmp	.L14
 190              	.L13:
 139:/home/rodarmer/sra_sdk-2.3.1/libs/krypto/cipher-vec.c **** 
 140:/home/rodarmer/sra_sdk-2.3.1/libs/krypto/cipher-vec.c ****     case 1:
 141:/home/rodarmer/sra_sdk-2.3.1/libs/krypto/cipher-vec.c ****         self->block_cipher->v1.set_encrypt_key (self->dad.encrypt_key, user_key,
 191              		.loc 1 141 0
 192 013f 488B45D8 		movq	-40(%rbp), %rax
 193 0143 488B4048 		movq	72(%rax), %rax
 194 0147 488B5820 		movq	32(%rax), %rbx
 195 014b 488B45D8 		movq	-40(%rbp), %rax
 196 014f 488B4018 		movq	24(%rax), %rax
 197 0153 8B55CC   		movl	-52(%rbp), %edx
 198 0156 488B4DD0 		movq	-48(%rbp), %rcx
 199 015a 4889CE   		movq	%rcx, %rsi
 200 015d 4889C7   		movq	%rax, %rdi
 201 0160 FFD3     		call	*%rbx
 202              	.L14:
 142:/home/rodarmer/sra_sdk-2.3.1/libs/krypto/cipher-vec.c ****                                                 user_key_bits);
 143:/home/rodarmer/sra_sdk-2.3.1/libs/krypto/cipher-vec.c ****         break;
 144:/home/rodarmer/sra_sdk-2.3.1/libs/krypto/cipher-vec.c ****     }
 145:/home/rodarmer/sra_sdk-2.3.1/libs/krypto/cipher-vec.c ****     return rc;
 203              		.loc 1 145 0
 204 0162 8B45EC   		movl	-20(%rbp), %eax
 146:/home/rodarmer/sra_sdk-2.3.1/libs/krypto/cipher-vec.c **** }
GAS LISTING /tmp/ccf9IsGZ.s 			page 8


 205              		.loc 1 146 0
 206 0165 4883C438 		addq	$56, %rsp
 207 0169 5B       		popq	%rbx
 208 016a C9       		leave
 209 016b C3       		ret
 210              		.cfi_endproc
 211              	.LFE604:
 212              		.size	KCipherVecAesNiSetEncryptKey, .-KCipherVecAesNiSetEncryptKey
 213              		.type	KCipherVecAesNiSetDecryptKey, @function
 214              	KCipherVecAesNiSetDecryptKey:
 215              	.LFB605:
 147:/home/rodarmer/sra_sdk-2.3.1/libs/krypto/cipher-vec.c **** 
 148:/home/rodarmer/sra_sdk-2.3.1/libs/krypto/cipher-vec.c **** 
 149:/home/rodarmer/sra_sdk-2.3.1/libs/krypto/cipher-vec.c **** static rc_t CMEMBER(SetDecryptKey)(CIPHER_IMPL * self,
 150:/home/rodarmer/sra_sdk-2.3.1/libs/krypto/cipher-vec.c ****                                   const char * user_key,
 151:/home/rodarmer/sra_sdk-2.3.1/libs/krypto/cipher-vec.c ****                                   uint32_t user_key_bits)
 152:/home/rodarmer/sra_sdk-2.3.1/libs/krypto/cipher-vec.c **** {
 216              		.loc 1 152 0
 217              		.cfi_startproc
 218 016c 55       		pushq	%rbp
 219              	.LCFI8:
 220              		.cfi_def_cfa_offset 16
 221 016d 4889E5   		movq	%rsp, %rbp
 222              		.cfi_offset 6, -16
 223              	.LCFI9:
 224              		.cfi_def_cfa_register 6
 225 0170 53       		pushq	%rbx
 226 0171 4883EC38 		subq	$56, %rsp
 227 0175 48897DD8 		movq	%rdi, -40(%rbp)
 228 0179 488975D0 		movq	%rsi, -48(%rbp)
 229 017d 8955CC   		movl	%edx, -52(%rbp)
 153:/home/rodarmer/sra_sdk-2.3.1/libs/krypto/cipher-vec.c ****     rc_t rc = 0;
 230              		.loc 1 153 0
 231 0180 C745EC00 		movl	$0, -20(%rbp)
 231      000000
 154:/home/rodarmer/sra_sdk-2.3.1/libs/krypto/cipher-vec.c **** 
 155:/home/rodarmer/sra_sdk-2.3.1/libs/krypto/cipher-vec.c ****     assert (self);
 232              		.loc 1 155 0
 233 0187 48837DD8 		cmpq	$0, -40(%rbp)
 233      00
 234 018c 751F     		jne	.L17
 235              		.cfi_offset 3, -24
 236 018e 488D0D00 		leaq	__PRETTY_FUNCTION__.7320(%rip), %rcx
 236      000000
 237 0195 BA9B0000 		movl	$155, %edx
 237      00
 238 019a 488D3500 		leaq	.LC0(%rip), %rsi
 238      000000
 239 01a1 488D3D00 		leaq	.LC1(%rip), %rdi
 239      000000
 240 01a8 E8000000 		call	__assert_fail@PLT
 240      00
 241              	.L17:
 156:/home/rodarmer/sra_sdk-2.3.1/libs/krypto/cipher-vec.c ****     assert (user_key);
 242              		.loc 1 156 0
 243 01ad 48837DD0 		cmpq	$0, -48(%rbp)
 243      00
GAS LISTING /tmp/ccf9IsGZ.s 			page 9


 244 01b2 751F     		jne	.L18
 245 01b4 488D0D00 		leaq	__PRETTY_FUNCTION__.7320(%rip), %rcx
 245      000000
 246 01bb BA9C0000 		movl	$156, %edx
 246      00
 247 01c0 488D3500 		leaq	.LC0(%rip), %rsi
 247      000000
 248 01c7 488D3D00 		leaq	.LC2(%rip), %rdi
 248      000000
 249 01ce E8000000 		call	__assert_fail@PLT
 249      00
 250              	.L18:
 157:/home/rodarmer/sra_sdk-2.3.1/libs/krypto/cipher-vec.c ****     assert (user_key_bits);
 251              		.loc 1 157 0
 252 01d3 837DCC00 		cmpl	$0, -52(%rbp)
 253 01d7 751F     		jne	.L19
 254 01d9 488D0D00 		leaq	__PRETTY_FUNCTION__.7320(%rip), %rcx
 254      000000
 255 01e0 BA9D0000 		movl	$157, %edx
 255      00
 256 01e5 488D3500 		leaq	.LC0(%rip), %rsi
 256      000000
 257 01ec 488D3D00 		leaq	.LC3(%rip), %rdi
 257      000000
 258 01f3 E8000000 		call	__assert_fail@PLT
 258      00
 259              	.L19:
 158:/home/rodarmer/sra_sdk-2.3.1/libs/krypto/cipher-vec.c **** 
 159:/home/rodarmer/sra_sdk-2.3.1/libs/krypto/cipher-vec.c ****     switch (self->block_cipher->version.maj)
 260              		.loc 1 159 0
 261 01f8 488B45D8 		movq	-40(%rbp), %rax
 262 01fc 488B4048 		movq	72(%rax), %rax
 263 0200 8B00     		movl	(%rax), %eax
 264 0202 83F801   		cmpl	$1, %eax
 265 0205 7422     		je	.L21
 160:/home/rodarmer/sra_sdk-2.3.1/libs/krypto/cipher-vec.c ****     {
 161:/home/rodarmer/sra_sdk-2.3.1/libs/krypto/cipher-vec.c ****     default:
 162:/home/rodarmer/sra_sdk-2.3.1/libs/krypto/cipher-vec.c ****         rc = RC (rcKrypto, rcCipher, rcUpdating, rcBlockCipher, rcBadVersion);
 266              		.loc 1 162 0
 267 0207 B9A20000 		movl	$162, %ecx
 267      00
 268 020c 488D1500 		leaq	__func__.7322(%rip), %rdx
 268      000000
 269 0213 488D3500 		leaq	.LC0(%rip), %rsi
 269      000000
 270 021a BF088E04 		movl	$-2029744632, %edi
 270      87
 271 021f E8000000 		call	SetRCFileFuncLine@PLT
 271      00
 272 0224 8945EC   		movl	%eax, -20(%rbp)
 163:/home/rodarmer/sra_sdk-2.3.1/libs/krypto/cipher-vec.c ****         break;
 273              		.loc 1 163 0
 274 0227 EB23     		jmp	.L22
 275              	.L21:
 164:/home/rodarmer/sra_sdk-2.3.1/libs/krypto/cipher-vec.c **** 
 165:/home/rodarmer/sra_sdk-2.3.1/libs/krypto/cipher-vec.c ****     case 1:
 166:/home/rodarmer/sra_sdk-2.3.1/libs/krypto/cipher-vec.c ****         self->block_cipher->v1.set_decrypt_key (self->dad.decrypt_key, user_key,
GAS LISTING /tmp/ccf9IsGZ.s 			page 10


 276              		.loc 1 166 0
 277 0229 488B45D8 		movq	-40(%rbp), %rax
 278 022d 488B4048 		movq	72(%rax), %rax
 279 0231 488B5828 		movq	40(%rax), %rbx
 280 0235 488B45D8 		movq	-40(%rbp), %rax
 281 0239 488B4020 		movq	32(%rax), %rax
 282 023d 8B55CC   		movl	-52(%rbp), %edx
 283 0240 488B4DD0 		movq	-48(%rbp), %rcx
 284 0244 4889CE   		movq	%rcx, %rsi
 285 0247 4889C7   		movq	%rax, %rdi
 286 024a FFD3     		call	*%rbx
 287              	.L22:
 167:/home/rodarmer/sra_sdk-2.3.1/libs/krypto/cipher-vec.c ****                                                     user_key_bits);
 168:/home/rodarmer/sra_sdk-2.3.1/libs/krypto/cipher-vec.c ****         break;
 169:/home/rodarmer/sra_sdk-2.3.1/libs/krypto/cipher-vec.c ****     }
 170:/home/rodarmer/sra_sdk-2.3.1/libs/krypto/cipher-vec.c ****     return rc;
 288              		.loc 1 170 0
 289 024c 8B45EC   		movl	-20(%rbp), %eax
 171:/home/rodarmer/sra_sdk-2.3.1/libs/krypto/cipher-vec.c **** }
 290              		.loc 1 171 0
 291 024f 4883C438 		addq	$56, %rsp
 292 0253 5B       		popq	%rbx
 293 0254 C9       		leave
 294 0255 C3       		ret
 295              		.cfi_endproc
 296              	.LFE605:
 297              		.size	KCipherVecAesNiSetDecryptKey, .-KCipherVecAesNiSetDecryptKey
 298              		.section	.rodata
 299              	.LC4:
 300 0062 69766563 		.string	"ivec"
 300      00
 301              		.text
 302              		.type	KCipherVecAesNiSetEncryptIvec, @function
 303              	KCipherVecAesNiSetEncryptIvec:
 304              	.LFB606:
 172:/home/rodarmer/sra_sdk-2.3.1/libs/krypto/cipher-vec.c **** 
 173:/home/rodarmer/sra_sdk-2.3.1/libs/krypto/cipher-vec.c **** 
 174:/home/rodarmer/sra_sdk-2.3.1/libs/krypto/cipher-vec.c **** static
 175:/home/rodarmer/sra_sdk-2.3.1/libs/krypto/cipher-vec.c **** rc_t CMEMBER(SetEncryptIvec) (CIPHER_IMPL * self,
 176:/home/rodarmer/sra_sdk-2.3.1/libs/krypto/cipher-vec.c ****                              const void * ivec)
 177:/home/rodarmer/sra_sdk-2.3.1/libs/krypto/cipher-vec.c **** {
 305              		.loc 1 177 0
 306              		.cfi_startproc
 307 0256 55       		pushq	%rbp
 308              	.LCFI10:
 309              		.cfi_def_cfa_offset 16
 310 0257 4889E5   		movq	%rsp, %rbp
 311              		.cfi_offset 6, -16
 312              	.LCFI11:
 313              		.cfi_def_cfa_register 6
 314 025a 4883EC10 		subq	$16, %rsp
 315 025e 48897DF8 		movq	%rdi, -8(%rbp)
 316 0262 488975F0 		movq	%rsi, -16(%rbp)
 178:/home/rodarmer/sra_sdk-2.3.1/libs/krypto/cipher-vec.c ****     assert (self);
 317              		.loc 1 178 0
 318 0266 48837DF8 		cmpq	$0, -8(%rbp)
 318      00
GAS LISTING /tmp/ccf9IsGZ.s 			page 11


 319 026b 751F     		jne	.L25
 320 026d 488D0D00 		leaq	__PRETTY_FUNCTION__.7342(%rip), %rcx
 320      000000
 321 0274 BAB20000 		movl	$178, %edx
 321      00
 322 0279 488D3500 		leaq	.LC0(%rip), %rsi
 322      000000
 323 0280 488D3D00 		leaq	.LC1(%rip), %rdi
 323      000000
 324 0287 E8000000 		call	__assert_fail@PLT
 324      00
 325              	.L25:
 179:/home/rodarmer/sra_sdk-2.3.1/libs/krypto/cipher-vec.c ****     assert (ivec);
 326              		.loc 1 179 0
 327 028c 48837DF0 		cmpq	$0, -16(%rbp)
 327      00
 328 0291 751F     		jne	.L26
 329 0293 488D0D00 		leaq	__PRETTY_FUNCTION__.7342(%rip), %rcx
 329      000000
 330 029a BAB30000 		movl	$179, %edx
 330      00
 331 029f 488D3500 		leaq	.LC0(%rip), %rsi
 331      000000
 332 02a6 488D3D00 		leaq	.LC4(%rip), %rdi
 332      000000
 333 02ad E8000000 		call	__assert_fail@PLT
 333      00
 334              	.L26:
 180:/home/rodarmer/sra_sdk-2.3.1/libs/krypto/cipher-vec.c **** 
 181:/home/rodarmer/sra_sdk-2.3.1/libs/krypto/cipher-vec.c ****     memcpy (self->dad.encrypt_ivec, ivec, self->dad.block_size);
 335              		.loc 1 181 0
 336 02b2 488B45F8 		movq	-8(%rbp), %rax
 337 02b6 8B4004   		movl	4(%rax), %eax
 338 02b9 89C2     		mov	%eax, %edx
 339 02bb 488B45F8 		movq	-8(%rbp), %rax
 340 02bf 488B4028 		movq	40(%rax), %rax
 341 02c3 488B4DF0 		movq	-16(%rbp), %rcx
 342 02c7 4889CE   		movq	%rcx, %rsi
 343 02ca 4889C7   		movq	%rax, %rdi
 344 02cd E8000000 		call	memcpy@PLT
 344      00
 182:/home/rodarmer/sra_sdk-2.3.1/libs/krypto/cipher-vec.c **** 
 183:/home/rodarmer/sra_sdk-2.3.1/libs/krypto/cipher-vec.c ****     return 0;
 345              		.loc 1 183 0
 346 02d2 B8000000 		movl	$0, %eax
 346      00
 184:/home/rodarmer/sra_sdk-2.3.1/libs/krypto/cipher-vec.c **** }
 347              		.loc 1 184 0
 348 02d7 C9       		leave
 349 02d8 C3       		ret
 350              		.cfi_endproc
 351              	.LFE606:
 352              		.size	KCipherVecAesNiSetEncryptIvec, .-KCipherVecAesNiSetEncryptIvec
 353              		.type	KCipherVecAesNiSetDecryptIvec, @function
 354              	KCipherVecAesNiSetDecryptIvec:
 355              	.LFB607:
 185:/home/rodarmer/sra_sdk-2.3.1/libs/krypto/cipher-vec.c **** 
GAS LISTING /tmp/ccf9IsGZ.s 			page 12


 186:/home/rodarmer/sra_sdk-2.3.1/libs/krypto/cipher-vec.c **** 
 187:/home/rodarmer/sra_sdk-2.3.1/libs/krypto/cipher-vec.c **** static
 188:/home/rodarmer/sra_sdk-2.3.1/libs/krypto/cipher-vec.c **** rc_t CMEMBER(SetDecryptIvec) (CIPHER_IMPL * self,
 189:/home/rodarmer/sra_sdk-2.3.1/libs/krypto/cipher-vec.c ****                              const void * ivec)
 190:/home/rodarmer/sra_sdk-2.3.1/libs/krypto/cipher-vec.c **** {
 356              		.loc 1 190 0
 357              		.cfi_startproc
 358 02d9 55       		pushq	%rbp
 359              	.LCFI12:
 360              		.cfi_def_cfa_offset 16
 361 02da 4889E5   		movq	%rsp, %rbp
 362              		.cfi_offset 6, -16
 363              	.LCFI13:
 364              		.cfi_def_cfa_register 6
 365 02dd 4883EC10 		subq	$16, %rsp
 366 02e1 48897DF8 		movq	%rdi, -8(%rbp)
 367 02e5 488975F0 		movq	%rsi, -16(%rbp)
 191:/home/rodarmer/sra_sdk-2.3.1/libs/krypto/cipher-vec.c ****     assert (self);
 368              		.loc 1 191 0
 369 02e9 48837DF8 		cmpq	$0, -8(%rbp)
 369      00
 370 02ee 751F     		jne	.L29
 371 02f0 488D0D00 		leaq	__PRETTY_FUNCTION__.7355(%rip), %rcx
 371      000000
 372 02f7 BABF0000 		movl	$191, %edx
 372      00
 373 02fc 488D3500 		leaq	.LC0(%rip), %rsi
 373      000000
 374 0303 488D3D00 		leaq	.LC1(%rip), %rdi
 374      000000
 375 030a E8000000 		call	__assert_fail@PLT
 375      00
 376              	.L29:
 192:/home/rodarmer/sra_sdk-2.3.1/libs/krypto/cipher-vec.c ****     assert (ivec);
 377              		.loc 1 192 0
 378 030f 48837DF0 		cmpq	$0, -16(%rbp)
 378      00
 379 0314 751F     		jne	.L30
 380 0316 488D0D00 		leaq	__PRETTY_FUNCTION__.7355(%rip), %rcx
 380      000000
 381 031d BAC00000 		movl	$192, %edx
 381      00
 382 0322 488D3500 		leaq	.LC0(%rip), %rsi
 382      000000
 383 0329 488D3D00 		leaq	.LC4(%rip), %rdi
 383      000000
 384 0330 E8000000 		call	__assert_fail@PLT
 384      00
 385              	.L30:
 193:/home/rodarmer/sra_sdk-2.3.1/libs/krypto/cipher-vec.c **** 
 194:/home/rodarmer/sra_sdk-2.3.1/libs/krypto/cipher-vec.c ****     memcpy (self->dad.decrypt_ivec, ivec, self->dad.block_size);
 386              		.loc 1 194 0
 387 0335 488B45F8 		movq	-8(%rbp), %rax
 388 0339 8B4004   		movl	4(%rax), %eax
 389 033c 89C2     		mov	%eax, %edx
 390 033e 488B45F8 		movq	-8(%rbp), %rax
 391 0342 488B4030 		movq	48(%rax), %rax
GAS LISTING /tmp/ccf9IsGZ.s 			page 13


 392 0346 488B4DF0 		movq	-16(%rbp), %rcx
 393 034a 4889CE   		movq	%rcx, %rsi
 394 034d 4889C7   		movq	%rax, %rdi
 395 0350 E8000000 		call	memcpy@PLT
 395      00
 195:/home/rodarmer/sra_sdk-2.3.1/libs/krypto/cipher-vec.c **** 
 196:/home/rodarmer/sra_sdk-2.3.1/libs/krypto/cipher-vec.c ****     return 0;
 396              		.loc 1 196 0
 397 0355 B8000000 		movl	$0, %eax
 397      00
 197:/home/rodarmer/sra_sdk-2.3.1/libs/krypto/cipher-vec.c **** }
 398              		.loc 1 197 0
 399 035a C9       		leave
 400 035b C3       		ret
 401              		.cfi_endproc
 402              	.LFE607:
 403              		.size	KCipherVecAesNiSetDecryptIvec, .-KCipherVecAesNiSetDecryptIvec
 404              		.section	.rodata
 405              	.LC5:
 406 0067 66756E63 		.string	"func"
 406      00
 407              		.text
 408              		.type	KCipherVecAesNiSetEncryptCounterFunc, @function
 409              	KCipherVecAesNiSetEncryptCounterFunc:
 410              	.LFB608:
 198:/home/rodarmer/sra_sdk-2.3.1/libs/krypto/cipher-vec.c **** 
 199:/home/rodarmer/sra_sdk-2.3.1/libs/krypto/cipher-vec.c **** 
 200:/home/rodarmer/sra_sdk-2.3.1/libs/krypto/cipher-vec.c **** static
 201:/home/rodarmer/sra_sdk-2.3.1/libs/krypto/cipher-vec.c **** rc_t CMEMBER(SetEncryptCounterFunc) (CIPHER_IMPL * self,
 202:/home/rodarmer/sra_sdk-2.3.1/libs/krypto/cipher-vec.c ****                                     cipher_ctr_func func)
 203:/home/rodarmer/sra_sdk-2.3.1/libs/krypto/cipher-vec.c **** {
 411              		.loc 1 203 0
 412              		.cfi_startproc
 413 035c 55       		pushq	%rbp
 414              	.LCFI14:
 415              		.cfi_def_cfa_offset 16
 416 035d 4889E5   		movq	%rsp, %rbp
 417              		.cfi_offset 6, -16
 418              	.LCFI15:
 419              		.cfi_def_cfa_register 6
 420 0360 4883EC10 		subq	$16, %rsp
 421 0364 48897DF8 		movq	%rdi, -8(%rbp)
 422 0368 488975F0 		movq	%rsi, -16(%rbp)
 204:/home/rodarmer/sra_sdk-2.3.1/libs/krypto/cipher-vec.c ****     assert (self);
 423              		.loc 1 204 0
 424 036c 48837DF8 		cmpq	$0, -8(%rbp)
 424      00
 425 0371 751F     		jne	.L33
 426 0373 488D0D00 		leaq	__PRETTY_FUNCTION__.7368(%rip), %rcx
 426      000000
 427 037a BACC0000 		movl	$204, %edx
 427      00
 428 037f 488D3500 		leaq	.LC0(%rip), %rsi
 428      000000
 429 0386 488D3D00 		leaq	.LC1(%rip), %rdi
 429      000000
 430 038d E8000000 		call	__assert_fail@PLT
GAS LISTING /tmp/ccf9IsGZ.s 			page 14


 430      00
 431              	.L33:
 205:/home/rodarmer/sra_sdk-2.3.1/libs/krypto/cipher-vec.c ****     assert (func);
 432              		.loc 1 205 0
 433 0392 48837DF0 		cmpq	$0, -16(%rbp)
 433      00
 434 0397 751F     		jne	.L34
 435 0399 488D0D00 		leaq	__PRETTY_FUNCTION__.7368(%rip), %rcx
 435      000000
 436 03a0 BACD0000 		movl	$205, %edx
 436      00
 437 03a5 488D3500 		leaq	.LC0(%rip), %rsi
 437      000000
 438 03ac 488D3D00 		leaq	.LC5(%rip), %rdi
 438      000000
 439 03b3 E8000000 		call	__assert_fail@PLT
 439      00
 440              	.L34:
 206:/home/rodarmer/sra_sdk-2.3.1/libs/krypto/cipher-vec.c **** 
 207:/home/rodarmer/sra_sdk-2.3.1/libs/krypto/cipher-vec.c ****     self->dad.encrypt_counter_func = func;
 441              		.loc 1 207 0
 442 03b8 488B45F8 		movq	-8(%rbp), %rax
 443 03bc 488B55F0 		movq	-16(%rbp), %rdx
 444 03c0 48895038 		movq	%rdx, 56(%rax)
 208:/home/rodarmer/sra_sdk-2.3.1/libs/krypto/cipher-vec.c **** 
 209:/home/rodarmer/sra_sdk-2.3.1/libs/krypto/cipher-vec.c ****     return 0;
 445              		.loc 1 209 0
 446 03c4 B8000000 		movl	$0, %eax
 446      00
 210:/home/rodarmer/sra_sdk-2.3.1/libs/krypto/cipher-vec.c **** }
 447              		.loc 1 210 0
 448 03c9 C9       		leave
 449 03ca C3       		ret
 450              		.cfi_endproc
 451              	.LFE608:
 452              		.size	KCipherVecAesNiSetEncryptCounterFunc, .-KCipherVecAesNiSetEncryptCounterFunc
 453              		.type	KCipherVecAesNiSetDecryptCounterFunc, @function
 454              	KCipherVecAesNiSetDecryptCounterFunc:
 455              	.LFB609:
 211:/home/rodarmer/sra_sdk-2.3.1/libs/krypto/cipher-vec.c **** 
 212:/home/rodarmer/sra_sdk-2.3.1/libs/krypto/cipher-vec.c **** 
 213:/home/rodarmer/sra_sdk-2.3.1/libs/krypto/cipher-vec.c **** static
 214:/home/rodarmer/sra_sdk-2.3.1/libs/krypto/cipher-vec.c **** rc_t CMEMBER(SetDecryptCounterFunc) (CIPHER_IMPL * self,
 215:/home/rodarmer/sra_sdk-2.3.1/libs/krypto/cipher-vec.c ****                                     cipher_ctr_func func)
 216:/home/rodarmer/sra_sdk-2.3.1/libs/krypto/cipher-vec.c **** {
 456              		.loc 1 216 0
 457              		.cfi_startproc
 458 03cb 55       		pushq	%rbp
 459              	.LCFI16:
 460              		.cfi_def_cfa_offset 16
 461 03cc 4889E5   		movq	%rsp, %rbp
 462              		.cfi_offset 6, -16
 463              	.LCFI17:
 464              		.cfi_def_cfa_register 6
 465 03cf 4883EC10 		subq	$16, %rsp
 466 03d3 48897DF8 		movq	%rdi, -8(%rbp)
 467 03d7 488975F0 		movq	%rsi, -16(%rbp)
GAS LISTING /tmp/ccf9IsGZ.s 			page 15


 217:/home/rodarmer/sra_sdk-2.3.1/libs/krypto/cipher-vec.c ****     assert (self);
 468              		.loc 1 217 0
 469 03db 48837DF8 		cmpq	$0, -8(%rbp)
 469      00
 470 03e0 751F     		jne	.L37
 471 03e2 488D0D00 		leaq	__PRETTY_FUNCTION__.7378(%rip), %rcx
 471      000000
 472 03e9 BAD90000 		movl	$217, %edx
 472      00
 473 03ee 488D3500 		leaq	.LC0(%rip), %rsi
 473      000000
 474 03f5 488D3D00 		leaq	.LC1(%rip), %rdi
 474      000000
 475 03fc E8000000 		call	__assert_fail@PLT
 475      00
 476              	.L37:
 218:/home/rodarmer/sra_sdk-2.3.1/libs/krypto/cipher-vec.c ****     assert (func);
 477              		.loc 1 218 0
 478 0401 48837DF0 		cmpq	$0, -16(%rbp)
 478      00
 479 0406 751F     		jne	.L38
 480 0408 488D0D00 		leaq	__PRETTY_FUNCTION__.7378(%rip), %rcx
 480      000000
 481 040f BADA0000 		movl	$218, %edx
 481      00
 482 0414 488D3500 		leaq	.LC0(%rip), %rsi
 482      000000
 483 041b 488D3D00 		leaq	.LC5(%rip), %rdi
 483      000000
 484 0422 E8000000 		call	__assert_fail@PLT
 484      00
 485              	.L38:
 219:/home/rodarmer/sra_sdk-2.3.1/libs/krypto/cipher-vec.c **** 
 220:/home/rodarmer/sra_sdk-2.3.1/libs/krypto/cipher-vec.c ****     self->dad.decrypt_counter_func = func;
 486              		.loc 1 220 0
 487 0427 488B45F8 		movq	-8(%rbp), %rax
 488 042b 488B55F0 		movq	-16(%rbp), %rdx
 489 042f 48895040 		movq	%rdx, 64(%rax)
 221:/home/rodarmer/sra_sdk-2.3.1/libs/krypto/cipher-vec.c **** 
 222:/home/rodarmer/sra_sdk-2.3.1/libs/krypto/cipher-vec.c ****     return 0;
 490              		.loc 1 222 0
 491 0433 B8000000 		movl	$0, %eax
 491      00
 223:/home/rodarmer/sra_sdk-2.3.1/libs/krypto/cipher-vec.c **** }
 492              		.loc 1 223 0
 493 0438 C9       		leave
 494 0439 C3       		ret
 495              		.cfi_endproc
 496              	.LFE609:
 497              		.size	KCipherVecAesNiSetDecryptCounterFunc, .-KCipherVecAesNiSetDecryptCounterFunc
 498              		.type	KCipherVecAesNiEncryptV1, @function
 499              	KCipherVecAesNiEncryptV1:
 500              	.LFB610:
 224:/home/rodarmer/sra_sdk-2.3.1/libs/krypto/cipher-vec.c **** 
 225:/home/rodarmer/sra_sdk-2.3.1/libs/krypto/cipher-vec.c **** 
 226:/home/rodarmer/sra_sdk-2.3.1/libs/krypto/cipher-vec.c **** static CipherVec __inline__ CMEMBER(EncryptV1)(const CIPHER_IMPL * self,
 227:/home/rodarmer/sra_sdk-2.3.1/libs/krypto/cipher-vec.c ****                                               register CipherVec cv)
GAS LISTING /tmp/ccf9IsGZ.s 			page 16


 228:/home/rodarmer/sra_sdk-2.3.1/libs/krypto/cipher-vec.c **** {
 501              		.loc 1 228 0
 502              		.cfi_startproc
 503 043a 55       		pushq	%rbp
 504              	.LCFI18:
 505              		.cfi_def_cfa_offset 16
 506 043b 4889E5   		movq	%rsp, %rbp
 507              		.cfi_offset 6, -16
 508              	.LCFI19:
 509              		.cfi_def_cfa_register 6
 510 043e 4883EC10 		subq	$16, %rsp
 511 0442 48897DF8 		movq	%rdi, -8(%rbp)
 229:/home/rodarmer/sra_sdk-2.3.1/libs/krypto/cipher-vec.c ****     return self->block_cipher->v1.encrypt (cv, self->dad.encrypt_key);
 512              		.loc 1 229 0
 513 0446 488B45F8 		movq	-8(%rbp), %rax
 514 044a 488B4048 		movq	72(%rax), %rax
 515 044e 488B5030 		movq	48(%rax), %rdx
 516 0452 488B45F8 		movq	-8(%rbp), %rax
 517 0456 488B4018 		movq	24(%rax), %rax
 518 045a 4889C7   		movq	%rax, %rdi
 519 045d FFD2     		call	*%rdx
 230:/home/rodarmer/sra_sdk-2.3.1/libs/krypto/cipher-vec.c **** }
 520              		.loc 1 230 0
 521 045f C9       		leave
 522 0460 C3       		ret
 523              		.cfi_endproc
 524              	.LFE610:
 525              		.size	KCipherVecAesNiEncryptV1, .-KCipherVecAesNiEncryptV1
 526              		.type	KCipherVecAesNiDecryptV1, @function
 527              	KCipherVecAesNiDecryptV1:
 528              	.LFB611:
 231:/home/rodarmer/sra_sdk-2.3.1/libs/krypto/cipher-vec.c **** 
 232:/home/rodarmer/sra_sdk-2.3.1/libs/krypto/cipher-vec.c **** 
 233:/home/rodarmer/sra_sdk-2.3.1/libs/krypto/cipher-vec.c **** static CipherVec __inline__ CMEMBER(DecryptV1)(const CIPHER_IMPL * self,
 234:/home/rodarmer/sra_sdk-2.3.1/libs/krypto/cipher-vec.c ****                                               register CipherVec cv)
 235:/home/rodarmer/sra_sdk-2.3.1/libs/krypto/cipher-vec.c **** {
 529              		.loc 1 235 0
 530              		.cfi_startproc
 531 0461 55       		pushq	%rbp
 532              	.LCFI20:
 533              		.cfi_def_cfa_offset 16
 534 0462 4889E5   		movq	%rsp, %rbp
 535              		.cfi_offset 6, -16
 536              	.LCFI21:
 537              		.cfi_def_cfa_register 6
 538 0465 4883EC10 		subq	$16, %rsp
 539 0469 48897DF8 		movq	%rdi, -8(%rbp)
 236:/home/rodarmer/sra_sdk-2.3.1/libs/krypto/cipher-vec.c ****     return self->block_cipher->v1.decrypt (cv, self->dad.decrypt_key);
 540              		.loc 1 236 0
 541 046d 488B45F8 		movq	-8(%rbp), %rax
 542 0471 488B4048 		movq	72(%rax), %rax
 543 0475 488B5038 		movq	56(%rax), %rdx
 544 0479 488B45F8 		movq	-8(%rbp), %rax
 545 047d 488B4020 		movq	32(%rax), %rax
 546 0481 4889C7   		movq	%rax, %rdi
 547 0484 FFD2     		call	*%rdx
 237:/home/rodarmer/sra_sdk-2.3.1/libs/krypto/cipher-vec.c **** }
GAS LISTING /tmp/ccf9IsGZ.s 			page 17


 548              		.loc 1 237 0
 549 0486 C9       		leave
 550 0487 C3       		ret
 551              		.cfi_endproc
 552              	.LFE611:
 553              		.size	KCipherVecAesNiDecryptV1, .-KCipherVecAesNiDecryptV1
 554              		.type	KCipherVecAesNiEncryptV1Int, @function
 555              	KCipherVecAesNiEncryptV1Int:
 556              	.LFB612:
 238:/home/rodarmer/sra_sdk-2.3.1/libs/krypto/cipher-vec.c **** 
 239:/home/rodarmer/sra_sdk-2.3.1/libs/krypto/cipher-vec.c **** 
 240:/home/rodarmer/sra_sdk-2.3.1/libs/krypto/cipher-vec.c **** static rc_t __inline__ CMEMBER(EncryptV1Int)(const CIPHER_IMPL * self,
 241:/home/rodarmer/sra_sdk-2.3.1/libs/krypto/cipher-vec.c ****                                             const void * in, void * out)
 242:/home/rodarmer/sra_sdk-2.3.1/libs/krypto/cipher-vec.c **** {
 557              		.loc 1 242 0
 558              		.cfi_startproc
 559 0488 55       		pushq	%rbp
 560              	.LCFI22:
 561              		.cfi_def_cfa_offset 16
 562 0489 4889E5   		movq	%rsp, %rbp
 563              		.cfi_offset 6, -16
 564              	.LCFI23:
 565              		.cfi_def_cfa_register 6
 566 048c 4883EC30 		subq	$48, %rsp
 567 0490 48897DE8 		movq	%rdi, -24(%rbp)
 568 0494 488975E0 		movq	%rsi, -32(%rbp)
 569 0498 488955D8 		movq	%rdx, -40(%rbp)
 243:/home/rodarmer/sra_sdk-2.3.1/libs/krypto/cipher-vec.c ****     CipherVec cv;
 244:/home/rodarmer/sra_sdk-2.3.1/libs/krypto/cipher-vec.c **** 
 245:/home/rodarmer/sra_sdk-2.3.1/libs/krypto/cipher-vec.c ****     cv = CipherVecIn(in);
 570              		.loc 1 245 0
 571 049c 488B45E0 		movq	-32(%rbp), %rax
 572 04a0 4889C7   		movq	%rax, %rdi
 573 04a3 E858FBFF 		call	CipherVecIn
 573      FF
 574 04a8 F30F7F45 		movdqu	%xmm0, -16(%rbp)
 574      F0
 246:/home/rodarmer/sra_sdk-2.3.1/libs/krypto/cipher-vec.c ****     cv = CMEMBER(EncryptV1)(self, cv);
 575              		.loc 1 246 0
 576 04ad F30F6F45 		movdqu	-16(%rbp), %xmm0
 576      F0
 577 04b2 488B45E8 		movq	-24(%rbp), %rax
 578 04b6 4889C7   		movq	%rax, %rdi
 579 04b9 E87CFFFF 		call	KCipherVecAesNiEncryptV1
 579      FF
 580 04be F30F7F45 		movdqu	%xmm0, -16(%rbp)
 580      F0
 247:/home/rodarmer/sra_sdk-2.3.1/libs/krypto/cipher-vec.c ****     CipherVecOut(cv, out);
 581              		.loc 1 247 0
 582 04c3 488B45D8 		movq	-40(%rbp), %rax
 583 04c7 F30F6F45 		movdqu	-16(%rbp), %xmm0
 583      F0
 584 04cc 4889C7   		movq	%rax, %rdi
 585 04cf E84BFBFF 		call	CipherVecOut
 585      FF
 248:/home/rodarmer/sra_sdk-2.3.1/libs/krypto/cipher-vec.c ****     return 0;
 586              		.loc 1 248 0
GAS LISTING /tmp/ccf9IsGZ.s 			page 18


 587 04d4 B8000000 		movl	$0, %eax
 587      00
 249:/home/rodarmer/sra_sdk-2.3.1/libs/krypto/cipher-vec.c **** }
 588              		.loc 1 249 0
 589 04d9 C9       		leave
 590 04da C3       		ret
 591              		.cfi_endproc
 592              	.LFE612:
 593              		.size	KCipherVecAesNiEncryptV1Int, .-KCipherVecAesNiEncryptV1Int
 594              		.type	KCipherVecAesNiDecryptV1Int, @function
 595              	KCipherVecAesNiDecryptV1Int:
 596              	.LFB613:
 250:/home/rodarmer/sra_sdk-2.3.1/libs/krypto/cipher-vec.c **** 
 251:/home/rodarmer/sra_sdk-2.3.1/libs/krypto/cipher-vec.c **** 
 252:/home/rodarmer/sra_sdk-2.3.1/libs/krypto/cipher-vec.c **** static rc_t __inline__ CMEMBER(DecryptV1Int)(const CIPHER_IMPL * self,
 253:/home/rodarmer/sra_sdk-2.3.1/libs/krypto/cipher-vec.c ****                                             const void * in, void * out)
 254:/home/rodarmer/sra_sdk-2.3.1/libs/krypto/cipher-vec.c **** {
 597              		.loc 1 254 0
 598              		.cfi_startproc
 599 04db 55       		pushq	%rbp
 600              	.LCFI24:
 601              		.cfi_def_cfa_offset 16
 602 04dc 4889E5   		movq	%rsp, %rbp
 603              		.cfi_offset 6, -16
 604              	.LCFI25:
 605              		.cfi_def_cfa_register 6
 606 04df 4883EC30 		subq	$48, %rsp
 607 04e3 48897DE8 		movq	%rdi, -24(%rbp)
 608 04e7 488975E0 		movq	%rsi, -32(%rbp)
 609 04eb 488955D8 		movq	%rdx, -40(%rbp)
 255:/home/rodarmer/sra_sdk-2.3.1/libs/krypto/cipher-vec.c ****     CipherVec cv;
 256:/home/rodarmer/sra_sdk-2.3.1/libs/krypto/cipher-vec.c **** 
 257:/home/rodarmer/sra_sdk-2.3.1/libs/krypto/cipher-vec.c ****     cv = CipherVecIn(in);
 610              		.loc 1 257 0
 611 04ef 488B45E0 		movq	-32(%rbp), %rax
 612 04f3 4889C7   		movq	%rax, %rdi
 613 04f6 E805FBFF 		call	CipherVecIn
 613      FF
 614 04fb F30F7F45 		movdqu	%xmm0, -16(%rbp)
 614      F0
 258:/home/rodarmer/sra_sdk-2.3.1/libs/krypto/cipher-vec.c ****     cv = CMEMBER(DecryptV1)(self, cv);
 615              		.loc 1 258 0
 616 0500 F30F6F45 		movdqu	-16(%rbp), %xmm0
 616      F0
 617 0505 488B45E8 		movq	-24(%rbp), %rax
 618 0509 4889C7   		movq	%rax, %rdi
 619 050c E850FFFF 		call	KCipherVecAesNiDecryptV1
 619      FF
 620 0511 F30F7F45 		movdqu	%xmm0, -16(%rbp)
 620      F0
 259:/home/rodarmer/sra_sdk-2.3.1/libs/krypto/cipher-vec.c ****     CipherVecOut(cv, out);
 621              		.loc 1 259 0
 622 0516 488B45D8 		movq	-40(%rbp), %rax
 623 051a F30F6F45 		movdqu	-16(%rbp), %xmm0
 623      F0
 624 051f 4889C7   		movq	%rax, %rdi
 625 0522 E8F8FAFF 		call	CipherVecOut
GAS LISTING /tmp/ccf9IsGZ.s 			page 19


 625      FF
 260:/home/rodarmer/sra_sdk-2.3.1/libs/krypto/cipher-vec.c ****     return 0;
 626              		.loc 1 260 0
 627 0527 B8000000 		movl	$0, %eax
 627      00
 261:/home/rodarmer/sra_sdk-2.3.1/libs/krypto/cipher-vec.c **** }
 628              		.loc 1 261 0
 629 052c C9       		leave
 630 052d C3       		ret
 631              		.cfi_endproc
 632              	.LFE613:
 633              		.size	KCipherVecAesNiDecryptV1Int, .-KCipherVecAesNiDecryptV1Int
 634              		.type	KCipherVecAesNiEncrypt, @function
 635              	KCipherVecAesNiEncrypt:
 636              	.LFB614:
 262:/home/rodarmer/sra_sdk-2.3.1/libs/krypto/cipher-vec.c **** 
 263:/home/rodarmer/sra_sdk-2.3.1/libs/krypto/cipher-vec.c **** 
 264:/home/rodarmer/sra_sdk-2.3.1/libs/krypto/cipher-vec.c **** static rc_t CMEMBER(Encrypt) (const CIPHER_IMPL * self, const void * in, void * out)
 265:/home/rodarmer/sra_sdk-2.3.1/libs/krypto/cipher-vec.c **** {
 637              		.loc 1 265 0
 638              		.cfi_startproc
 639 052e 55       		pushq	%rbp
 640              	.LCFI26:
 641              		.cfi_def_cfa_offset 16
 642 052f 4889E5   		movq	%rsp, %rbp
 643              		.cfi_offset 6, -16
 644              	.LCFI27:
 645              		.cfi_def_cfa_register 6
 646 0532 4883EC30 		subq	$48, %rsp
 647 0536 48897DE8 		movq	%rdi, -24(%rbp)
 648 053a 488975E0 		movq	%rsi, -32(%rbp)
 649 053e 488955D8 		movq	%rdx, -40(%rbp)
 266:/home/rodarmer/sra_sdk-2.3.1/libs/krypto/cipher-vec.c ****     rc_t rc;
 267:/home/rodarmer/sra_sdk-2.3.1/libs/krypto/cipher-vec.c **** 
 268:/home/rodarmer/sra_sdk-2.3.1/libs/krypto/cipher-vec.c ****     switch (self->block_cipher->version.maj)
 650              		.loc 1 268 0
 651 0542 488B45E8 		movq	-24(%rbp), %rax
 652 0546 488B4048 		movq	72(%rax), %rax
 653 054a 8B00     		movl	(%rax), %eax
 654 054c 83F801   		cmpl	$1, %eax
 655 054f 7422     		je	.L50
 269:/home/rodarmer/sra_sdk-2.3.1/libs/krypto/cipher-vec.c ****     {
 270:/home/rodarmer/sra_sdk-2.3.1/libs/krypto/cipher-vec.c ****     default:
 271:/home/rodarmer/sra_sdk-2.3.1/libs/krypto/cipher-vec.c ****         rc = RC (rcKrypto, rcCipher, rcEncoding, rcBlockCipher, rcBadVersion);
 656              		.loc 1 271 0
 657 0551 B90F0100 		movl	$271, %ecx
 657      00
 658 0556 488D1500 		leaq	__func__.7428(%rip), %rdx
 658      000000
 659 055d 488D3500 		leaq	.LC0(%rip), %rsi
 659      000000
 660 0564 BF080E09 		movl	$-2029449720, %edi
 660      87
 661 0569 E8000000 		call	SetRCFileFuncLine@PLT
 661      00
 662 056e 8945FC   		movl	%eax, -4(%rbp)
 272:/home/rodarmer/sra_sdk-2.3.1/libs/krypto/cipher-vec.c ****         break;
GAS LISTING /tmp/ccf9IsGZ.s 			page 20


 663              		.loc 1 272 0
 664 0571 EB1A     		jmp	.L51
 665              	.L50:
 273:/home/rodarmer/sra_sdk-2.3.1/libs/krypto/cipher-vec.c **** 
 274:/home/rodarmer/sra_sdk-2.3.1/libs/krypto/cipher-vec.c ****     case 1:
 275:/home/rodarmer/sra_sdk-2.3.1/libs/krypto/cipher-vec.c ****         rc = CMEMBER(EncryptV1Int)(self, in, out);
 666              		.loc 1 275 0
 667 0573 488B55D8 		movq	-40(%rbp), %rdx
 668 0577 488B4DE0 		movq	-32(%rbp), %rcx
 669 057b 488B45E8 		movq	-24(%rbp), %rax
 670 057f 4889CE   		movq	%rcx, %rsi
 671 0582 4889C7   		movq	%rax, %rdi
 672 0585 E8FEFEFF 		call	KCipherVecAesNiEncryptV1Int
 672      FF
 673 058a 8945FC   		movl	%eax, -4(%rbp)
 674              	.L51:
 276:/home/rodarmer/sra_sdk-2.3.1/libs/krypto/cipher-vec.c ****         break;
 277:/home/rodarmer/sra_sdk-2.3.1/libs/krypto/cipher-vec.c ****     }
 278:/home/rodarmer/sra_sdk-2.3.1/libs/krypto/cipher-vec.c **** 
 279:/home/rodarmer/sra_sdk-2.3.1/libs/krypto/cipher-vec.c ****     return rc;
 675              		.loc 1 279 0
 676 058d 8B45FC   		movl	-4(%rbp), %eax
 280:/home/rodarmer/sra_sdk-2.3.1/libs/krypto/cipher-vec.c **** }
 677              		.loc 1 280 0
 678 0590 C9       		leave
 679 0591 C3       		ret
 680              		.cfi_endproc
 681              	.LFE614:
 682              		.size	KCipherVecAesNiEncrypt, .-KCipherVecAesNiEncrypt
 683              		.type	KCipherVecAesNiDecrypt, @function
 684              	KCipherVecAesNiDecrypt:
 685              	.LFB615:
 281:/home/rodarmer/sra_sdk-2.3.1/libs/krypto/cipher-vec.c **** 
 282:/home/rodarmer/sra_sdk-2.3.1/libs/krypto/cipher-vec.c **** 
 283:/home/rodarmer/sra_sdk-2.3.1/libs/krypto/cipher-vec.c **** static
 284:/home/rodarmer/sra_sdk-2.3.1/libs/krypto/cipher-vec.c **** rc_t CMEMBER(Decrypt) (const CIPHER_IMPL * self, const void * in, void * out)
 285:/home/rodarmer/sra_sdk-2.3.1/libs/krypto/cipher-vec.c **** {
 686              		.loc 1 285 0
 687              		.cfi_startproc
 688 0592 55       		pushq	%rbp
 689              	.LCFI28:
 690              		.cfi_def_cfa_offset 16
 691 0593 4889E5   		movq	%rsp, %rbp
 692              		.cfi_offset 6, -16
 693              	.LCFI29:
 694              		.cfi_def_cfa_register 6
 695 0596 4883EC30 		subq	$48, %rsp
 696 059a 48897DE8 		movq	%rdi, -24(%rbp)
 697 059e 488975E0 		movq	%rsi, -32(%rbp)
 698 05a2 488955D8 		movq	%rdx, -40(%rbp)
 286:/home/rodarmer/sra_sdk-2.3.1/libs/krypto/cipher-vec.c ****     rc_t rc = 0;
 699              		.loc 1 286 0
 700 05a6 C745FC00 		movl	$0, -4(%rbp)
 700      000000
 287:/home/rodarmer/sra_sdk-2.3.1/libs/krypto/cipher-vec.c **** 
 288:/home/rodarmer/sra_sdk-2.3.1/libs/krypto/cipher-vec.c ****     switch (self->block_cipher->version.maj)
 701              		.loc 1 288 0
GAS LISTING /tmp/ccf9IsGZ.s 			page 21


 702 05ad 488B45E8 		movq	-24(%rbp), %rax
 703 05b1 488B4048 		movq	72(%rax), %rax
 704 05b5 8B00     		movl	(%rax), %eax
 705 05b7 83F801   		cmpl	$1, %eax
 706 05ba 7422     		je	.L55
 289:/home/rodarmer/sra_sdk-2.3.1/libs/krypto/cipher-vec.c ****     {
 290:/home/rodarmer/sra_sdk-2.3.1/libs/krypto/cipher-vec.c ****     default:
 291:/home/rodarmer/sra_sdk-2.3.1/libs/krypto/cipher-vec.c ****         rc = RC (rcKrypto, rcCipher, rcEncoding, rcBlockCipher, rcBadVersion);
 707              		.loc 1 291 0
 708 05bc B9230100 		movl	$291, %ecx
 708      00
 709 05c1 488D1500 		leaq	__func__.7444(%rip), %rdx
 709      000000
 710 05c8 488D3500 		leaq	.LC0(%rip), %rsi
 710      000000
 711 05cf BF080E09 		movl	$-2029449720, %edi
 711      87
 712 05d4 E8000000 		call	SetRCFileFuncLine@PLT
 712      00
 713 05d9 8945FC   		movl	%eax, -4(%rbp)
 292:/home/rodarmer/sra_sdk-2.3.1/libs/krypto/cipher-vec.c ****         break;
 714              		.loc 1 292 0
 715 05dc EB1A     		jmp	.L56
 716              	.L55:
 293:/home/rodarmer/sra_sdk-2.3.1/libs/krypto/cipher-vec.c **** 
 294:/home/rodarmer/sra_sdk-2.3.1/libs/krypto/cipher-vec.c ****     case 1:
 295:/home/rodarmer/sra_sdk-2.3.1/libs/krypto/cipher-vec.c ****         rc = CMEMBER(DecryptV1Int)(self, in, out);
 717              		.loc 1 295 0
 718 05de 488B55D8 		movq	-40(%rbp), %rdx
 719 05e2 488B4DE0 		movq	-32(%rbp), %rcx
 720 05e6 488B45E8 		movq	-24(%rbp), %rax
 721 05ea 4889CE   		movq	%rcx, %rsi
 722 05ed 4889C7   		movq	%rax, %rdi
 723 05f0 E8E6FEFF 		call	KCipherVecAesNiDecryptV1Int
 723      FF
 724 05f5 8945FC   		movl	%eax, -4(%rbp)
 725              	.L56:
 296:/home/rodarmer/sra_sdk-2.3.1/libs/krypto/cipher-vec.c ****         break;
 297:/home/rodarmer/sra_sdk-2.3.1/libs/krypto/cipher-vec.c ****     }
 298:/home/rodarmer/sra_sdk-2.3.1/libs/krypto/cipher-vec.c **** 
 299:/home/rodarmer/sra_sdk-2.3.1/libs/krypto/cipher-vec.c ****     return rc;
 726              		.loc 1 299 0
 727 05f8 8B45FC   		movl	-4(%rbp), %eax
 300:/home/rodarmer/sra_sdk-2.3.1/libs/krypto/cipher-vec.c **** }
 728              		.loc 1 300 0
 729 05fb C9       		leave
 730 05fc C3       		ret
 731              		.cfi_endproc
 732              	.LFE615:
 733              		.size	KCipherVecAesNiDecrypt, .-KCipherVecAesNiDecrypt
 734              		.type	KCipherVecAesNiEncryptEcb, @function
 735              	KCipherVecAesNiEncryptEcb:
 736              	.LFB616:
 301:/home/rodarmer/sra_sdk-2.3.1/libs/krypto/cipher-vec.c **** 
 302:/home/rodarmer/sra_sdk-2.3.1/libs/krypto/cipher-vec.c **** 
 303:/home/rodarmer/sra_sdk-2.3.1/libs/krypto/cipher-vec.c **** /* ====================
 304:/home/rodarmer/sra_sdk-2.3.1/libs/krypto/cipher-vec.c ****  * longer runs of multiple blocks.
GAS LISTING /tmp/ccf9IsGZ.s 			page 22


 305:/home/rodarmer/sra_sdk-2.3.1/libs/krypto/cipher-vec.c ****  *
 306:/home/rodarmer/sra_sdk-2.3.1/libs/krypto/cipher-vec.c ****  * The algorithms are well defined and standard in most cases
 307:/home/rodarmer/sra_sdk-2.3.1/libs/krypto/cipher-vec.c ****  *
 308:/home/rodarmer/sra_sdk-2.3.1/libs/krypto/cipher-vec.c ****  * These aremore or elss equivalent to class functions as they do not depend upon
 309:/home/rodarmer/sra_sdk-2.3.1/libs/krypto/cipher-vec.c ****  * the operation of the cipher and the algorithms are independent of anything about
 310:/home/rodarmer/sra_sdk-2.3.1/libs/krypto/cipher-vec.c ****  * the cipher other than its block size.
 311:/home/rodarmer/sra_sdk-2.3.1/libs/krypto/cipher-vec.c ****  *
 312:/home/rodarmer/sra_sdk-2.3.1/libs/krypto/cipher-vec.c ****  * PT: plain text block
 313:/home/rodarmer/sra_sdk-2.3.1/libs/krypto/cipher-vec.c ****  * CT: cipher text block
 314:/home/rodarmer/sra_sdk-2.3.1/libs/krypto/cipher-vec.c ****  * EK: encryption key
 315:/home/rodarmer/sra_sdk-2.3.1/libs/krypto/cipher-vec.c ****  * DK: decryption key (might be sthe same as EK)
 316:/home/rodarmer/sra_sdk-2.3.1/libs/krypto/cipher-vec.c ****  * ENC: encrypt cipher function on a block using a key
 317:/home/rodarmer/sra_sdk-2.3.1/libs/krypto/cipher-vec.c ****  * DEC: decrypt cipher function on a block using a key
 318:/home/rodarmer/sra_sdk-2.3.1/libs/krypto/cipher-vec.c ****  * IV: initialization vector - used as feedback for chaining
 319:/home/rodarmer/sra_sdk-2.3.1/libs/krypto/cipher-vec.c ****  * N:  number used once (nonce)
 320:/home/rodarmer/sra_sdk-2.3.1/libs/krypto/cipher-vec.c ****  * FB: feedback is the next IV in a chained/feedback mode
 321:/home/rodarmer/sra_sdk-2.3.1/libs/krypto/cipher-vec.c ****  */
 322:/home/rodarmer/sra_sdk-2.3.1/libs/krypto/cipher-vec.c **** 
 323:/home/rodarmer/sra_sdk-2.3.1/libs/krypto/cipher-vec.c **** 
 324:/home/rodarmer/sra_sdk-2.3.1/libs/krypto/cipher-vec.c **** /* -----
 325:/home/rodarmer/sra_sdk-2.3.1/libs/krypto/cipher-vec.c ****  * NOTE:
 326:/home/rodarmer/sra_sdk-2.3.1/libs/krypto/cipher-vec.c ****  * 'in' can be the same as 'out' but other overlaps are dangers as a block at a
 327:/home/rodarmer/sra_sdk-2.3.1/libs/krypto/cipher-vec.c ****  * time is written. The code does not look for overlaps at this point.
 328:/home/rodarmer/sra_sdk-2.3.1/libs/krypto/cipher-vec.c ****  */
 329:/home/rodarmer/sra_sdk-2.3.1/libs/krypto/cipher-vec.c **** 
 330:/home/rodarmer/sra_sdk-2.3.1/libs/krypto/cipher-vec.c **** /* ----------
 331:/home/rodarmer/sra_sdk-2.3.1/libs/krypto/cipher-vec.c ****  * Electronic Code Book - simple cipher with no chaining feedback  just iterate
 332:/home/rodarmer/sra_sdk-2.3.1/libs/krypto/cipher-vec.c ****  * simple encrypt/decrypt with the plain, text, cipher text and key/
 333:/home/rodarmer/sra_sdk-2.3.1/libs/krypto/cipher-vec.c ****  *
 334:/home/rodarmer/sra_sdk-2.3.1/libs/krypto/cipher-vec.c ****  * CT = ENC (PT,EK)
 335:/home/rodarmer/sra_sdk-2.3.1/libs/krypto/cipher-vec.c ****  * PT = DEC (CT,DK)
 336:/home/rodarmer/sra_sdk-2.3.1/libs/krypto/cipher-vec.c ****  */
 337:/home/rodarmer/sra_sdk-2.3.1/libs/krypto/cipher-vec.c **** 
 338:/home/rodarmer/sra_sdk-2.3.1/libs/krypto/cipher-vec.c **** /* -----
 339:/home/rodarmer/sra_sdk-2.3.1/libs/krypto/cipher-vec.c ****  * NOTE: currently an implmentation detail limits us to 8192 bit cipher block
 340:/home/rodarmer/sra_sdk-2.3.1/libs/krypto/cipher-vec.c ****  * size.  Changing MAX_BLOCK_SIZE in cipher.c can up that limit without 
 341:/home/rodarmer/sra_sdk-2.3.1/libs/krypto/cipher-vec.c ****  * causing any other compatibility issues. 
 342:/home/rodarmer/sra_sdk-2.3.1/libs/krypto/cipher-vec.c ****  *
 343:/home/rodarmer/sra_sdk-2.3.1/libs/krypto/cipher-vec.c ****  * Two local byte arrays are defined on the stack of 1024 bytes or 8192 bits.
 344:/home/rodarmer/sra_sdk-2.3.1/libs/krypto/cipher-vec.c ****  */
 345:/home/rodarmer/sra_sdk-2.3.1/libs/krypto/cipher-vec.c **** static
 346:/home/rodarmer/sra_sdk-2.3.1/libs/krypto/cipher-vec.c **** rc_t CMEMBER(EncryptEcb) (const CIPHER_IMPL * self, const void * in, void * out, uint32_t block_cou
 347:/home/rodarmer/sra_sdk-2.3.1/libs/krypto/cipher-vec.c **** {
 737              		.loc 1 347 0
 738              		.cfi_startproc
 739 05fd 55       		pushq	%rbp
 740              	.LCFI30:
 741              		.cfi_def_cfa_offset 16
 742 05fe 4889E5   		movq	%rsp, %rbp
 743              		.cfi_offset 6, -16
 744              	.LCFI31:
 745              		.cfi_def_cfa_register 6
 746 0601 4883EC30 		subq	$48, %rsp
 747 0605 48897DE8 		movq	%rdi, -24(%rbp)
 748 0609 488975E0 		movq	%rsi, -32(%rbp)
 749 060d 488955D8 		movq	%rdx, -40(%rbp)
 750 0611 894DD4   		movl	%ecx, -44(%rbp)
GAS LISTING /tmp/ccf9IsGZ.s 			page 23


 348:/home/rodarmer/sra_sdk-2.3.1/libs/krypto/cipher-vec.c ****     const uint8_t * pin;
 349:/home/rodarmer/sra_sdk-2.3.1/libs/krypto/cipher-vec.c ****     uint8_t * pout;
 350:/home/rodarmer/sra_sdk-2.3.1/libs/krypto/cipher-vec.c **** 
 351:/home/rodarmer/sra_sdk-2.3.1/libs/krypto/cipher-vec.c ****     for ((pin = in), (pout = out);
 751              		.loc 1 351 0
 752 0614 488B45E0 		movq	-32(%rbp), %rax
 753 0618 488945F0 		movq	%rax, -16(%rbp)
 754 061c 488B45D8 		movq	-40(%rbp), %rax
 755 0620 488945F8 		movq	%rax, -8(%rbp)
 756 0624 EB31     		jmp	.L59
 757              	.L60:
 352:/home/rodarmer/sra_sdk-2.3.1/libs/krypto/cipher-vec.c ****          block_count --; 
 353:/home/rodarmer/sra_sdk-2.3.1/libs/krypto/cipher-vec.c ****          (pin += self->dad.block_size), (pout += self->dad.block_size))
 354:/home/rodarmer/sra_sdk-2.3.1/libs/krypto/cipher-vec.c ****     {
 355:/home/rodarmer/sra_sdk-2.3.1/libs/krypto/cipher-vec.c ****         CMEMBER(EncryptV1Int)(self, pin, pout);
 758              		.loc 1 355 0
 759 0626 488B55F8 		movq	-8(%rbp), %rdx
 760 062a 488B4DF0 		movq	-16(%rbp), %rcx
 761 062e 488B45E8 		movq	-24(%rbp), %rax
 762 0632 4889CE   		movq	%rcx, %rsi
 763 0635 4889C7   		movq	%rax, %rdi
 764 0638 E84BFEFF 		call	KCipherVecAesNiEncryptV1Int
 764      FF
 353:/home/rodarmer/sra_sdk-2.3.1/libs/krypto/cipher-vec.c ****          (pin += self->dad.block_size), (pout += self->dad.block_size))
 765              		.loc 1 353 0
 766 063d 488B45E8 		movq	-24(%rbp), %rax
 767 0641 8B4004   		movl	4(%rax), %eax
 768 0644 89C0     		mov	%eax, %eax
 769 0646 480145F0 		addq	%rax, -16(%rbp)
 770 064a 488B45E8 		movq	-24(%rbp), %rax
 771 064e 8B4004   		movl	4(%rax), %eax
 772 0651 89C0     		mov	%eax, %eax
 773 0653 480145F8 		addq	%rax, -8(%rbp)
 774              	.L59:
 352:/home/rodarmer/sra_sdk-2.3.1/libs/krypto/cipher-vec.c ****          block_count --; 
 775              		.loc 1 352 0
 776 0657 837DD400 		cmpl	$0, -44(%rbp)
 777 065b 0F95C0   		setne	%al
 778 065e 836DD401 		subl	$1, -44(%rbp)
 351:/home/rodarmer/sra_sdk-2.3.1/libs/krypto/cipher-vec.c ****     for ((pin = in), (pout = out);
 779              		.loc 1 351 0
 780 0662 84C0     		testb	%al, %al
 781 0664 75C0     		jne	.L60
 356:/home/rodarmer/sra_sdk-2.3.1/libs/krypto/cipher-vec.c ****     }
 357:/home/rodarmer/sra_sdk-2.3.1/libs/krypto/cipher-vec.c ****     return 0;
 782              		.loc 1 357 0
 783 0666 B8000000 		movl	$0, %eax
 783      00
 358:/home/rodarmer/sra_sdk-2.3.1/libs/krypto/cipher-vec.c **** }
 784              		.loc 1 358 0
 785 066b C9       		leave
 786 066c C3       		ret
 787              		.cfi_endproc
 788              	.LFE616:
 789              		.size	KCipherVecAesNiEncryptEcb, .-KCipherVecAesNiEncryptEcb
 790              		.type	KCipherVecAesNiDecryptEcb, @function
 791              	KCipherVecAesNiDecryptEcb:
GAS LISTING /tmp/ccf9IsGZ.s 			page 24


 792              	.LFB617:
 359:/home/rodarmer/sra_sdk-2.3.1/libs/krypto/cipher-vec.c **** 
 360:/home/rodarmer/sra_sdk-2.3.1/libs/krypto/cipher-vec.c **** 
 361:/home/rodarmer/sra_sdk-2.3.1/libs/krypto/cipher-vec.c **** static
 362:/home/rodarmer/sra_sdk-2.3.1/libs/krypto/cipher-vec.c **** rc_t CMEMBER(DecryptEcb) (const CIPHER_IMPL * self, const void * in, void * out, uint32_t block_cou
 363:/home/rodarmer/sra_sdk-2.3.1/libs/krypto/cipher-vec.c **** {
 793              		.loc 1 363 0
 794              		.cfi_startproc
 795 066d 55       		pushq	%rbp
 796              	.LCFI32:
 797              		.cfi_def_cfa_offset 16
 798 066e 4889E5   		movq	%rsp, %rbp
 799              		.cfi_offset 6, -16
 800              	.LCFI33:
 801              		.cfi_def_cfa_register 6
 802 0671 4883EC30 		subq	$48, %rsp
 803 0675 48897DE8 		movq	%rdi, -24(%rbp)
 804 0679 488975E0 		movq	%rsi, -32(%rbp)
 805 067d 488955D8 		movq	%rdx, -40(%rbp)
 806 0681 894DD4   		movl	%ecx, -44(%rbp)
 364:/home/rodarmer/sra_sdk-2.3.1/libs/krypto/cipher-vec.c ****     const uint8_t * pin;
 365:/home/rodarmer/sra_sdk-2.3.1/libs/krypto/cipher-vec.c ****     uint8_t * pout;
 366:/home/rodarmer/sra_sdk-2.3.1/libs/krypto/cipher-vec.c **** 
 367:/home/rodarmer/sra_sdk-2.3.1/libs/krypto/cipher-vec.c ****     for ((pin = in), (pout = out);
 807              		.loc 1 367 0
 808 0684 488B45E0 		movq	-32(%rbp), %rax
 809 0688 488945F0 		movq	%rax, -16(%rbp)
 810 068c 488B45D8 		movq	-40(%rbp), %rax
 811 0690 488945F8 		movq	%rax, -8(%rbp)
 812 0694 EB31     		jmp	.L63
 813              	.L64:
 368:/home/rodarmer/sra_sdk-2.3.1/libs/krypto/cipher-vec.c ****          block_count --; 
 369:/home/rodarmer/sra_sdk-2.3.1/libs/krypto/cipher-vec.c ****          (pin += self->dad.block_size), (pout += self->dad.block_size))
 370:/home/rodarmer/sra_sdk-2.3.1/libs/krypto/cipher-vec.c ****     {
 371:/home/rodarmer/sra_sdk-2.3.1/libs/krypto/cipher-vec.c ****         CMEMBER(DecryptV1Int)(self, pin, pout);
 814              		.loc 1 371 0
 815 0696 488B55F8 		movq	-8(%rbp), %rdx
 816 069a 488B4DF0 		movq	-16(%rbp), %rcx
 817 069e 488B45E8 		movq	-24(%rbp), %rax
 818 06a2 4889CE   		movq	%rcx, %rsi
 819 06a5 4889C7   		movq	%rax, %rdi
 820 06a8 E82EFEFF 		call	KCipherVecAesNiDecryptV1Int
 820      FF
 369:/home/rodarmer/sra_sdk-2.3.1/libs/krypto/cipher-vec.c ****          (pin += self->dad.block_size), (pout += self->dad.block_size))
 821              		.loc 1 369 0
 822 06ad 488B45E8 		movq	-24(%rbp), %rax
 823 06b1 8B4004   		movl	4(%rax), %eax
 824 06b4 89C0     		mov	%eax, %eax
 825 06b6 480145F0 		addq	%rax, -16(%rbp)
 826 06ba 488B45E8 		movq	-24(%rbp), %rax
 827 06be 8B4004   		movl	4(%rax), %eax
 828 06c1 89C0     		mov	%eax, %eax
 829 06c3 480145F8 		addq	%rax, -8(%rbp)
 830              	.L63:
 368:/home/rodarmer/sra_sdk-2.3.1/libs/krypto/cipher-vec.c ****          block_count --; 
 831              		.loc 1 368 0
 832 06c7 837DD400 		cmpl	$0, -44(%rbp)
GAS LISTING /tmp/ccf9IsGZ.s 			page 25


 833 06cb 0F95C0   		setne	%al
 834 06ce 836DD401 		subl	$1, -44(%rbp)
 367:/home/rodarmer/sra_sdk-2.3.1/libs/krypto/cipher-vec.c ****     for ((pin = in), (pout = out);
 835              		.loc 1 367 0
 836 06d2 84C0     		testb	%al, %al
 837 06d4 75C0     		jne	.L64
 372:/home/rodarmer/sra_sdk-2.3.1/libs/krypto/cipher-vec.c ****     }
 373:/home/rodarmer/sra_sdk-2.3.1/libs/krypto/cipher-vec.c **** 
 374:/home/rodarmer/sra_sdk-2.3.1/libs/krypto/cipher-vec.c ****     return 0;
 838              		.loc 1 374 0
 839 06d6 B8000000 		movl	$0, %eax
 839      00
 375:/home/rodarmer/sra_sdk-2.3.1/libs/krypto/cipher-vec.c **** }
 840              		.loc 1 375 0
 841 06db C9       		leave
 842 06dc C3       		ret
 843              		.cfi_endproc
 844              	.LFE617:
 845              		.size	KCipherVecAesNiDecryptEcb, .-KCipherVecAesNiDecryptEcb
 846              		.type	KCipherVecAesNiEncryptCbc, @function
 847              	KCipherVecAesNiEncryptCbc:
 848              	.LFB618:
 376:/home/rodarmer/sra_sdk-2.3.1/libs/krypto/cipher-vec.c **** 
 377:/home/rodarmer/sra_sdk-2.3.1/libs/krypto/cipher-vec.c **** 
 378:/home/rodarmer/sra_sdk-2.3.1/libs/krypto/cipher-vec.c **** /* ----------
 379:/home/rodarmer/sra_sdk-2.3.1/libs/krypto/cipher-vec.c ****  * Cipher-Block Chaining
 380:/home/rodarmer/sra_sdk-2.3.1/libs/krypto/cipher-vec.c ****  * CT = (FB = ENC (PT^IV, EK))
 381:/home/rodarmer/sra_sdk-2.3.1/libs/krypto/cipher-vec.c ****  * PT = DEC ((FB = CT), DK)
 382:/home/rodarmer/sra_sdk-2.3.1/libs/krypto/cipher-vec.c ****  */
 383:/home/rodarmer/sra_sdk-2.3.1/libs/krypto/cipher-vec.c **** static
 384:/home/rodarmer/sra_sdk-2.3.1/libs/krypto/cipher-vec.c **** rc_t CMEMBER(EncryptCbc) (CIPHER_IMPL * self, const void * in, void * out, uint32_t block_count)
 385:/home/rodarmer/sra_sdk-2.3.1/libs/krypto/cipher-vec.c **** {
 849              		.loc 1 385 0
 850              		.cfi_startproc
 851 06dd 55       		pushq	%rbp
 852              	.LCFI34:
 853              		.cfi_def_cfa_offset 16
 854 06de 4889E5   		movq	%rsp, %rbp
 855              		.cfi_offset 6, -16
 856              	.LCFI35:
 857              		.cfi_def_cfa_register 6
 858 06e1 4883EC50 		subq	$80, %rsp
 859 06e5 48897DC8 		movq	%rdi, -56(%rbp)
 860 06e9 488975C0 		movq	%rsi, -64(%rbp)
 861 06ed 488955B8 		movq	%rdx, -72(%rbp)
 862 06f1 894DB4   		movl	%ecx, -76(%rbp)
 386:/home/rodarmer/sra_sdk-2.3.1/libs/krypto/cipher-vec.c ****     CipherVec cv;
 387:/home/rodarmer/sra_sdk-2.3.1/libs/krypto/cipher-vec.c ****     CipherVec ivec;
 388:/home/rodarmer/sra_sdk-2.3.1/libs/krypto/cipher-vec.c ****     const uint8_t * pin;
 389:/home/rodarmer/sra_sdk-2.3.1/libs/krypto/cipher-vec.c ****     uint8_t * pout;
 390:/home/rodarmer/sra_sdk-2.3.1/libs/krypto/cipher-vec.c **** 
 391:/home/rodarmer/sra_sdk-2.3.1/libs/krypto/cipher-vec.c **** #if 0
 392:/home/rodarmer/sra_sdk-2.3.1/libs/krypto/cipher-vec.c ****     ivec = *(const CipherVec*)self->dad.encrypt_ivec;
 393:/home/rodarmer/sra_sdk-2.3.1/libs/krypto/cipher-vec.c **** #else
 394:/home/rodarmer/sra_sdk-2.3.1/libs/krypto/cipher-vec.c ****     ivec = CipherVecIn (self->dad.encrypt_ivec);
 863              		.loc 1 394 0
 864 06f4 488B45C8 		movq	-56(%rbp), %rax
GAS LISTING /tmp/ccf9IsGZ.s 			page 26


 865 06f8 488B4028 		movq	40(%rax), %rax
 866 06fc 4889C7   		movq	%rax, %rdi
 867 06ff E8FCF8FF 		call	CipherVecIn
 867      FF
 868 0704 F30F7F45 		movdqu	%xmm0, -32(%rbp)
 868      E0
 395:/home/rodarmer/sra_sdk-2.3.1/libs/krypto/cipher-vec.c **** #endif
 396:/home/rodarmer/sra_sdk-2.3.1/libs/krypto/cipher-vec.c **** 
 397:/home/rodarmer/sra_sdk-2.3.1/libs/krypto/cipher-vec.c ****     for ((pin = in), (pout = out);
 869              		.loc 1 397 0
 870 0709 488B45C0 		movq	-64(%rbp), %rax
 871 070d 488945F0 		movq	%rax, -16(%rbp)
 872 0711 488B45B8 		movq	-72(%rbp), %rax
 873 0715 488945F8 		movq	%rax, -8(%rbp)
 874 0719 EB65     		jmp	.L67
 875              	.L68:
 398:/home/rodarmer/sra_sdk-2.3.1/libs/krypto/cipher-vec.c ****          block_count --; 
 399:/home/rodarmer/sra_sdk-2.3.1/libs/krypto/cipher-vec.c ****          (pin += self->dad.block_size), (pout += self->dad.block_size))
 400:/home/rodarmer/sra_sdk-2.3.1/libs/krypto/cipher-vec.c ****     {
 401:/home/rodarmer/sra_sdk-2.3.1/libs/krypto/cipher-vec.c ****         cv = CipherVecIn (pin);
 876              		.loc 1 401 0
 877 071b 488B45F0 		movq	-16(%rbp), %rax
 878 071f 4889C7   		movq	%rax, %rdi
 879 0722 E8D9F8FF 		call	CipherVecIn
 879      FF
 880 0727 F30F7F45 		movdqu	%xmm0, -48(%rbp)
 880      D0
 402:/home/rodarmer/sra_sdk-2.3.1/libs/krypto/cipher-vec.c ****         cv ^= ivec;
 881              		.loc 1 402 0
 882 072c F30F6F45 		movdqu	-32(%rbp), %xmm0
 882      E0
 883 0731 F30F6F4D 		movdqu	-48(%rbp), %xmm1
 883      D0
 884 0736 660FEFC1 		pxor	%xmm1, %xmm0
 885 073a F30F7F45 		movdqu	%xmm0, -48(%rbp)
 885      D0
 403:/home/rodarmer/sra_sdk-2.3.1/libs/krypto/cipher-vec.c ****         ivec = CMEMBER(EncryptV1)(self, cv);
 886              		.loc 1 403 0
 887 073f F30F6F45 		movdqu	-48(%rbp), %xmm0
 887      D0
 888 0744 488B45C8 		movq	-56(%rbp), %rax
 889 0748 4889C7   		movq	%rax, %rdi
 890 074b E8EAFCFF 		call	KCipherVecAesNiEncryptV1
 890      FF
 891 0750 F30F7F45 		movdqu	%xmm0, -32(%rbp)
 891      E0
 404:/home/rodarmer/sra_sdk-2.3.1/libs/krypto/cipher-vec.c ****         CipherVecOut (ivec, pout);
 892              		.loc 1 404 0
 893 0755 488B45F8 		movq	-8(%rbp), %rax
 894 0759 F30F6F45 		movdqu	-32(%rbp), %xmm0
 894      E0
 895 075e 4889C7   		movq	%rax, %rdi
 896 0761 E8B9F8FF 		call	CipherVecOut
 896      FF
 399:/home/rodarmer/sra_sdk-2.3.1/libs/krypto/cipher-vec.c ****          (pin += self->dad.block_size), (pout += self->dad.block_size))
 897              		.loc 1 399 0
 898 0766 488B45C8 		movq	-56(%rbp), %rax
GAS LISTING /tmp/ccf9IsGZ.s 			page 27


 899 076a 8B4004   		movl	4(%rax), %eax
 900 076d 89C0     		mov	%eax, %eax
 901 076f 480145F0 		addq	%rax, -16(%rbp)
 902 0773 488B45C8 		movq	-56(%rbp), %rax
 903 0777 8B4004   		movl	4(%rax), %eax
 904 077a 89C0     		mov	%eax, %eax
 905 077c 480145F8 		addq	%rax, -8(%rbp)
 906              	.L67:
 398:/home/rodarmer/sra_sdk-2.3.1/libs/krypto/cipher-vec.c ****          block_count --; 
 907              		.loc 1 398 0
 908 0780 837DB400 		cmpl	$0, -76(%rbp)
 909 0784 0F95C0   		setne	%al
 910 0787 836DB401 		subl	$1, -76(%rbp)
 397:/home/rodarmer/sra_sdk-2.3.1/libs/krypto/cipher-vec.c ****     for ((pin = in), (pout = out);
 911              		.loc 1 397 0
 912 078b 84C0     		testb	%al, %al
 913 078d 758C     		jne	.L68
 405:/home/rodarmer/sra_sdk-2.3.1/libs/krypto/cipher-vec.c ****     }
 406:/home/rodarmer/sra_sdk-2.3.1/libs/krypto/cipher-vec.c **** 
 407:/home/rodarmer/sra_sdk-2.3.1/libs/krypto/cipher-vec.c **** #if 0
 408:/home/rodarmer/sra_sdk-2.3.1/libs/krypto/cipher-vec.c ****     *(CipherVec*)self->dad.encrypt_ivec = ivec;
 409:/home/rodarmer/sra_sdk-2.3.1/libs/krypto/cipher-vec.c **** #else
 410:/home/rodarmer/sra_sdk-2.3.1/libs/krypto/cipher-vec.c ****     CipherVecOut (ivec, self->dad.encrypt_ivec);
 914              		.loc 1 410 0
 915 078f 488B45C8 		movq	-56(%rbp), %rax
 916 0793 488B4028 		movq	40(%rax), %rax
 917 0797 F30F6F45 		movdqu	-32(%rbp), %xmm0
 917      E0
 918 079c 4889C7   		movq	%rax, %rdi
 919 079f E87BF8FF 		call	CipherVecOut
 919      FF
 411:/home/rodarmer/sra_sdk-2.3.1/libs/krypto/cipher-vec.c **** #endif
 412:/home/rodarmer/sra_sdk-2.3.1/libs/krypto/cipher-vec.c **** 
 413:/home/rodarmer/sra_sdk-2.3.1/libs/krypto/cipher-vec.c ****     return 0;
 920              		.loc 1 413 0
 921 07a4 B8000000 		movl	$0, %eax
 921      00
 414:/home/rodarmer/sra_sdk-2.3.1/libs/krypto/cipher-vec.c **** }    
 922              		.loc 1 414 0
 923 07a9 C9       		leave
 924 07aa C3       		ret
 925              		.cfi_endproc
 926              	.LFE618:
 927              		.size	KCipherVecAesNiEncryptCbc, .-KCipherVecAesNiEncryptCbc
 928              		.type	KCipherVecAesNiDecryptCbc, @function
 929              	KCipherVecAesNiDecryptCbc:
 930              	.LFB619:
 415:/home/rodarmer/sra_sdk-2.3.1/libs/krypto/cipher-vec.c **** 
 416:/home/rodarmer/sra_sdk-2.3.1/libs/krypto/cipher-vec.c **** 
 417:/home/rodarmer/sra_sdk-2.3.1/libs/krypto/cipher-vec.c **** static
 418:/home/rodarmer/sra_sdk-2.3.1/libs/krypto/cipher-vec.c **** rc_t CMEMBER(DecryptCbc) (CIPHER_IMPL * self, const void * in, void * out, uint32_t block_count)
 419:/home/rodarmer/sra_sdk-2.3.1/libs/krypto/cipher-vec.c **** {
 931              		.loc 1 419 0
 932              		.cfi_startproc
 933 07ab 55       		pushq	%rbp
 934              	.LCFI36:
 935              		.cfi_def_cfa_offset 16
GAS LISTING /tmp/ccf9IsGZ.s 			page 28


 936 07ac 4889E5   		movq	%rsp, %rbp
 937              		.cfi_offset 6, -16
 938              	.LCFI37:
 939              		.cfi_def_cfa_register 6
 940 07af 4883EC60 		subq	$96, %rsp
 941 07b3 48897DB8 		movq	%rdi, -72(%rbp)
 942 07b7 488975B0 		movq	%rsi, -80(%rbp)
 943 07bb 488955A8 		movq	%rdx, -88(%rbp)
 944 07bf 894DA4   		movl	%ecx, -92(%rbp)
 420:/home/rodarmer/sra_sdk-2.3.1/libs/krypto/cipher-vec.c ****     CipherVec cv;
 421:/home/rodarmer/sra_sdk-2.3.1/libs/krypto/cipher-vec.c ****     CipherVec ivec;
 422:/home/rodarmer/sra_sdk-2.3.1/libs/krypto/cipher-vec.c ****     const uint8_t * pin;
 423:/home/rodarmer/sra_sdk-2.3.1/libs/krypto/cipher-vec.c ****     uint8_t * pout;
 424:/home/rodarmer/sra_sdk-2.3.1/libs/krypto/cipher-vec.c **** 
 425:/home/rodarmer/sra_sdk-2.3.1/libs/krypto/cipher-vec.c ****     ivec = CipherVecIn (self->dad.decrypt_ivec);
 945              		.loc 1 425 0
 946 07c2 488B45B8 		movq	-72(%rbp), %rax
 947 07c6 488B4030 		movq	48(%rax), %rax
 948 07ca 4889C7   		movq	%rax, %rdi
 949 07cd E82EF8FF 		call	CipherVecIn
 949      FF
 950 07d2 F30F7F45 		movdqu	%xmm0, -48(%rbp)
 950      D0
 426:/home/rodarmer/sra_sdk-2.3.1/libs/krypto/cipher-vec.c **** 
 427:/home/rodarmer/sra_sdk-2.3.1/libs/krypto/cipher-vec.c ****     for ((pin = in), (pout = out);
 951              		.loc 1 427 0
 952 07d7 488B45B0 		movq	-80(%rbp), %rax
 953 07db 488945E0 		movq	%rax, -32(%rbp)
 954 07df 488B45A8 		movq	-88(%rbp), %rax
 955 07e3 488945E8 		movq	%rax, -24(%rbp)
 956 07e7 EB6F     		jmp	.L71
 957              	.L72:
 958              	.LBB2:
 428:/home/rodarmer/sra_sdk-2.3.1/libs/krypto/cipher-vec.c ****          block_count --; 
 429:/home/rodarmer/sra_sdk-2.3.1/libs/krypto/cipher-vec.c ****          (pin += self->dad.block_size), (pout += self->dad.block_size))
 430:/home/rodarmer/sra_sdk-2.3.1/libs/krypto/cipher-vec.c ****     {
 431:/home/rodarmer/sra_sdk-2.3.1/libs/krypto/cipher-vec.c ****         CipherVec temp;
 432:/home/rodarmer/sra_sdk-2.3.1/libs/krypto/cipher-vec.c **** 
 433:/home/rodarmer/sra_sdk-2.3.1/libs/krypto/cipher-vec.c ****         cv = CipherVecIn (pin);
 959              		.loc 1 433 0
 960 07e9 488B45E0 		movq	-32(%rbp), %rax
 961 07ed 4889C7   		movq	%rax, %rdi
 962 07f0 E80BF8FF 		call	CipherVecIn
 962      FF
 963 07f5 F30F7F45 		movdqu	%xmm0, -64(%rbp)
 963      C0
 434:/home/rodarmer/sra_sdk-2.3.1/libs/krypto/cipher-vec.c **** #if 0
 435:/home/rodarmer/sra_sdk-2.3.1/libs/krypto/cipher-vec.c ****         temp = cv;
 436:/home/rodarmer/sra_sdk-2.3.1/libs/krypto/cipher-vec.c ****         temp = CMEMBER(DecryptV1)(self, temp);
 437:/home/rodarmer/sra_sdk-2.3.1/libs/krypto/cipher-vec.c **** #else
 438:/home/rodarmer/sra_sdk-2.3.1/libs/krypto/cipher-vec.c ****         temp = CMEMBER(DecryptV1)(self, cv);
 964              		.loc 1 438 0
 965 07fa F30F6F45 		movdqu	-64(%rbp), %xmm0
 965      C0
 966 07ff 488B45B8 		movq	-72(%rbp), %rax
 967 0803 4889C7   		movq	%rax, %rdi
 968 0806 E856FCFF 		call	KCipherVecAesNiDecryptV1
GAS LISTING /tmp/ccf9IsGZ.s 			page 29


 968      FF
 969 080b F30F7F45 		movdqu	%xmm0, -16(%rbp)
 969      F0
 439:/home/rodarmer/sra_sdk-2.3.1/libs/krypto/cipher-vec.c **** #endif
 440:/home/rodarmer/sra_sdk-2.3.1/libs/krypto/cipher-vec.c ****         temp ^= ivec;
 970              		.loc 1 440 0
 971 0810 F30F6F45 		movdqu	-48(%rbp), %xmm0
 971      D0
 972 0815 F30F6F4D 		movdqu	-16(%rbp), %xmm1
 972      F0
 973 081a 660FEFC1 		pxor	%xmm1, %xmm0
 974 081e F30F7F45 		movdqu	%xmm0, -16(%rbp)
 974      F0
 441:/home/rodarmer/sra_sdk-2.3.1/libs/krypto/cipher-vec.c ****         CipherVecOut (temp, pout);
 975              		.loc 1 441 0
 976 0823 488B45E8 		movq	-24(%rbp), %rax
 977 0827 F30F6F45 		movdqu	-16(%rbp), %xmm0
 977      F0
 978 082c 4889C7   		movq	%rax, %rdi
 979 082f E8EBF7FF 		call	CipherVecOut
 979      FF
 442:/home/rodarmer/sra_sdk-2.3.1/libs/krypto/cipher-vec.c ****         ivec = cv;
 980              		.loc 1 442 0
 981 0834 F30F6F45 		movdqu	-64(%rbp), %xmm0
 981      C0
 982 0839 F30F7F45 		movdqu	%xmm0, -48(%rbp)
 982      D0
 983              	.LBE2:
 429:/home/rodarmer/sra_sdk-2.3.1/libs/krypto/cipher-vec.c ****          (pin += self->dad.block_size), (pout += self->dad.block_size))
 984              		.loc 1 429 0
 985 083e 488B45B8 		movq	-72(%rbp), %rax
 986 0842 8B4004   		movl	4(%rax), %eax
 987 0845 89C0     		mov	%eax, %eax
 988 0847 480145E0 		addq	%rax, -32(%rbp)
 989 084b 488B45B8 		movq	-72(%rbp), %rax
 990 084f 8B4004   		movl	4(%rax), %eax
 991 0852 89C0     		mov	%eax, %eax
 992 0854 480145E8 		addq	%rax, -24(%rbp)
 993              	.L71:
 428:/home/rodarmer/sra_sdk-2.3.1/libs/krypto/cipher-vec.c ****          block_count --; 
 994              		.loc 1 428 0
 995 0858 837DA400 		cmpl	$0, -92(%rbp)
 996 085c 0F95C0   		setne	%al
 997 085f 836DA401 		subl	$1, -92(%rbp)
 427:/home/rodarmer/sra_sdk-2.3.1/libs/krypto/cipher-vec.c ****     for ((pin = in), (pout = out);
 998              		.loc 1 427 0
 999 0863 84C0     		testb	%al, %al
 1000 0865 7582     		jne	.L72
 443:/home/rodarmer/sra_sdk-2.3.1/libs/krypto/cipher-vec.c ****     }
 444:/home/rodarmer/sra_sdk-2.3.1/libs/krypto/cipher-vec.c **** 
 445:/home/rodarmer/sra_sdk-2.3.1/libs/krypto/cipher-vec.c ****     *(CipherVec*)self->dad.decrypt_ivec = ivec;
 1001              		.loc 1 445 0
 1002 0867 488B45B8 		movq	-72(%rbp), %rax
 1003 086b 488B4030 		movq	48(%rax), %rax
 1004 086f F30F6F45 		movdqu	-48(%rbp), %xmm0
 1004      D0
 1005 0874 F30F7F00 		movdqu	%xmm0, (%rax)
GAS LISTING /tmp/ccf9IsGZ.s 			page 30


 446:/home/rodarmer/sra_sdk-2.3.1/libs/krypto/cipher-vec.c ****     return 0;
 1006              		.loc 1 446 0
 1007 0878 B8000000 		movl	$0, %eax
 1007      00
 447:/home/rodarmer/sra_sdk-2.3.1/libs/krypto/cipher-vec.c **** }
 1008              		.loc 1 447 0
 1009 087d C9       		leave
 1010 087e C3       		ret
 1011              		.cfi_endproc
 1012              	.LFE619:
 1013              		.size	KCipherVecAesNiDecryptCbc, .-KCipherVecAesNiDecryptCbc
 1014              		.type	KCipherVecAesNiEncryptPcbc, @function
 1015              	KCipherVecAesNiEncryptPcbc:
 1016              	.LFB620:
 448:/home/rodarmer/sra_sdk-2.3.1/libs/krypto/cipher-vec.c **** 
 449:/home/rodarmer/sra_sdk-2.3.1/libs/krypto/cipher-vec.c **** 
 450:/home/rodarmer/sra_sdk-2.3.1/libs/krypto/cipher-vec.c **** /* ----------
 451:/home/rodarmer/sra_sdk-2.3.1/libs/krypto/cipher-vec.c ****  * Propagating cipher-block chaining
 452:/home/rodarmer/sra_sdk-2.3.1/libs/krypto/cipher-vec.c ****  * FB = PT ^ (CT = ENC ((PT^IV), EK))
 453:/home/rodarmer/sra_sdk-2.3.1/libs/krypto/cipher-vec.c ****  * FB = CT ^ (PT = DEC (CT,DK) ^ IV)
 454:/home/rodarmer/sra_sdk-2.3.1/libs/krypto/cipher-vec.c ****  */
 455:/home/rodarmer/sra_sdk-2.3.1/libs/krypto/cipher-vec.c **** static
 456:/home/rodarmer/sra_sdk-2.3.1/libs/krypto/cipher-vec.c **** rc_t CMEMBER(EncryptPcbc) (CIPHER_IMPL * self, const void * in, void * out, uint32_t block_count)
 457:/home/rodarmer/sra_sdk-2.3.1/libs/krypto/cipher-vec.c **** {
 1017              		.loc 1 457 0
 1018              		.cfi_startproc
 1019 087f 55       		pushq	%rbp
 1020              	.LCFI38:
 1021              		.cfi_def_cfa_offset 16
 1022 0880 4889E5   		movq	%rsp, %rbp
 1023              		.cfi_offset 6, -16
 1024              	.LCFI39:
 1025              		.cfi_def_cfa_register 6
 1026 0883 4883EC60 		subq	$96, %rsp
 1027 0887 48897DB8 		movq	%rdi, -72(%rbp)
 1028 088b 488975B0 		movq	%rsi, -80(%rbp)
 1029 088f 488955A8 		movq	%rdx, -88(%rbp)
 1030 0893 894DA4   		movl	%ecx, -92(%rbp)
 458:/home/rodarmer/sra_sdk-2.3.1/libs/krypto/cipher-vec.c **** #if 1
 459:/home/rodarmer/sra_sdk-2.3.1/libs/krypto/cipher-vec.c ****     CipherVec cv;
 460:/home/rodarmer/sra_sdk-2.3.1/libs/krypto/cipher-vec.c ****     CipherVec ivec;
 461:/home/rodarmer/sra_sdk-2.3.1/libs/krypto/cipher-vec.c ****     const uint8_t * pin;
 462:/home/rodarmer/sra_sdk-2.3.1/libs/krypto/cipher-vec.c ****     uint8_t * pout;
 463:/home/rodarmer/sra_sdk-2.3.1/libs/krypto/cipher-vec.c **** 
 464:/home/rodarmer/sra_sdk-2.3.1/libs/krypto/cipher-vec.c ****     ivec = *(const CipherVec*)self->dad.encrypt_ivec;
 1031              		.loc 1 464 0
 1032 0896 488B45B8 		movq	-72(%rbp), %rax
 1033 089a 488B4028 		movq	40(%rax), %rax
 1034 089e 660F6F00 		movdqa	(%rax), %xmm0
 1035 08a2 F30F7F45 		movdqu	%xmm0, -48(%rbp)
 1035      D0
 465:/home/rodarmer/sra_sdk-2.3.1/libs/krypto/cipher-vec.c **** 
 466:/home/rodarmer/sra_sdk-2.3.1/libs/krypto/cipher-vec.c ****     for ((pin = in), (pout = out);
 1036              		.loc 1 466 0
 1037 08a7 488B45B0 		movq	-80(%rbp), %rax
 1038 08ab 488945E0 		movq	%rax, -32(%rbp)
 1039 08af 488B45A8 		movq	-88(%rbp), %rax
GAS LISTING /tmp/ccf9IsGZ.s 			page 31


 1040 08b3 488945E8 		movq	%rax, -24(%rbp)
 1041 08b7 EB78     		jmp	.L75
 1042              	.L76:
 1043              	.LBB3:
 467:/home/rodarmer/sra_sdk-2.3.1/libs/krypto/cipher-vec.c ****          block_count --; 
 468:/home/rodarmer/sra_sdk-2.3.1/libs/krypto/cipher-vec.c ****          (pin += self->dad.block_size), (pout += self->dad.block_size))
 469:/home/rodarmer/sra_sdk-2.3.1/libs/krypto/cipher-vec.c ****     {
 470:/home/rodarmer/sra_sdk-2.3.1/libs/krypto/cipher-vec.c ****         CipherVec temp;
 471:/home/rodarmer/sra_sdk-2.3.1/libs/krypto/cipher-vec.c **** 
 472:/home/rodarmer/sra_sdk-2.3.1/libs/krypto/cipher-vec.c ****         cv = CipherVecIn (pin);
 1044              		.loc 1 472 0
 1045 08b9 488B45E0 		movq	-32(%rbp), %rax
 1046 08bd 4889C7   		movq	%rax, %rdi
 1047 08c0 E83BF7FF 		call	CipherVecIn
 1047      FF
 1048 08c5 F30F7F45 		movdqu	%xmm0, -64(%rbp)
 1048      C0
 473:/home/rodarmer/sra_sdk-2.3.1/libs/krypto/cipher-vec.c ****         temp = cv ^ ivec;
 1049              		.loc 1 473 0
 1050 08ca F30F6F45 		movdqu	-48(%rbp), %xmm0
 1050      D0
 1051 08cf F30F6F4D 		movdqu	-64(%rbp), %xmm1
 1051      C0
 1052 08d4 660FEFC1 		pxor	%xmm1, %xmm0
 1053 08d8 F30F7F45 		movdqu	%xmm0, -16(%rbp)
 1053      F0
 474:/home/rodarmer/sra_sdk-2.3.1/libs/krypto/cipher-vec.c ****         temp = CMEMBER(EncryptV1)(self, temp); 
 1054              		.loc 1 474 0
 1055 08dd F30F6F45 		movdqu	-16(%rbp), %xmm0
 1055      F0
 1056 08e2 488B45B8 		movq	-72(%rbp), %rax
 1057 08e6 4889C7   		movq	%rax, %rdi
 1058 08e9 E84CFBFF 		call	KCipherVecAesNiEncryptV1
 1058      FF
 1059 08ee F30F7F45 		movdqu	%xmm0, -16(%rbp)
 1059      F0
 475:/home/rodarmer/sra_sdk-2.3.1/libs/krypto/cipher-vec.c ****         ivec = cv ^ temp;
 1060              		.loc 1 475 0
 1061 08f3 F30F6F45 		movdqu	-16(%rbp), %xmm0
 1061      F0
 1062 08f8 F30F6F4D 		movdqu	-64(%rbp), %xmm1
 1062      C0
 1063 08fd 660FEFC1 		pxor	%xmm1, %xmm0
 1064 0901 F30F7F45 		movdqu	%xmm0, -48(%rbp)
 1064      D0
 476:/home/rodarmer/sra_sdk-2.3.1/libs/krypto/cipher-vec.c ****         CipherVecOut (temp, pout);
 1065              		.loc 1 476 0
 1066 0906 488B45E8 		movq	-24(%rbp), %rax
 1067 090a F30F6F45 		movdqu	-16(%rbp), %xmm0
 1067      F0
 1068 090f 4889C7   		movq	%rax, %rdi
 1069 0912 E808F7FF 		call	CipherVecOut
 1069      FF
 1070              	.LBE3:
 468:/home/rodarmer/sra_sdk-2.3.1/libs/krypto/cipher-vec.c ****          (pin += self->dad.block_size), (pout += self->dad.block_size))
 1071              		.loc 1 468 0
 1072 0917 488B45B8 		movq	-72(%rbp), %rax
GAS LISTING /tmp/ccf9IsGZ.s 			page 32


 1073 091b 8B4004   		movl	4(%rax), %eax
 1074 091e 89C0     		mov	%eax, %eax
 1075 0920 480145E0 		addq	%rax, -32(%rbp)
 1076 0924 488B45B8 		movq	-72(%rbp), %rax
 1077 0928 8B4004   		movl	4(%rax), %eax
 1078 092b 89C0     		mov	%eax, %eax
 1079 092d 480145E8 		addq	%rax, -24(%rbp)
 1080              	.L75:
 467:/home/rodarmer/sra_sdk-2.3.1/libs/krypto/cipher-vec.c ****          block_count --; 
 1081              		.loc 1 467 0
 1082 0931 837DA400 		cmpl	$0, -92(%rbp)
 1083 0935 0F95C0   		setne	%al
 1084 0938 836DA401 		subl	$1, -92(%rbp)
 466:/home/rodarmer/sra_sdk-2.3.1/libs/krypto/cipher-vec.c ****     for ((pin = in), (pout = out);
 1085              		.loc 1 466 0
 1086 093c 84C0     		testb	%al, %al
 1087 093e 0F8575FF 		jne	.L76
 1087      FFFF
 477:/home/rodarmer/sra_sdk-2.3.1/libs/krypto/cipher-vec.c ****     }
 478:/home/rodarmer/sra_sdk-2.3.1/libs/krypto/cipher-vec.c **** 
 479:/home/rodarmer/sra_sdk-2.3.1/libs/krypto/cipher-vec.c ****     *(CipherVec*)self->dad.encrypt_ivec = ivec;
 1088              		.loc 1 479 0
 1089 0944 488B45B8 		movq	-72(%rbp), %rax
 1090 0948 488B4028 		movq	40(%rax), %rax
 1091 094c F30F6F45 		movdqu	-48(%rbp), %xmm0
 1091      D0
 1092 0951 F30F7F00 		movdqu	%xmm0, (%rax)
 480:/home/rodarmer/sra_sdk-2.3.1/libs/krypto/cipher-vec.c **** 
 481:/home/rodarmer/sra_sdk-2.3.1/libs/krypto/cipher-vec.c ****     return 0;
 1093              		.loc 1 481 0
 1094 0955 B8000000 		movl	$0, %eax
 1094      00
 482:/home/rodarmer/sra_sdk-2.3.1/libs/krypto/cipher-vec.c **** #else
 483:/home/rodarmer/sra_sdk-2.3.1/libs/krypto/cipher-vec.c ****     return RC (rcKrypto, rcCipher, rcEncoding, rcFunction, rcUnsupported);
 484:/home/rodarmer/sra_sdk-2.3.1/libs/krypto/cipher-vec.c **** #endif
 485:/home/rodarmer/sra_sdk-2.3.1/libs/krypto/cipher-vec.c **** }
 1095              		.loc 1 485 0
 1096 095a C9       		leave
 1097 095b C3       		ret
 1098              		.cfi_endproc
 1099              	.LFE620:
 1100              		.size	KCipherVecAesNiEncryptPcbc, .-KCipherVecAesNiEncryptPcbc
 1101              		.type	KCipherVecAesNiDecryptPcbc, @function
 1102              	KCipherVecAesNiDecryptPcbc:
 1103              	.LFB621:
 486:/home/rodarmer/sra_sdk-2.3.1/libs/krypto/cipher-vec.c **** 
 487:/home/rodarmer/sra_sdk-2.3.1/libs/krypto/cipher-vec.c **** 
 488:/home/rodarmer/sra_sdk-2.3.1/libs/krypto/cipher-vec.c **** static
 489:/home/rodarmer/sra_sdk-2.3.1/libs/krypto/cipher-vec.c **** rc_t CMEMBER(DecryptPcbc) (CIPHER_IMPL * self, const void * in, void * out, uint32_t block_count)
 490:/home/rodarmer/sra_sdk-2.3.1/libs/krypto/cipher-vec.c **** {
 1104              		.loc 1 490 0
 1105              		.cfi_startproc
 1106 095c 55       		pushq	%rbp
 1107              	.LCFI40:
 1108              		.cfi_def_cfa_offset 16
 1109 095d 4889E5   		movq	%rsp, %rbp
 1110              		.cfi_offset 6, -16
GAS LISTING /tmp/ccf9IsGZ.s 			page 33


 1111              	.LCFI41:
 1112              		.cfi_def_cfa_register 6
 1113 0960 4883EC60 		subq	$96, %rsp
 1114 0964 48897DB8 		movq	%rdi, -72(%rbp)
 1115 0968 488975B0 		movq	%rsi, -80(%rbp)
 1116 096c 488955A8 		movq	%rdx, -88(%rbp)
 1117 0970 894DA4   		movl	%ecx, -92(%rbp)
 491:/home/rodarmer/sra_sdk-2.3.1/libs/krypto/cipher-vec.c **** #if 1
 492:/home/rodarmer/sra_sdk-2.3.1/libs/krypto/cipher-vec.c ****     CipherVec cv;
 493:/home/rodarmer/sra_sdk-2.3.1/libs/krypto/cipher-vec.c ****     CipherVec ivec;
 494:/home/rodarmer/sra_sdk-2.3.1/libs/krypto/cipher-vec.c ****     const uint8_t * pin;
 495:/home/rodarmer/sra_sdk-2.3.1/libs/krypto/cipher-vec.c ****     uint8_t * pout;
 496:/home/rodarmer/sra_sdk-2.3.1/libs/krypto/cipher-vec.c **** 
 497:/home/rodarmer/sra_sdk-2.3.1/libs/krypto/cipher-vec.c ****     ivec = *(const CipherVec*)self->dad.encrypt_ivec;
 1118              		.loc 1 497 0
 1119 0973 488B45B8 		movq	-72(%rbp), %rax
 1120 0977 488B4028 		movq	40(%rax), %rax
 1121 097b 660F6F00 		movdqa	(%rax), %xmm0
 1122 097f F30F7F45 		movdqu	%xmm0, -48(%rbp)
 1122      D0
 498:/home/rodarmer/sra_sdk-2.3.1/libs/krypto/cipher-vec.c **** 
 499:/home/rodarmer/sra_sdk-2.3.1/libs/krypto/cipher-vec.c ****     for ((pin = in), (pout = out);
 1123              		.loc 1 499 0
 1124 0984 488B45B0 		movq	-80(%rbp), %rax
 1125 0988 488945E0 		movq	%rax, -32(%rbp)
 1126 098c 488B45A8 		movq	-88(%rbp), %rax
 1127 0990 488945E8 		movq	%rax, -24(%rbp)
 1128 0994 EB65     		jmp	.L79
 1129              	.L80:
 1130              	.LBB4:
 500:/home/rodarmer/sra_sdk-2.3.1/libs/krypto/cipher-vec.c ****          block_count --; 
 501:/home/rodarmer/sra_sdk-2.3.1/libs/krypto/cipher-vec.c ****          (pin += self->dad.block_size), (pout += self->dad.block_size))
 502:/home/rodarmer/sra_sdk-2.3.1/libs/krypto/cipher-vec.c ****     {
 503:/home/rodarmer/sra_sdk-2.3.1/libs/krypto/cipher-vec.c ****         CipherVec temp;
 504:/home/rodarmer/sra_sdk-2.3.1/libs/krypto/cipher-vec.c **** 
 505:/home/rodarmer/sra_sdk-2.3.1/libs/krypto/cipher-vec.c ****         cv = CipherVecIn (pin);
 1131              		.loc 1 505 0
 1132 0996 488B45E0 		movq	-32(%rbp), %rax
 1133 099a 4889C7   		movq	%rax, %rdi
 1134 099d E85EF6FF 		call	CipherVecIn
 1134      FF
 1135 09a2 F30F7F45 		movdqu	%xmm0, -64(%rbp)
 1135      C0
 506:/home/rodarmer/sra_sdk-2.3.1/libs/krypto/cipher-vec.c ****         temp = CMEMBER(DecryptV1)(self, cv);
 1136              		.loc 1 506 0
 1137 09a7 F30F6F45 		movdqu	-64(%rbp), %xmm0
 1137      C0
 1138 09ac 488B45B8 		movq	-72(%rbp), %rax
 1139 09b0 4889C7   		movq	%rax, %rdi
 1140 09b3 E8A9FAFF 		call	KCipherVecAesNiDecryptV1
 1140      FF
 1141 09b8 F30F7F45 		movdqu	%xmm0, -16(%rbp)
 1141      F0
 507:/home/rodarmer/sra_sdk-2.3.1/libs/krypto/cipher-vec.c ****         ivec ^= temp;
 1142              		.loc 1 507 0
 1143 09bd F30F6F45 		movdqu	-16(%rbp), %xmm0
 1143      F0
GAS LISTING /tmp/ccf9IsGZ.s 			page 34


 1144 09c2 F30F6F4D 		movdqu	-48(%rbp), %xmm1
 1144      D0
 1145 09c7 660FEFC1 		pxor	%xmm1, %xmm0
 1146 09cb F30F7F45 		movdqu	%xmm0, -48(%rbp)
 1146      D0
 508:/home/rodarmer/sra_sdk-2.3.1/libs/krypto/cipher-vec.c ****         CipherVecOut (temp, pout);
 1147              		.loc 1 508 0
 1148 09d0 488B45E8 		movq	-24(%rbp), %rax
 1149 09d4 F30F6F45 		movdqu	-16(%rbp), %xmm0
 1149      F0
 1150 09d9 4889C7   		movq	%rax, %rdi
 1151 09dc E83EF6FF 		call	CipherVecOut
 1151      FF
 1152              	.LBE4:
 501:/home/rodarmer/sra_sdk-2.3.1/libs/krypto/cipher-vec.c ****          (pin += self->dad.block_size), (pout += self->dad.block_size))
 1153              		.loc 1 501 0
 1154 09e1 488B45B8 		movq	-72(%rbp), %rax
 1155 09e5 8B4004   		movl	4(%rax), %eax
 1156 09e8 89C0     		mov	%eax, %eax
 1157 09ea 480145E0 		addq	%rax, -32(%rbp)
 1158 09ee 488B45B8 		movq	-72(%rbp), %rax
 1159 09f2 8B4004   		movl	4(%rax), %eax
 1160 09f5 89C0     		mov	%eax, %eax
 1161 09f7 480145E8 		addq	%rax, -24(%rbp)
 1162              	.L79:
 500:/home/rodarmer/sra_sdk-2.3.1/libs/krypto/cipher-vec.c ****          block_count --; 
 1163              		.loc 1 500 0
 1164 09fb 837DA400 		cmpl	$0, -92(%rbp)
 1165 09ff 0F95C0   		setne	%al
 1166 0a02 836DA401 		subl	$1, -92(%rbp)
 499:/home/rodarmer/sra_sdk-2.3.1/libs/krypto/cipher-vec.c ****     for ((pin = in), (pout = out);
 1167              		.loc 1 499 0
 1168 0a06 84C0     		testb	%al, %al
 1169 0a08 758C     		jne	.L80
 509:/home/rodarmer/sra_sdk-2.3.1/libs/krypto/cipher-vec.c ****     }
 510:/home/rodarmer/sra_sdk-2.3.1/libs/krypto/cipher-vec.c **** 
 511:/home/rodarmer/sra_sdk-2.3.1/libs/krypto/cipher-vec.c ****     *(CipherVec*)self->dad.encrypt_ivec = ivec;
 1170              		.loc 1 511 0
 1171 0a0a 488B45B8 		movq	-72(%rbp), %rax
 1172 0a0e 488B4028 		movq	40(%rax), %rax
 1173 0a12 F30F6F45 		movdqu	-48(%rbp), %xmm0
 1173      D0
 1174 0a17 F30F7F00 		movdqu	%xmm0, (%rax)
 512:/home/rodarmer/sra_sdk-2.3.1/libs/krypto/cipher-vec.c **** 
 513:/home/rodarmer/sra_sdk-2.3.1/libs/krypto/cipher-vec.c ****     return 0;
 1175              		.loc 1 513 0
 1176 0a1b B8000000 		movl	$0, %eax
 1176      00
 514:/home/rodarmer/sra_sdk-2.3.1/libs/krypto/cipher-vec.c **** #else
 515:/home/rodarmer/sra_sdk-2.3.1/libs/krypto/cipher-vec.c ****     return RC (rcKrypto, rcCipher, rcEncoding, rcFunction, rcUnsupported);
 516:/home/rodarmer/sra_sdk-2.3.1/libs/krypto/cipher-vec.c **** #endif
 517:/home/rodarmer/sra_sdk-2.3.1/libs/krypto/cipher-vec.c **** }
 1177              		.loc 1 517 0
 1178 0a20 C9       		leave
 1179 0a21 C3       		ret
 1180              		.cfi_endproc
 1181              	.LFE621:
GAS LISTING /tmp/ccf9IsGZ.s 			page 35


 1182              		.size	KCipherVecAesNiDecryptPcbc, .-KCipherVecAesNiDecryptPcbc
 1183              		.type	KCipherVecAesNiEncryptCfb, @function
 1184              	KCipherVecAesNiEncryptCfb:
 1185              	.LFB622:
 518:/home/rodarmer/sra_sdk-2.3.1/libs/krypto/cipher-vec.c **** 
 519:/home/rodarmer/sra_sdk-2.3.1/libs/krypto/cipher-vec.c **** 
 520:/home/rodarmer/sra_sdk-2.3.1/libs/krypto/cipher-vec.c **** /* ----------
 521:/home/rodarmer/sra_sdk-2.3.1/libs/krypto/cipher-vec.c ****  * Cipher Feedback
 522:/home/rodarmer/sra_sdk-2.3.1/libs/krypto/cipher-vec.c ****  * CT = (FB = PT) ^ ENC (IV, EK))
 523:/home/rodarmer/sra_sdk-2.3.1/libs/krypto/cipher-vec.c ****  * PT = (FB = CT) ^ DEC (IV, DK)
 524:/home/rodarmer/sra_sdk-2.3.1/libs/krypto/cipher-vec.c ****  */
 525:/home/rodarmer/sra_sdk-2.3.1/libs/krypto/cipher-vec.c **** static
 526:/home/rodarmer/sra_sdk-2.3.1/libs/krypto/cipher-vec.c **** rc_t CMEMBER(EncryptCfb) (CIPHER_IMPL * self, const void * in, void * out, uint32_t block_count)
 527:/home/rodarmer/sra_sdk-2.3.1/libs/krypto/cipher-vec.c **** {
 1186              		.loc 1 527 0
 1187              		.cfi_startproc
 1188 0a22 55       		pushq	%rbp
 1189              	.LCFI42:
 1190              		.cfi_def_cfa_offset 16
 1191 0a23 4889E5   		movq	%rsp, %rbp
 1192              		.cfi_offset 6, -16
 1193              	.LCFI43:
 1194              		.cfi_def_cfa_register 6
 1195 0a26 4883EC50 		subq	$80, %rsp
 1196 0a2a 48897DC8 		movq	%rdi, -56(%rbp)
 1197 0a2e 488975C0 		movq	%rsi, -64(%rbp)
 1198 0a32 488955B8 		movq	%rdx, -72(%rbp)
 1199 0a36 894DB4   		movl	%ecx, -76(%rbp)
 528:/home/rodarmer/sra_sdk-2.3.1/libs/krypto/cipher-vec.c **** #if 1
 529:/home/rodarmer/sra_sdk-2.3.1/libs/krypto/cipher-vec.c ****     CipherVec cv;
 530:/home/rodarmer/sra_sdk-2.3.1/libs/krypto/cipher-vec.c ****     CipherVec ivec;
 531:/home/rodarmer/sra_sdk-2.3.1/libs/krypto/cipher-vec.c ****     const uint8_t * pin;
 532:/home/rodarmer/sra_sdk-2.3.1/libs/krypto/cipher-vec.c ****     uint8_t * pout;
 533:/home/rodarmer/sra_sdk-2.3.1/libs/krypto/cipher-vec.c **** 
 534:/home/rodarmer/sra_sdk-2.3.1/libs/krypto/cipher-vec.c ****     ivec = *(const CipherVec*)self->dad.encrypt_ivec;
 1200              		.loc 1 534 0
 1201 0a39 488B45C8 		movq	-56(%rbp), %rax
 1202 0a3d 488B4028 		movq	40(%rax), %rax
 1203 0a41 660F6F00 		movdqa	(%rax), %xmm0
 1204 0a45 F30F7F45 		movdqu	%xmm0, -32(%rbp)
 1204      E0
 535:/home/rodarmer/sra_sdk-2.3.1/libs/krypto/cipher-vec.c **** 
 536:/home/rodarmer/sra_sdk-2.3.1/libs/krypto/cipher-vec.c ****     for ((pin = in), (pout = out);
 1205              		.loc 1 536 0
 1206 0a4a 488B45C0 		movq	-64(%rbp), %rax
 1207 0a4e 488945F0 		movq	%rax, -16(%rbp)
 1208 0a52 488B45B8 		movq	-72(%rbp), %rax
 1209 0a56 488945F8 		movq	%rax, -8(%rbp)
 1210 0a5a EB65     		jmp	.L83
 1211              	.L84:
 537:/home/rodarmer/sra_sdk-2.3.1/libs/krypto/cipher-vec.c ****          block_count --; 
 538:/home/rodarmer/sra_sdk-2.3.1/libs/krypto/cipher-vec.c ****          (pin += self->dad.block_size), (pout += self->dad.block_size))
 539:/home/rodarmer/sra_sdk-2.3.1/libs/krypto/cipher-vec.c ****     {
 540:/home/rodarmer/sra_sdk-2.3.1/libs/krypto/cipher-vec.c ****         ivec = CMEMBER(EncryptV1)(self, ivec); 
 1212              		.loc 1 540 0
 1213 0a5c F30F6F45 		movdqu	-32(%rbp), %xmm0
 1213      E0
GAS LISTING /tmp/ccf9IsGZ.s 			page 36


 1214 0a61 488B45C8 		movq	-56(%rbp), %rax
 1215 0a65 4889C7   		movq	%rax, %rdi
 1216 0a68 E8CDF9FF 		call	KCipherVecAesNiEncryptV1
 1216      FF
 1217 0a6d F30F7F45 		movdqu	%xmm0, -32(%rbp)
 1217      E0
 541:/home/rodarmer/sra_sdk-2.3.1/libs/krypto/cipher-vec.c ****         cv = CipherVecIn (pin);
 1218              		.loc 1 541 0
 1219 0a72 488B45F0 		movq	-16(%rbp), %rax
 1220 0a76 4889C7   		movq	%rax, %rdi
 1221 0a79 E882F5FF 		call	CipherVecIn
 1221      FF
 1222 0a7e F30F7F45 		movdqu	%xmm0, -48(%rbp)
 1222      D0
 542:/home/rodarmer/sra_sdk-2.3.1/libs/krypto/cipher-vec.c ****         ivec ^= cv;
 1223              		.loc 1 542 0
 1224 0a83 F30F6F45 		movdqu	-48(%rbp), %xmm0
 1224      D0
 1225 0a88 F30F6F4D 		movdqu	-32(%rbp), %xmm1
 1225      E0
 1226 0a8d 660FEFC1 		pxor	%xmm1, %xmm0
 1227 0a91 F30F7F45 		movdqu	%xmm0, -32(%rbp)
 1227      E0
 543:/home/rodarmer/sra_sdk-2.3.1/libs/krypto/cipher-vec.c ****         CipherVecOut (ivec, pout);
 1228              		.loc 1 543 0
 1229 0a96 488B45F8 		movq	-8(%rbp), %rax
 1230 0a9a F30F6F45 		movdqu	-32(%rbp), %xmm0
 1230      E0
 1231 0a9f 4889C7   		movq	%rax, %rdi
 1232 0aa2 E878F5FF 		call	CipherVecOut
 1232      FF
 538:/home/rodarmer/sra_sdk-2.3.1/libs/krypto/cipher-vec.c ****          (pin += self->dad.block_size), (pout += self->dad.block_size))
 1233              		.loc 1 538 0
 1234 0aa7 488B45C8 		movq	-56(%rbp), %rax
 1235 0aab 8B4004   		movl	4(%rax), %eax
 1236 0aae 89C0     		mov	%eax, %eax
 1237 0ab0 480145F0 		addq	%rax, -16(%rbp)
 1238 0ab4 488B45C8 		movq	-56(%rbp), %rax
 1239 0ab8 8B4004   		movl	4(%rax), %eax
 1240 0abb 89C0     		mov	%eax, %eax
 1241 0abd 480145F8 		addq	%rax, -8(%rbp)
 1242              	.L83:
 537:/home/rodarmer/sra_sdk-2.3.1/libs/krypto/cipher-vec.c ****          block_count --; 
 1243              		.loc 1 537 0
 1244 0ac1 837DB400 		cmpl	$0, -76(%rbp)
 1245 0ac5 0F95C0   		setne	%al
 1246 0ac8 836DB401 		subl	$1, -76(%rbp)
 536:/home/rodarmer/sra_sdk-2.3.1/libs/krypto/cipher-vec.c ****     for ((pin = in), (pout = out);
 1247              		.loc 1 536 0
 1248 0acc 84C0     		testb	%al, %al
 1249 0ace 758C     		jne	.L84
 544:/home/rodarmer/sra_sdk-2.3.1/libs/krypto/cipher-vec.c ****     }
 545:/home/rodarmer/sra_sdk-2.3.1/libs/krypto/cipher-vec.c **** 
 546:/home/rodarmer/sra_sdk-2.3.1/libs/krypto/cipher-vec.c ****     *(CipherVec*)self->dad.encrypt_ivec = ivec;
 1250              		.loc 1 546 0
 1251 0ad0 488B45C8 		movq	-56(%rbp), %rax
 1252 0ad4 488B4028 		movq	40(%rax), %rax
GAS LISTING /tmp/ccf9IsGZ.s 			page 37


 1253 0ad8 F30F6F45 		movdqu	-32(%rbp), %xmm0
 1253      E0
 1254 0add F30F7F00 		movdqu	%xmm0, (%rax)
 547:/home/rodarmer/sra_sdk-2.3.1/libs/krypto/cipher-vec.c **** 
 548:/home/rodarmer/sra_sdk-2.3.1/libs/krypto/cipher-vec.c ****     return 0;
 1255              		.loc 1 548 0
 1256 0ae1 B8000000 		movl	$0, %eax
 1256      00
 549:/home/rodarmer/sra_sdk-2.3.1/libs/krypto/cipher-vec.c **** #else
 550:/home/rodarmer/sra_sdk-2.3.1/libs/krypto/cipher-vec.c ****     return RC (rcKrypto, rcCipher, rcEncoding, rcFunction, rcUnsupported);
 551:/home/rodarmer/sra_sdk-2.3.1/libs/krypto/cipher-vec.c **** #endif
 552:/home/rodarmer/sra_sdk-2.3.1/libs/krypto/cipher-vec.c **** }
 1257              		.loc 1 552 0
 1258 0ae6 C9       		leave
 1259 0ae7 C3       		ret
 1260              		.cfi_endproc
 1261              	.LFE622:
 1262              		.size	KCipherVecAesNiEncryptCfb, .-KCipherVecAesNiEncryptCfb
 1263              		.type	KCipherVecAesNiDecryptCfb, @function
 1264              	KCipherVecAesNiDecryptCfb:
 1265              	.LFB623:
 553:/home/rodarmer/sra_sdk-2.3.1/libs/krypto/cipher-vec.c **** 
 554:/home/rodarmer/sra_sdk-2.3.1/libs/krypto/cipher-vec.c **** 
 555:/home/rodarmer/sra_sdk-2.3.1/libs/krypto/cipher-vec.c **** static
 556:/home/rodarmer/sra_sdk-2.3.1/libs/krypto/cipher-vec.c **** rc_t CMEMBER(DecryptCfb) (CIPHER_IMPL * self, const void * in, void * out, uint32_t block_count)
 557:/home/rodarmer/sra_sdk-2.3.1/libs/krypto/cipher-vec.c **** {
 1266              		.loc 1 557 0
 1267              		.cfi_startproc
 1268 0ae8 55       		pushq	%rbp
 1269              	.LCFI44:
 1270              		.cfi_def_cfa_offset 16
 1271 0ae9 4889E5   		movq	%rsp, %rbp
 1272              		.cfi_offset 6, -16
 1273              	.LCFI45:
 1274              		.cfi_def_cfa_register 6
 1275 0aec 4883EC50 		subq	$80, %rsp
 1276 0af0 48897DC8 		movq	%rdi, -56(%rbp)
 1277 0af4 488975C0 		movq	%rsi, -64(%rbp)
 1278 0af8 488955B8 		movq	%rdx, -72(%rbp)
 1279 0afc 894DB4   		movl	%ecx, -76(%rbp)
 558:/home/rodarmer/sra_sdk-2.3.1/libs/krypto/cipher-vec.c **** #if 1
 559:/home/rodarmer/sra_sdk-2.3.1/libs/krypto/cipher-vec.c ****     CipherVec cv;
 560:/home/rodarmer/sra_sdk-2.3.1/libs/krypto/cipher-vec.c ****     CipherVec ivec;
 561:/home/rodarmer/sra_sdk-2.3.1/libs/krypto/cipher-vec.c ****     const uint8_t * pin;
 562:/home/rodarmer/sra_sdk-2.3.1/libs/krypto/cipher-vec.c ****     uint8_t * pout;
 563:/home/rodarmer/sra_sdk-2.3.1/libs/krypto/cipher-vec.c **** 
 564:/home/rodarmer/sra_sdk-2.3.1/libs/krypto/cipher-vec.c ****     ivec = *(const CipherVec*)self->dad.encrypt_ivec;
 1280              		.loc 1 564 0
 1281 0aff 488B45C8 		movq	-56(%rbp), %rax
 1282 0b03 488B4028 		movq	40(%rax), %rax
 1283 0b07 660F6F00 		movdqa	(%rax), %xmm0
 1284 0b0b F30F7F45 		movdqu	%xmm0, -32(%rbp)
 1284      E0
 565:/home/rodarmer/sra_sdk-2.3.1/libs/krypto/cipher-vec.c **** 
 566:/home/rodarmer/sra_sdk-2.3.1/libs/krypto/cipher-vec.c ****     for ((pin = in), (pout = out);
 1285              		.loc 1 566 0
 1286 0b10 488B45C0 		movq	-64(%rbp), %rax
GAS LISTING /tmp/ccf9IsGZ.s 			page 38


 1287 0b14 488945F0 		movq	%rax, -16(%rbp)
 1288 0b18 488B45B8 		movq	-72(%rbp), %rax
 1289 0b1c 488945F8 		movq	%rax, -8(%rbp)
 1290 0b20 EB65     		jmp	.L87
 1291              	.L88:
 567:/home/rodarmer/sra_sdk-2.3.1/libs/krypto/cipher-vec.c ****          block_count --; 
 568:/home/rodarmer/sra_sdk-2.3.1/libs/krypto/cipher-vec.c ****          (pin += self->dad.block_size), (pout += self->dad.block_size))
 569:/home/rodarmer/sra_sdk-2.3.1/libs/krypto/cipher-vec.c ****     {
 570:/home/rodarmer/sra_sdk-2.3.1/libs/krypto/cipher-vec.c ****         cv = CMEMBER(EncryptV1)(self, ivec); 
 1292              		.loc 1 570 0
 1293 0b22 F30F6F45 		movdqu	-32(%rbp), %xmm0
 1293      E0
 1294 0b27 488B45C8 		movq	-56(%rbp), %rax
 1295 0b2b 4889C7   		movq	%rax, %rdi
 1296 0b2e E807F9FF 		call	KCipherVecAesNiEncryptV1
 1296      FF
 1297 0b33 F30F7F45 		movdqu	%xmm0, -48(%rbp)
 1297      D0
 571:/home/rodarmer/sra_sdk-2.3.1/libs/krypto/cipher-vec.c ****         ivec = CipherVecIn (pin);
 1298              		.loc 1 571 0
 1299 0b38 488B45F0 		movq	-16(%rbp), %rax
 1300 0b3c 4889C7   		movq	%rax, %rdi
 1301 0b3f E8BCF4FF 		call	CipherVecIn
 1301      FF
 1302 0b44 F30F7F45 		movdqu	%xmm0, -32(%rbp)
 1302      E0
 572:/home/rodarmer/sra_sdk-2.3.1/libs/krypto/cipher-vec.c ****         cv ^= ivec;
 1303              		.loc 1 572 0
 1304 0b49 F30F6F45 		movdqu	-32(%rbp), %xmm0
 1304      E0
 1305 0b4e F30F6F4D 		movdqu	-48(%rbp), %xmm1
 1305      D0
 1306 0b53 660FEFC1 		pxor	%xmm1, %xmm0
 1307 0b57 F30F7F45 		movdqu	%xmm0, -48(%rbp)
 1307      D0
 573:/home/rodarmer/sra_sdk-2.3.1/libs/krypto/cipher-vec.c ****         CipherVecOut (cv, pout);
 1308              		.loc 1 573 0
 1309 0b5c 488B45F8 		movq	-8(%rbp), %rax
 1310 0b60 F30F6F45 		movdqu	-48(%rbp), %xmm0
 1310      D0
 1311 0b65 4889C7   		movq	%rax, %rdi
 1312 0b68 E8B2F4FF 		call	CipherVecOut
 1312      FF
 568:/home/rodarmer/sra_sdk-2.3.1/libs/krypto/cipher-vec.c ****          (pin += self->dad.block_size), (pout += self->dad.block_size))
 1313              		.loc 1 568 0
 1314 0b6d 488B45C8 		movq	-56(%rbp), %rax
 1315 0b71 8B4004   		movl	4(%rax), %eax
 1316 0b74 89C0     		mov	%eax, %eax
 1317 0b76 480145F0 		addq	%rax, -16(%rbp)
 1318 0b7a 488B45C8 		movq	-56(%rbp), %rax
 1319 0b7e 8B4004   		movl	4(%rax), %eax
 1320 0b81 89C0     		mov	%eax, %eax
 1321 0b83 480145F8 		addq	%rax, -8(%rbp)
 1322              	.L87:
 567:/home/rodarmer/sra_sdk-2.3.1/libs/krypto/cipher-vec.c ****          block_count --; 
 1323              		.loc 1 567 0
 1324 0b87 837DB400 		cmpl	$0, -76(%rbp)
GAS LISTING /tmp/ccf9IsGZ.s 			page 39


 1325 0b8b 0F95C0   		setne	%al
 1326 0b8e 836DB401 		subl	$1, -76(%rbp)
 566:/home/rodarmer/sra_sdk-2.3.1/libs/krypto/cipher-vec.c ****     for ((pin = in), (pout = out);
 1327              		.loc 1 566 0
 1328 0b92 84C0     		testb	%al, %al
 1329 0b94 758C     		jne	.L88
 574:/home/rodarmer/sra_sdk-2.3.1/libs/krypto/cipher-vec.c ****     }
 575:/home/rodarmer/sra_sdk-2.3.1/libs/krypto/cipher-vec.c **** 
 576:/home/rodarmer/sra_sdk-2.3.1/libs/krypto/cipher-vec.c ****     *(CipherVec*)self->dad.encrypt_ivec = ivec;
 1330              		.loc 1 576 0
 1331 0b96 488B45C8 		movq	-56(%rbp), %rax
 1332 0b9a 488B4028 		movq	40(%rax), %rax
 1333 0b9e F30F6F45 		movdqu	-32(%rbp), %xmm0
 1333      E0
 1334 0ba3 F30F7F00 		movdqu	%xmm0, (%rax)
 577:/home/rodarmer/sra_sdk-2.3.1/libs/krypto/cipher-vec.c **** 
 578:/home/rodarmer/sra_sdk-2.3.1/libs/krypto/cipher-vec.c ****     return 0;
 1335              		.loc 1 578 0
 1336 0ba7 B8000000 		movl	$0, %eax
 1336      00
 579:/home/rodarmer/sra_sdk-2.3.1/libs/krypto/cipher-vec.c **** #else
 580:/home/rodarmer/sra_sdk-2.3.1/libs/krypto/cipher-vec.c ****     return RC (rcKrypto, rcCipher, rcEncoding, rcFunction, rcUnsupported);
 581:/home/rodarmer/sra_sdk-2.3.1/libs/krypto/cipher-vec.c **** #endif
 582:/home/rodarmer/sra_sdk-2.3.1/libs/krypto/cipher-vec.c **** }
 1337              		.loc 1 582 0
 1338 0bac C9       		leave
 1339 0bad C3       		ret
 1340              		.cfi_endproc
 1341              	.LFE623:
 1342              		.size	KCipherVecAesNiDecryptCfb, .-KCipherVecAesNiDecryptCfb
 1343              		.type	KCipherVecAesNiEncryptOfb, @function
 1344              	KCipherVecAesNiEncryptOfb:
 1345              	.LFB624:
 583:/home/rodarmer/sra_sdk-2.3.1/libs/krypto/cipher-vec.c **** 
 584:/home/rodarmer/sra_sdk-2.3.1/libs/krypto/cipher-vec.c **** 
 585:/home/rodarmer/sra_sdk-2.3.1/libs/krypto/cipher-vec.c **** /* ----------
 586:/home/rodarmer/sra_sdk-2.3.1/libs/krypto/cipher-vec.c ****  * Output Feedback
 587:/home/rodarmer/sra_sdk-2.3.1/libs/krypto/cipher-vec.c ****  * CT = PT ^ (FB = ENC (IV, EK))
 588:/home/rodarmer/sra_sdk-2.3.1/libs/krypto/cipher-vec.c ****  * PT = CT ^ (FB = DEC (IV, DK))
 589:/home/rodarmer/sra_sdk-2.3.1/libs/krypto/cipher-vec.c ****  */
 590:/home/rodarmer/sra_sdk-2.3.1/libs/krypto/cipher-vec.c **** static
 591:/home/rodarmer/sra_sdk-2.3.1/libs/krypto/cipher-vec.c **** rc_t CMEMBER(EncryptOfb) (CIPHER_IMPL * self, const void * in, void * out, uint32_t block_count)
 592:/home/rodarmer/sra_sdk-2.3.1/libs/krypto/cipher-vec.c **** {
 1346              		.loc 1 592 0
 1347              		.cfi_startproc
 1348 0bae 55       		pushq	%rbp
 1349              	.LCFI46:
 1350              		.cfi_def_cfa_offset 16
 1351 0baf 4889E5   		movq	%rsp, %rbp
 1352              		.cfi_offset 6, -16
 1353              	.LCFI47:
 1354              		.cfi_def_cfa_register 6
 1355 0bb2 4883EC50 		subq	$80, %rsp
 1356 0bb6 48897DC8 		movq	%rdi, -56(%rbp)
 1357 0bba 488975C0 		movq	%rsi, -64(%rbp)
 1358 0bbe 488955B8 		movq	%rdx, -72(%rbp)
 1359 0bc2 894DB4   		movl	%ecx, -76(%rbp)
GAS LISTING /tmp/ccf9IsGZ.s 			page 40


 593:/home/rodarmer/sra_sdk-2.3.1/libs/krypto/cipher-vec.c **** #if 1
 594:/home/rodarmer/sra_sdk-2.3.1/libs/krypto/cipher-vec.c ****     CipherVec cv;
 595:/home/rodarmer/sra_sdk-2.3.1/libs/krypto/cipher-vec.c ****     CipherVec ivec;
 596:/home/rodarmer/sra_sdk-2.3.1/libs/krypto/cipher-vec.c ****     const uint8_t * pin;
 597:/home/rodarmer/sra_sdk-2.3.1/libs/krypto/cipher-vec.c ****     uint8_t * pout;
 598:/home/rodarmer/sra_sdk-2.3.1/libs/krypto/cipher-vec.c **** 
 599:/home/rodarmer/sra_sdk-2.3.1/libs/krypto/cipher-vec.c ****     ivec = *(const CipherVec*)self->dad.encrypt_ivec;
 1360              		.loc 1 599 0
 1361 0bc5 488B45C8 		movq	-56(%rbp), %rax
 1362 0bc9 488B4028 		movq	40(%rax), %rax
 1363 0bcd 660F6F00 		movdqa	(%rax), %xmm0
 1364 0bd1 F30F7F45 		movdqu	%xmm0, -32(%rbp)
 1364      E0
 600:/home/rodarmer/sra_sdk-2.3.1/libs/krypto/cipher-vec.c **** 
 601:/home/rodarmer/sra_sdk-2.3.1/libs/krypto/cipher-vec.c ****     for ((pin = in), (pout = out);
 1365              		.loc 1 601 0
 1366 0bd6 488B45C0 		movq	-64(%rbp), %rax
 1367 0bda 488945F0 		movq	%rax, -16(%rbp)
 1368 0bde 488B45B8 		movq	-72(%rbp), %rax
 1369 0be2 488945F8 		movq	%rax, -8(%rbp)
 1370 0be6 EB65     		jmp	.L91
 1371              	.L92:
 602:/home/rodarmer/sra_sdk-2.3.1/libs/krypto/cipher-vec.c ****          block_count --; 
 603:/home/rodarmer/sra_sdk-2.3.1/libs/krypto/cipher-vec.c ****          (pin += self->dad.block_size), (pout += self->dad.block_size))
 604:/home/rodarmer/sra_sdk-2.3.1/libs/krypto/cipher-vec.c ****     {
 605:/home/rodarmer/sra_sdk-2.3.1/libs/krypto/cipher-vec.c ****         ivec = CMEMBER(EncryptV1)(self, ivec); 
 1372              		.loc 1 605 0
 1373 0be8 F30F6F45 		movdqu	-32(%rbp), %xmm0
 1373      E0
 1374 0bed 488B45C8 		movq	-56(%rbp), %rax
 1375 0bf1 4889C7   		movq	%rax, %rdi
 1376 0bf4 E841F8FF 		call	KCipherVecAesNiEncryptV1
 1376      FF
 1377 0bf9 F30F7F45 		movdqu	%xmm0, -32(%rbp)
 1377      E0
 606:/home/rodarmer/sra_sdk-2.3.1/libs/krypto/cipher-vec.c ****         cv = CipherVecIn (pin);
 1378              		.loc 1 606 0
 1379 0bfe 488B45F0 		movq	-16(%rbp), %rax
 1380 0c02 4889C7   		movq	%rax, %rdi
 1381 0c05 E8F6F3FF 		call	CipherVecIn
 1381      FF
 1382 0c0a F30F7F45 		movdqu	%xmm0, -48(%rbp)
 1382      D0
 607:/home/rodarmer/sra_sdk-2.3.1/libs/krypto/cipher-vec.c ****         cv ^= ivec;
 1383              		.loc 1 607 0
 1384 0c0f F30F6F45 		movdqu	-32(%rbp), %xmm0
 1384      E0
 1385 0c14 F30F6F4D 		movdqu	-48(%rbp), %xmm1
 1385      D0
 1386 0c19 660FEFC1 		pxor	%xmm1, %xmm0
 1387 0c1d F30F7F45 		movdqu	%xmm0, -48(%rbp)
 1387      D0
 608:/home/rodarmer/sra_sdk-2.3.1/libs/krypto/cipher-vec.c ****         CipherVecOut (cv, pout);
 1388              		.loc 1 608 0
 1389 0c22 488B45F8 		movq	-8(%rbp), %rax
 1390 0c26 F30F6F45 		movdqu	-48(%rbp), %xmm0
 1390      D0
GAS LISTING /tmp/ccf9IsGZ.s 			page 41


 1391 0c2b 4889C7   		movq	%rax, %rdi
 1392 0c2e E8ECF3FF 		call	CipherVecOut
 1392      FF
 603:/home/rodarmer/sra_sdk-2.3.1/libs/krypto/cipher-vec.c ****          (pin += self->dad.block_size), (pout += self->dad.block_size))
 1393              		.loc 1 603 0
 1394 0c33 488B45C8 		movq	-56(%rbp), %rax
 1395 0c37 8B4004   		movl	4(%rax), %eax
 1396 0c3a 89C0     		mov	%eax, %eax
 1397 0c3c 480145F0 		addq	%rax, -16(%rbp)
 1398 0c40 488B45C8 		movq	-56(%rbp), %rax
 1399 0c44 8B4004   		movl	4(%rax), %eax
 1400 0c47 89C0     		mov	%eax, %eax
 1401 0c49 480145F8 		addq	%rax, -8(%rbp)
 1402              	.L91:
 602:/home/rodarmer/sra_sdk-2.3.1/libs/krypto/cipher-vec.c ****          block_count --; 
 1403              		.loc 1 602 0
 1404 0c4d 837DB400 		cmpl	$0, -76(%rbp)
 1405 0c51 0F95C0   		setne	%al
 1406 0c54 836DB401 		subl	$1, -76(%rbp)
 601:/home/rodarmer/sra_sdk-2.3.1/libs/krypto/cipher-vec.c ****     for ((pin = in), (pout = out);
 1407              		.loc 1 601 0
 1408 0c58 84C0     		testb	%al, %al
 1409 0c5a 758C     		jne	.L92
 609:/home/rodarmer/sra_sdk-2.3.1/libs/krypto/cipher-vec.c ****     }
 610:/home/rodarmer/sra_sdk-2.3.1/libs/krypto/cipher-vec.c **** 
 611:/home/rodarmer/sra_sdk-2.3.1/libs/krypto/cipher-vec.c ****     *(CipherVec*)self->dad.encrypt_ivec = ivec;
 1410              		.loc 1 611 0
 1411 0c5c 488B45C8 		movq	-56(%rbp), %rax
 1412 0c60 488B4028 		movq	40(%rax), %rax
 1413 0c64 F30F6F45 		movdqu	-32(%rbp), %xmm0
 1413      E0
 1414 0c69 F30F7F00 		movdqu	%xmm0, (%rax)
 612:/home/rodarmer/sra_sdk-2.3.1/libs/krypto/cipher-vec.c **** 
 613:/home/rodarmer/sra_sdk-2.3.1/libs/krypto/cipher-vec.c ****     return 0;
 1415              		.loc 1 613 0
 1416 0c6d B8000000 		movl	$0, %eax
 1416      00
 614:/home/rodarmer/sra_sdk-2.3.1/libs/krypto/cipher-vec.c **** #else
 615:/home/rodarmer/sra_sdk-2.3.1/libs/krypto/cipher-vec.c ****     return RC (rcKrypto, rcCipher, rcEncoding, rcFunction, rcUnsupported);
 616:/home/rodarmer/sra_sdk-2.3.1/libs/krypto/cipher-vec.c **** #endif
 617:/home/rodarmer/sra_sdk-2.3.1/libs/krypto/cipher-vec.c **** }
 1417              		.loc 1 617 0
 1418 0c72 C9       		leave
 1419 0c73 C3       		ret
 1420              		.cfi_endproc
 1421              	.LFE624:
 1422              		.size	KCipherVecAesNiEncryptOfb, .-KCipherVecAesNiEncryptOfb
 1423              		.type	KCipherVecAesNiDecryptOfb, @function
 1424              	KCipherVecAesNiDecryptOfb:
 1425              	.LFB625:
 618:/home/rodarmer/sra_sdk-2.3.1/libs/krypto/cipher-vec.c **** 
 619:/home/rodarmer/sra_sdk-2.3.1/libs/krypto/cipher-vec.c **** 
 620:/home/rodarmer/sra_sdk-2.3.1/libs/krypto/cipher-vec.c **** static
 621:/home/rodarmer/sra_sdk-2.3.1/libs/krypto/cipher-vec.c **** rc_t CMEMBER(DecryptOfb) (CIPHER_IMPL * self, const void * in, void * out, uint32_t block_count)
 622:/home/rodarmer/sra_sdk-2.3.1/libs/krypto/cipher-vec.c **** {
 1426              		.loc 1 622 0
 1427              		.cfi_startproc
GAS LISTING /tmp/ccf9IsGZ.s 			page 42


 1428 0c74 55       		pushq	%rbp
 1429              	.LCFI48:
 1430              		.cfi_def_cfa_offset 16
 1431 0c75 4889E5   		movq	%rsp, %rbp
 1432              		.cfi_offset 6, -16
 1433              	.LCFI49:
 1434              		.cfi_def_cfa_register 6
 1435 0c78 53       		pushq	%rbx
 1436 0c79 4883EC28 		subq	$40, %rsp
 1437 0c7d 48897DE8 		movq	%rdi, -24(%rbp)
 1438 0c81 488975E0 		movq	%rsi, -32(%rbp)
 1439 0c85 488955D8 		movq	%rdx, -40(%rbp)
 1440 0c89 894DD4   		movl	%ecx, -44(%rbp)
 623:/home/rodarmer/sra_sdk-2.3.1/libs/krypto/cipher-vec.c ****     return CMEMBER(EncryptOfb)(self, in, out, block_count);
 1441              		.loc 1 623 0
 1442 0c8c 8B4DD4   		movl	-44(%rbp), %ecx
 1443 0c8f 488B55D8 		movq	-40(%rbp), %rdx
 1444 0c93 488B5DE0 		movq	-32(%rbp), %rbx
 1445              		.cfi_offset 3, -24
 1446 0c97 488B45E8 		movq	-24(%rbp), %rax
 1447 0c9b 4889DE   		movq	%rbx, %rsi
 1448 0c9e 4889C7   		movq	%rax, %rdi
 1449 0ca1 E808FFFF 		call	KCipherVecAesNiEncryptOfb
 1449      FF
 624:/home/rodarmer/sra_sdk-2.3.1/libs/krypto/cipher-vec.c **** }
 1450              		.loc 1 624 0
 1451 0ca6 4883C428 		addq	$40, %rsp
 1452 0caa 5B       		popq	%rbx
 1453 0cab C9       		leave
 1454 0cac C3       		ret
 1455              		.cfi_endproc
 1456              	.LFE625:
 1457              		.size	KCipherVecAesNiDecryptOfb, .-KCipherVecAesNiDecryptOfb
 1458              		.type	KCipherVecAesNiEncryptCtr, @function
 1459              	KCipherVecAesNiEncryptCtr:
 1460              	.LFB626:
 625:/home/rodarmer/sra_sdk-2.3.1/libs/krypto/cipher-vec.c **** 
 626:/home/rodarmer/sra_sdk-2.3.1/libs/krypto/cipher-vec.c **** 
 627:/home/rodarmer/sra_sdk-2.3.1/libs/krypto/cipher-vec.c **** /* Counter
 628:/home/rodarmer/sra_sdk-2.3.1/libs/krypto/cipher-vec.c ****  * IV is a nonce and not re-used as FB
 629:/home/rodarmer/sra_sdk-2.3.1/libs/krypto/cipher-vec.c ****  * CT = PT ^ ENC (N, EK)
 630:/home/rodarmer/sra_sdk-2.3.1/libs/krypto/cipher-vec.c ****  * PT = CT ^ ENC (N, DK) 
 631:/home/rodarmer/sra_sdk-2.3.1/libs/krypto/cipher-vec.c ****  * Note decrypt is encrypt.
 632:/home/rodarmer/sra_sdk-2.3.1/libs/krypto/cipher-vec.c ****  * nonce is a function that given an iv generates the next iv
 633:/home/rodarmer/sra_sdk-2.3.1/libs/krypto/cipher-vec.c ****  */
 634:/home/rodarmer/sra_sdk-2.3.1/libs/krypto/cipher-vec.c **** static
 635:/home/rodarmer/sra_sdk-2.3.1/libs/krypto/cipher-vec.c **** rc_t CMEMBER(EncryptCtr) (CIPHER_IMPL * self, const void * in, void * out, uint32_t block_count)
 636:/home/rodarmer/sra_sdk-2.3.1/libs/krypto/cipher-vec.c **** {
 1461              		.loc 1 636 0
 1462              		.cfi_startproc
 1463 0cad 55       		pushq	%rbp
 1464              	.LCFI50:
 1465              		.cfi_def_cfa_offset 16
 1466 0cae 4889E5   		movq	%rsp, %rbp
 1467              		.cfi_offset 6, -16
 1468              	.LCFI51:
 1469              		.cfi_def_cfa_register 6
GAS LISTING /tmp/ccf9IsGZ.s 			page 43


 1470 0cb1 4883EC20 		subq	$32, %rsp
 1471 0cb5 48897DF8 		movq	%rdi, -8(%rbp)
 1472 0cb9 488975F0 		movq	%rsi, -16(%rbp)
 1473 0cbd 488955E8 		movq	%rdx, -24(%rbp)
 1474 0cc1 894DE4   		movl	%ecx, -28(%rbp)
 637:/home/rodarmer/sra_sdk-2.3.1/libs/krypto/cipher-vec.c ****     return RC (rcKrypto, rcCipher, rcEncoding, rcFunction, rcUnsupported);
 1475              		.loc 1 637 0
 1476 0cc4 B97D0200 		movl	$637, %ecx
 1476      00
 1477 0cc9 488D1500 		leaq	__func__.7678(%rip), %rdx
 1477      000000
 1478 0cd0 488D3500 		leaq	.LC0(%rip), %rsi
 1478      000000
 1479 0cd7 BF030509 		movl	$-2029452029, %edi
 1479      87
 1480 0cdc E8000000 		call	SetRCFileFuncLine@PLT
 1480      00
 638:/home/rodarmer/sra_sdk-2.3.1/libs/krypto/cipher-vec.c **** }
 1481              		.loc 1 638 0
 1482 0ce1 C9       		leave
 1483 0ce2 C3       		ret
 1484              		.cfi_endproc
 1485              	.LFE626:
 1486              		.size	KCipherVecAesNiEncryptCtr, .-KCipherVecAesNiEncryptCtr
 1487              		.type	KCipherVecAesNiDecryptCtr, @function
 1488              	KCipherVecAesNiDecryptCtr:
 1489              	.LFB627:
 639:/home/rodarmer/sra_sdk-2.3.1/libs/krypto/cipher-vec.c **** 
 640:/home/rodarmer/sra_sdk-2.3.1/libs/krypto/cipher-vec.c **** 
 641:/home/rodarmer/sra_sdk-2.3.1/libs/krypto/cipher-vec.c **** static
 642:/home/rodarmer/sra_sdk-2.3.1/libs/krypto/cipher-vec.c **** rc_t CMEMBER(DecryptCtr) (CIPHER_IMPL * self, const void * in, void * out, uint32_t block_count)
 643:/home/rodarmer/sra_sdk-2.3.1/libs/krypto/cipher-vec.c **** {
 1490              		.loc 1 643 0
 1491              		.cfi_startproc
 1492 0ce3 55       		pushq	%rbp
 1493              	.LCFI52:
 1494              		.cfi_def_cfa_offset 16
 1495 0ce4 4889E5   		movq	%rsp, %rbp
 1496              		.cfi_offset 6, -16
 1497              	.LCFI53:
 1498              		.cfi_def_cfa_register 6
 1499 0ce7 4883EC20 		subq	$32, %rsp
 1500 0ceb 48897DF8 		movq	%rdi, -8(%rbp)
 1501 0cef 488975F0 		movq	%rsi, -16(%rbp)
 1502 0cf3 488955E8 		movq	%rdx, -24(%rbp)
 1503 0cf7 894DE4   		movl	%ecx, -28(%rbp)
 644:/home/rodarmer/sra_sdk-2.3.1/libs/krypto/cipher-vec.c ****     return RC (rcKrypto, rcCipher, rcEncoding, rcFunction, rcUnsupported);
 1504              		.loc 1 644 0
 1505 0cfa B9840200 		movl	$644, %ecx
 1505      00
 1506 0cff 488D1500 		leaq	__func__.7688(%rip), %rdx
 1506      000000
 1507 0d06 488D3500 		leaq	.LC0(%rip), %rsi
 1507      000000
 1508 0d0d BF030509 		movl	$-2029452029, %edi
 1508      87
 1509 0d12 E8000000 		call	SetRCFileFuncLine@PLT
GAS LISTING /tmp/ccf9IsGZ.s 			page 44


 1509      00
 645:/home/rodarmer/sra_sdk-2.3.1/libs/krypto/cipher-vec.c **** }
 1510              		.loc 1 645 0
 1511 0d17 C9       		leave
 1512 0d18 C3       		ret
 1513              		.cfi_endproc
 1514              	.LFE627:
 1515              		.size	KCipherVecAesNiDecryptCtr, .-KCipherVecAesNiDecryptCtr
 1516              		.section	.data.rel.local,"aw",@progbits
 1517              		.align 32
 1518              		.type	KCipherVecAesNi_vt_v1, @object
 1519              		.size	KCipherVecAesNi_vt_v1, 176
 1520              	KCipherVecAesNi_vt_v1:
 1521 0000 01000000 		.long	1
 1522 0004 00000000 		.long	0
 1523 0008 00000000 		.quad	KCipherVecAesNiDestroy
 1523      00000000 
 1524 0010 00000000 		.quad	KCipherVecAesNiSetEncryptKey
 1524      00000000 
 1525 0018 00000000 		.quad	KCipherVecAesNiSetDecryptKey
 1525      00000000 
 1526 0020 00000000 		.quad	KCipherVecAesNiSetEncryptIvec
 1526      00000000 
 1527 0028 00000000 		.quad	KCipherVecAesNiSetDecryptIvec
 1527      00000000 
 1528 0030 00000000 		.quad	KCipherVecAesNiSetEncryptCounterFunc
 1528      00000000 
 1529 0038 00000000 		.quad	KCipherVecAesNiSetDecryptCounterFunc
 1529      00000000 
 1530 0040 00000000 		.quad	KCipherVecAesNiEncrypt
 1530      00000000 
 1531 0048 00000000 		.quad	KCipherVecAesNiDecrypt
 1531      00000000 
 1532 0050 00000000 		.quad	KCipherVecAesNiEncryptEcb
 1532      00000000 
 1533 0058 00000000 		.quad	KCipherVecAesNiDecryptEcb
 1533      00000000 
 1534 0060 00000000 		.quad	KCipherVecAesNiEncryptCbc
 1534      00000000 
 1535 0068 00000000 		.quad	KCipherVecAesNiDecryptCbc
 1535      00000000 
 1536 0070 00000000 		.quad	KCipherVecAesNiEncryptPcbc
 1536      00000000 
 1537 0078 00000000 		.quad	KCipherVecAesNiDecryptPcbc
 1537      00000000 
 1538 0080 00000000 		.quad	KCipherVecAesNiEncryptCfb
 1538      00000000 
 1539 0088 00000000 		.quad	KCipherVecAesNiDecryptCfb
 1539      00000000 
 1540 0090 00000000 		.quad	KCipherVecAesNiEncryptOfb
 1540      00000000 
 1541 0098 00000000 		.quad	KCipherVecAesNiDecryptOfb
 1541      00000000 
 1542 00a0 00000000 		.quad	KCipherVecAesNiEncryptCtr
 1542      00000000 
 1543 00a8 00000000 		.quad	KCipherVecAesNiDecryptCtr
 1543      00000000 
GAS LISTING /tmp/ccf9IsGZ.s 			page 45


 1544              		.text
 1545              		.type	KCipherVecAesNiAllocAes, @function
 1546              	KCipherVecAesNiAllocAes:
 1547              	.LFB628:
 646:/home/rodarmer/sra_sdk-2.3.1/libs/krypto/cipher-vec.c **** 
 647:/home/rodarmer/sra_sdk-2.3.1/libs/krypto/cipher-vec.c **** static
 648:/home/rodarmer/sra_sdk-2.3.1/libs/krypto/cipher-vec.c **** struct KCipher_vt_v1 CMEMBER(_vt_v1) =
 649:/home/rodarmer/sra_sdk-2.3.1/libs/krypto/cipher-vec.c **** {
 650:/home/rodarmer/sra_sdk-2.3.1/libs/krypto/cipher-vec.c ****     { 1, 0 },
 651:/home/rodarmer/sra_sdk-2.3.1/libs/krypto/cipher-vec.c **** 
 652:/home/rodarmer/sra_sdk-2.3.1/libs/krypto/cipher-vec.c ****     CMEMBER(Destroy),
 653:/home/rodarmer/sra_sdk-2.3.1/libs/krypto/cipher-vec.c ****     CMEMBER(SetEncryptKey),
 654:/home/rodarmer/sra_sdk-2.3.1/libs/krypto/cipher-vec.c ****     CMEMBER(SetDecryptKey),
 655:/home/rodarmer/sra_sdk-2.3.1/libs/krypto/cipher-vec.c ****     CMEMBER(SetEncryptIvec),
 656:/home/rodarmer/sra_sdk-2.3.1/libs/krypto/cipher-vec.c ****     CMEMBER(SetDecryptIvec),
 657:/home/rodarmer/sra_sdk-2.3.1/libs/krypto/cipher-vec.c ****     CMEMBER(SetEncryptCounterFunc),
 658:/home/rodarmer/sra_sdk-2.3.1/libs/krypto/cipher-vec.c ****     CMEMBER(SetDecryptCounterFunc),
 659:/home/rodarmer/sra_sdk-2.3.1/libs/krypto/cipher-vec.c ****     CMEMBER(Encrypt),
 660:/home/rodarmer/sra_sdk-2.3.1/libs/krypto/cipher-vec.c ****     CMEMBER(Decrypt),
 661:/home/rodarmer/sra_sdk-2.3.1/libs/krypto/cipher-vec.c ****     CMEMBER(EncryptEcb),
 662:/home/rodarmer/sra_sdk-2.3.1/libs/krypto/cipher-vec.c ****     CMEMBER(DecryptEcb),
 663:/home/rodarmer/sra_sdk-2.3.1/libs/krypto/cipher-vec.c ****     CMEMBER(EncryptCbc),
 664:/home/rodarmer/sra_sdk-2.3.1/libs/krypto/cipher-vec.c ****     CMEMBER(DecryptCbc),
 665:/home/rodarmer/sra_sdk-2.3.1/libs/krypto/cipher-vec.c ****     CMEMBER(EncryptPcbc),
 666:/home/rodarmer/sra_sdk-2.3.1/libs/krypto/cipher-vec.c ****     CMEMBER(DecryptPcbc),
 667:/home/rodarmer/sra_sdk-2.3.1/libs/krypto/cipher-vec.c ****     CMEMBER(EncryptCfb),
 668:/home/rodarmer/sra_sdk-2.3.1/libs/krypto/cipher-vec.c ****     CMEMBER(DecryptCfb),
 669:/home/rodarmer/sra_sdk-2.3.1/libs/krypto/cipher-vec.c ****     CMEMBER(EncryptOfb),
 670:/home/rodarmer/sra_sdk-2.3.1/libs/krypto/cipher-vec.c ****     CMEMBER(DecryptOfb),
 671:/home/rodarmer/sra_sdk-2.3.1/libs/krypto/cipher-vec.c ****     CMEMBER(EncryptCtr),
 672:/home/rodarmer/sra_sdk-2.3.1/libs/krypto/cipher-vec.c ****     CMEMBER(DecryptCtr)
 673:/home/rodarmer/sra_sdk-2.3.1/libs/krypto/cipher-vec.c **** };
 674:/home/rodarmer/sra_sdk-2.3.1/libs/krypto/cipher-vec.c **** 
 675:/home/rodarmer/sra_sdk-2.3.1/libs/krypto/cipher-vec.c **** 
 676:/home/rodarmer/sra_sdk-2.3.1/libs/krypto/cipher-vec.c **** static __inline__
 677:/home/rodarmer/sra_sdk-2.3.1/libs/krypto/cipher-vec.c **** rc_t CMEMBER(AllocAes)(CIPHER_IMPL ** pobj,
 678:/home/rodarmer/sra_sdk-2.3.1/libs/krypto/cipher-vec.c ****                        const KBlockCipher * block_cipher)
 679:/home/rodarmer/sra_sdk-2.3.1/libs/krypto/cipher-vec.c **** {
 1548              		.loc 1 679 0
 1549              		.cfi_startproc
 1550 0d19 55       		pushq	%rbp
 1551              	.LCFI54:
 1552              		.cfi_def_cfa_offset 16
 1553 0d1a 4889E5   		movq	%rsp, %rbp
 1554              		.cfi_offset 6, -16
 1555              	.LCFI55:
 1556              		.cfi_def_cfa_register 6
 1557 0d1d 4883EC20 		subq	$32, %rsp
 1558 0d21 48897DE8 		movq	%rdi, -24(%rbp)
 1559 0d25 488975E0 		movq	%rsi, -32(%rbp)
 680:/home/rodarmer/sra_sdk-2.3.1/libs/krypto/cipher-vec.c ****     CipherAes * obj;
 681:/home/rodarmer/sra_sdk-2.3.1/libs/krypto/cipher-vec.c **** 
 682:/home/rodarmer/sra_sdk-2.3.1/libs/krypto/cipher-vec.c ****     obj = calloc (1, sizeof (*obj));
 1560              		.loc 1 682 0
 1561 0d29 BE700200 		movl	$624, %esi
 1561      00
 1562 0d2e BF010000 		movl	$1, %edi
GAS LISTING /tmp/ccf9IsGZ.s 			page 46


 1562      00
 1563 0d33 E8000000 		call	calloc@PLT
 1563      00
 1564 0d38 488945F8 		movq	%rax, -8(%rbp)
 683:/home/rodarmer/sra_sdk-2.3.1/libs/krypto/cipher-vec.c ****     *pobj = (CIPHER_IMPL*)obj;
 1565              		.loc 1 683 0
 1566 0d3c 488B55F8 		movq	-8(%rbp), %rdx
 1567 0d40 488B45E8 		movq	-24(%rbp), %rax
 1568 0d44 488910   		movq	%rdx, (%rax)
 684:/home/rodarmer/sra_sdk-2.3.1/libs/krypto/cipher-vec.c **** 
 685:/home/rodarmer/sra_sdk-2.3.1/libs/krypto/cipher-vec.c ****     return (obj ? 0 : RC (rcKrypto, rcCipher, rcConstructing, rcMemory, rcExhausted));
 1569              		.loc 1 685 0
 1570 0d47 48837DF8 		cmpq	$0, -8(%rbp)
 1570      00
 1571 0d4c 751F     		jne	.L101
 1572 0d4e B9AD0200 		movl	$685, %ecx
 1572      00
 1573 0d53 488D1500 		leaq	__func__.7698(%rip), %rdx
 1573      000000
 1574 0d5a 488D3500 		leaq	.LC0(%rip), %rsi
 1574      000000
 1575 0d61 BF539000 		movl	$-2030006189, %edi
 1575      87
 1576 0d66 E8000000 		call	SetRCFileFuncLine@PLT
 1576      00
 1577 0d6b EB05     		jmp	.L102
 1578              	.L101:
 1579 0d6d B8000000 		movl	$0, %eax
 1579      00
 1580              	.L102:
 686:/home/rodarmer/sra_sdk-2.3.1/libs/krypto/cipher-vec.c **** }
 1581              		.loc 1 686 0
 1582 0d72 C9       		leave
 1583 0d73 C3       		ret
 1584              		.cfi_endproc
 1585              	.LFE628:
 1586              		.size	KCipherVecAesNiAllocAes, .-KCipherVecAesNiAllocAes
 1587              		.type	KCipherVecAesNiInitAes, @function
 1588              	KCipherVecAesNiInitAes:
 1589              	.LFB629:
 687:/home/rodarmer/sra_sdk-2.3.1/libs/krypto/cipher-vec.c **** 
 688:/home/rodarmer/sra_sdk-2.3.1/libs/krypto/cipher-vec.c **** 
 689:/home/rodarmer/sra_sdk-2.3.1/libs/krypto/cipher-vec.c **** static __inline__
 690:/home/rodarmer/sra_sdk-2.3.1/libs/krypto/cipher-vec.c **** rc_t CMEMBER(InitAes) (CIPHER_IMPL * self,
 691:/home/rodarmer/sra_sdk-2.3.1/libs/krypto/cipher-vec.c ****                       const KBlockCipher * block_cipher)
 692:/home/rodarmer/sra_sdk-2.3.1/libs/krypto/cipher-vec.c **** {
 1590              		.loc 1 692 0
 1591              		.cfi_startproc
 1592 0d74 55       		pushq	%rbp
 1593              	.LCFI56:
 1594              		.cfi_def_cfa_offset 16
 1595 0d75 4889E5   		movq	%rsp, %rbp
 1596              		.cfi_offset 6, -16
 1597              	.LCFI57:
 1598              		.cfi_def_cfa_register 6
 1599 0d78 4883EC20 		subq	$32, %rsp
 1600 0d7c 48897DE8 		movq	%rdi, -24(%rbp)
GAS LISTING /tmp/ccf9IsGZ.s 			page 47


 1601 0d80 488975E0 		movq	%rsi, -32(%rbp)
 693:/home/rodarmer/sra_sdk-2.3.1/libs/krypto/cipher-vec.c ****     KCipher * dad = &self->dad;
 1602              		.loc 1 693 0
 1603 0d84 488B45E8 		movq	-24(%rbp), %rax
 1604 0d88 488945F0 		movq	%rax, -16(%rbp)
 694:/home/rodarmer/sra_sdk-2.3.1/libs/krypto/cipher-vec.c ****     CipherAes * aes = (struct CipherAes*)self;
 1605              		.loc 1 694 0
 1606 0d8c 488B45E8 		movq	-24(%rbp), %rax
 1607 0d90 488945F8 		movq	%rax, -8(%rbp)
 695:/home/rodarmer/sra_sdk-2.3.1/libs/krypto/cipher-vec.c **** 
 696:/home/rodarmer/sra_sdk-2.3.1/libs/krypto/cipher-vec.c ****     KCipherInit (dad, sizeof (CipherVec),
 1608              		.loc 1 696 0
 1609 0d94 488B45F0 		movq	-16(%rbp), %rax
 1610 0d98 488B1500 		movq	KCipherVecAesNiClassName@GOTPCREL(%rip), %rdx
 1610      000000
 1611 0d9f 4889D1   		movq	%rdx, %rcx
 1612 0da2 488D1500 		leaq	KCipherVecAesNi_vt_v1(%rip), %rdx
 1612      000000
 1613 0da9 BE100000 		movl	$16, %esi
 1613      00
 1614 0dae 4889C7   		movq	%rax, %rdi
 1615 0db1 E8000000 		call	KCipherInit@PLT
 1615      00
 697:/home/rodarmer/sra_sdk-2.3.1/libs/krypto/cipher-vec.c ****                  (const KCipher_vt*)&CMEMBER(_vt_v1),
 698:/home/rodarmer/sra_sdk-2.3.1/libs/krypto/cipher-vec.c ****                  CMEMBER(ClassName));
 699:/home/rodarmer/sra_sdk-2.3.1/libs/krypto/cipher-vec.c **** 
 700:/home/rodarmer/sra_sdk-2.3.1/libs/krypto/cipher-vec.c ****     dad->encrypt_key = &aes->e_key;
 1616              		.loc 1 700 0
 1617 0db6 488B45F8 		movq	-8(%rbp), %rax
 1618 0dba 488D5050 		leaq	80(%rax), %rdx
 1619 0dbe 488B45F0 		movq	-16(%rbp), %rax
 1620 0dc2 48895018 		movq	%rdx, 24(%rax)
 701:/home/rodarmer/sra_sdk-2.3.1/libs/krypto/cipher-vec.c ****     dad->decrypt_key = &aes->d_key;
 1621              		.loc 1 701 0
 1622 0dc6 488B45F8 		movq	-8(%rbp), %rax
 1623 0dca 488D9050 		leaq	336(%rax), %rdx
 1623      010000
 1624 0dd1 488B45F0 		movq	-16(%rbp), %rax
 1625 0dd5 48895020 		movq	%rdx, 32(%rax)
 702:/home/rodarmer/sra_sdk-2.3.1/libs/krypto/cipher-vec.c ****     dad->encrypt_ivec = &aes->e_ivec;
 1626              		.loc 1 702 0
 1627 0dd9 488B45F8 		movq	-8(%rbp), %rax
 1628 0ddd 488D9050 		leaq	592(%rax), %rdx
 1628      020000
 1629 0de4 488B45F0 		movq	-16(%rbp), %rax
 1630 0de8 48895028 		movq	%rdx, 40(%rax)
 703:/home/rodarmer/sra_sdk-2.3.1/libs/krypto/cipher-vec.c ****     dad->decrypt_ivec = &aes->d_ivec;
 1631              		.loc 1 703 0
 1632 0dec 488B45F8 		movq	-8(%rbp), %rax
 1633 0df0 488D9060 		leaq	608(%rax), %rdx
 1633      020000
 1634 0df7 488B45F0 		movq	-16(%rbp), %rax
 1635 0dfb 48895030 		movq	%rdx, 48(%rax)
 704:/home/rodarmer/sra_sdk-2.3.1/libs/krypto/cipher-vec.c **** 
 705:/home/rodarmer/sra_sdk-2.3.1/libs/krypto/cipher-vec.c ****     self->block_cipher = &block_cipher->vec;
 1636              		.loc 1 705 0
 1637 0dff 488B55E0 		movq	-32(%rbp), %rdx
GAS LISTING /tmp/ccf9IsGZ.s 			page 48


 1638 0e03 488B45E8 		movq	-24(%rbp), %rax
 1639 0e07 48895048 		movq	%rdx, 72(%rax)
 706:/home/rodarmer/sra_sdk-2.3.1/libs/krypto/cipher-vec.c **** 
 707:/home/rodarmer/sra_sdk-2.3.1/libs/krypto/cipher-vec.c ****     return 0;
 1640              		.loc 1 707 0
 1641 0e0b B8000000 		movl	$0, %eax
 1641      00
 708:/home/rodarmer/sra_sdk-2.3.1/libs/krypto/cipher-vec.c **** }
 1642              		.loc 1 708 0
 1643 0e10 C9       		leave
 1644 0e11 C3       		ret
 1645              		.cfi_endproc
 1646              	.LFE629:
 1647              		.size	KCipherVecAesNiInitAes, .-KCipherVecAesNiInitAes
 1648              		.type	KCipherVecAesNiAllocNull, @function
 1649              	KCipherVecAesNiAllocNull:
 1650              	.LFB630:
 709:/home/rodarmer/sra_sdk-2.3.1/libs/krypto/cipher-vec.c **** 
 710:/home/rodarmer/sra_sdk-2.3.1/libs/krypto/cipher-vec.c **** 
 711:/home/rodarmer/sra_sdk-2.3.1/libs/krypto/cipher-vec.c **** static __inline__
 712:/home/rodarmer/sra_sdk-2.3.1/libs/krypto/cipher-vec.c **** rc_t CMEMBER(AllocNull)(CIPHER_IMPL ** pobj,
 713:/home/rodarmer/sra_sdk-2.3.1/libs/krypto/cipher-vec.c ****                         const KBlockCipher * block_cipher)
 714:/home/rodarmer/sra_sdk-2.3.1/libs/krypto/cipher-vec.c **** {
 1651              		.loc 1 714 0
 1652              		.cfi_startproc
 1653 0e12 55       		pushq	%rbp
 1654              	.LCFI58:
 1655              		.cfi_def_cfa_offset 16
 1656 0e13 4889E5   		movq	%rsp, %rbp
 1657              		.cfi_offset 6, -16
 1658              	.LCFI59:
 1659              		.cfi_def_cfa_register 6
 1660 0e16 4883EC20 		subq	$32, %rsp
 1661 0e1a 48897DE8 		movq	%rdi, -24(%rbp)
 1662 0e1e 488975E0 		movq	%rsi, -32(%rbp)
 715:/home/rodarmer/sra_sdk-2.3.1/libs/krypto/cipher-vec.c ****     CipherNull * obj;
 716:/home/rodarmer/sra_sdk-2.3.1/libs/krypto/cipher-vec.c **** 
 717:/home/rodarmer/sra_sdk-2.3.1/libs/krypto/cipher-vec.c ****     obj = calloc (1, sizeof (*obj));
 1663              		.loc 1 717 0
 1664 0e22 BE700000 		movl	$112, %esi
 1664      00
 1665 0e27 BF010000 		movl	$1, %edi
 1665      00
 1666 0e2c E8000000 		call	calloc@PLT
 1666      00
 1667 0e31 488945F8 		movq	%rax, -8(%rbp)
 718:/home/rodarmer/sra_sdk-2.3.1/libs/krypto/cipher-vec.c ****     *pobj = (CIPHER_IMPL*)obj;
 1668              		.loc 1 718 0
 1669 0e35 488B55F8 		movq	-8(%rbp), %rdx
 1670 0e39 488B45E8 		movq	-24(%rbp), %rax
 1671 0e3d 488910   		movq	%rdx, (%rax)
 719:/home/rodarmer/sra_sdk-2.3.1/libs/krypto/cipher-vec.c **** 
 720:/home/rodarmer/sra_sdk-2.3.1/libs/krypto/cipher-vec.c ****     return (obj ? 0 : RC (rcKrypto, rcCipher, rcConstructing, rcMemory, rcExhausted));
 1672              		.loc 1 720 0
 1673 0e40 48837DF8 		cmpq	$0, -8(%rbp)
 1673      00
 1674 0e45 751F     		jne	.L107
GAS LISTING /tmp/ccf9IsGZ.s 			page 49


 1675 0e47 B9D00200 		movl	$720, %ecx
 1675      00
 1676 0e4c 488D1500 		leaq	__func__.7725(%rip), %rdx
 1676      000000
 1677 0e53 488D3500 		leaq	.LC0(%rip), %rsi
 1677      000000
 1678 0e5a BF539000 		movl	$-2030006189, %edi
 1678      87
 1679 0e5f E8000000 		call	SetRCFileFuncLine@PLT
 1679      00
 1680 0e64 EB05     		jmp	.L108
 1681              	.L107:
 1682 0e66 B8000000 		movl	$0, %eax
 1682      00
 1683              	.L108:
 721:/home/rodarmer/sra_sdk-2.3.1/libs/krypto/cipher-vec.c **** }
 1684              		.loc 1 721 0
 1685 0e6b C9       		leave
 1686 0e6c C3       		ret
 1687              		.cfi_endproc
 1688              	.LFE630:
 1689              		.size	KCipherVecAesNiAllocNull, .-KCipherVecAesNiAllocNull
 1690              		.type	KCipherVecAesNiInitNull, @function
 1691              	KCipherVecAesNiInitNull:
 1692              	.LFB631:
 722:/home/rodarmer/sra_sdk-2.3.1/libs/krypto/cipher-vec.c **** 
 723:/home/rodarmer/sra_sdk-2.3.1/libs/krypto/cipher-vec.c **** 
 724:/home/rodarmer/sra_sdk-2.3.1/libs/krypto/cipher-vec.c **** static __inline__
 725:/home/rodarmer/sra_sdk-2.3.1/libs/krypto/cipher-vec.c **** rc_t CMEMBER(InitNull) (CIPHER_IMPL * self,
 726:/home/rodarmer/sra_sdk-2.3.1/libs/krypto/cipher-vec.c ****                         const KBlockCipher * block_cipher)
 727:/home/rodarmer/sra_sdk-2.3.1/libs/krypto/cipher-vec.c **** {
 1693              		.loc 1 727 0
 1694              		.cfi_startproc
 1695 0e6d 55       		pushq	%rbp
 1696              	.LCFI60:
 1697              		.cfi_def_cfa_offset 16
 1698 0e6e 4889E5   		movq	%rsp, %rbp
 1699              		.cfi_offset 6, -16
 1700              	.LCFI61:
 1701              		.cfi_def_cfa_register 6
 1702 0e71 4883EC20 		subq	$32, %rsp
 1703 0e75 48897DE8 		movq	%rdi, -24(%rbp)
 1704 0e79 488975E0 		movq	%rsi, -32(%rbp)
 728:/home/rodarmer/sra_sdk-2.3.1/libs/krypto/cipher-vec.c ****     KCipher * dad = &self->dad;
 1705              		.loc 1 728 0
 1706 0e7d 488B45E8 		movq	-24(%rbp), %rax
 1707 0e81 488945F0 		movq	%rax, -16(%rbp)
 729:/home/rodarmer/sra_sdk-2.3.1/libs/krypto/cipher-vec.c ****     CipherNull * null = (CipherNull*)self;
 1708              		.loc 1 729 0
 1709 0e85 488B45E8 		movq	-24(%rbp), %rax
 1710 0e89 488945F8 		movq	%rax, -8(%rbp)
 730:/home/rodarmer/sra_sdk-2.3.1/libs/krypto/cipher-vec.c **** 
 731:/home/rodarmer/sra_sdk-2.3.1/libs/krypto/cipher-vec.c ****     KCipherInit (dad, sizeof (CipherVec),
 1711              		.loc 1 731 0
 1712 0e8d 488B45F0 		movq	-16(%rbp), %rax
 1713 0e91 488B1500 		movq	KCipherVecAesNiClassName@GOTPCREL(%rip), %rdx
 1713      000000
GAS LISTING /tmp/ccf9IsGZ.s 			page 50


 1714 0e98 4889D1   		movq	%rdx, %rcx
 1715 0e9b 488D1500 		leaq	KCipherVecAesNi_vt_v1(%rip), %rdx
 1715      000000
 1716 0ea2 BE100000 		movl	$16, %esi
 1716      00
 1717 0ea7 4889C7   		movq	%rax, %rdi
 1718 0eaa E8000000 		call	KCipherInit@PLT
 1718      00
 732:/home/rodarmer/sra_sdk-2.3.1/libs/krypto/cipher-vec.c ****                  (const KCipher_vt*)&CMEMBER(_vt_v1),
 733:/home/rodarmer/sra_sdk-2.3.1/libs/krypto/cipher-vec.c ****                  CMEMBER(ClassName));
 734:/home/rodarmer/sra_sdk-2.3.1/libs/krypto/cipher-vec.c **** 
 735:/home/rodarmer/sra_sdk-2.3.1/libs/krypto/cipher-vec.c ****     dad->encrypt_key = &null->e_ivec;
 1719              		.loc 1 735 0
 1720 0eaf 488B45F8 		movq	-8(%rbp), %rax
 1721 0eb3 488D5050 		leaq	80(%rax), %rdx
 1722 0eb7 488B45F0 		movq	-16(%rbp), %rax
 1723 0ebb 48895018 		movq	%rdx, 24(%rax)
 736:/home/rodarmer/sra_sdk-2.3.1/libs/krypto/cipher-vec.c ****     dad->decrypt_key = &null->d_ivec;
 1724              		.loc 1 736 0
 1725 0ebf 488B45F8 		movq	-8(%rbp), %rax
 1726 0ec3 488D5060 		leaq	96(%rax), %rdx
 1727 0ec7 488B45F0 		movq	-16(%rbp), %rax
 1728 0ecb 48895020 		movq	%rdx, 32(%rax)
 737:/home/rodarmer/sra_sdk-2.3.1/libs/krypto/cipher-vec.c ****     dad->encrypt_ivec = &null->e_ivec;
 1729              		.loc 1 737 0
 1730 0ecf 488B45F8 		movq	-8(%rbp), %rax
 1731 0ed3 488D5050 		leaq	80(%rax), %rdx
 1732 0ed7 488B45F0 		movq	-16(%rbp), %rax
 1733 0edb 48895028 		movq	%rdx, 40(%rax)
 738:/home/rodarmer/sra_sdk-2.3.1/libs/krypto/cipher-vec.c ****     dad->decrypt_ivec = &null->d_ivec;
 1734              		.loc 1 738 0
 1735 0edf 488B45F8 		movq	-8(%rbp), %rax
 1736 0ee3 488D5060 		leaq	96(%rax), %rdx
 1737 0ee7 488B45F0 		movq	-16(%rbp), %rax
 1738 0eeb 48895030 		movq	%rdx, 48(%rax)
 739:/home/rodarmer/sra_sdk-2.3.1/libs/krypto/cipher-vec.c **** 
 740:/home/rodarmer/sra_sdk-2.3.1/libs/krypto/cipher-vec.c ****     self->block_cipher = &block_cipher->vec;
 1739              		.loc 1 740 0
 1740 0eef 488B55E0 		movq	-32(%rbp), %rdx
 1741 0ef3 488B45E8 		movq	-24(%rbp), %rax
 1742 0ef7 48895048 		movq	%rdx, 72(%rax)
 741:/home/rodarmer/sra_sdk-2.3.1/libs/krypto/cipher-vec.c **** 
 742:/home/rodarmer/sra_sdk-2.3.1/libs/krypto/cipher-vec.c ****     return 0;
 1743              		.loc 1 742 0
 1744 0efb B8000000 		movl	$0, %eax
 1744      00
 743:/home/rodarmer/sra_sdk-2.3.1/libs/krypto/cipher-vec.c **** }
 1745              		.loc 1 743 0
 1746 0f00 C9       		leave
 1747 0f01 C3       		ret
 1748              		.cfi_endproc
 1749              	.LFE631:
 1750              		.size	KCipherVecAesNiInitNull, .-KCipherVecAesNiInitNull
 1751              	.globl KCipherVecAesNiMake
 1752              		.type	KCipherVecAesNiMake, @function
 1753              	KCipherVecAesNiMake:
 1754              	.LFB632:
GAS LISTING /tmp/ccf9IsGZ.s 			page 51


 744:/home/rodarmer/sra_sdk-2.3.1/libs/krypto/cipher-vec.c **** 
 745:/home/rodarmer/sra_sdk-2.3.1/libs/krypto/cipher-vec.c **** 
 746:/home/rodarmer/sra_sdk-2.3.1/libs/krypto/cipher-vec.c **** rc_t CMEMBER(Make) (KCipher ** new_obj, kcipher_type type)
 747:/home/rodarmer/sra_sdk-2.3.1/libs/krypto/cipher-vec.c **** {
 1755              		.loc 1 747 0
 1756              		.cfi_startproc
 1757 0f02 55       		pushq	%rbp
 1758              	.LCFI62:
 1759              		.cfi_def_cfa_offset 16
 1760 0f03 4889E5   		movq	%rsp, %rbp
 1761              		.cfi_offset 6, -16
 1762              	.LCFI63:
 1763              		.cfi_def_cfa_register 6
 1764 0f06 4883EC30 		subq	$48, %rsp
 1765 0f0a 48897DD8 		movq	%rdi, -40(%rbp)
 1766 0f0e 8975D4   		movl	%esi, -44(%rbp)
 748:/home/rodarmer/sra_sdk-2.3.1/libs/krypto/cipher-vec.c ****     rc_t rc;
 749:/home/rodarmer/sra_sdk-2.3.1/libs/krypto/cipher-vec.c ****     KBlockCipher * block_cipher;
 750:/home/rodarmer/sra_sdk-2.3.1/libs/krypto/cipher-vec.c **** 
 751:/home/rodarmer/sra_sdk-2.3.1/libs/krypto/cipher-vec.c ****     if (new_obj == NULL)
 1767              		.loc 1 751 0
 1768 0f11 48837DD8 		cmpq	$0, -40(%rbp)
 1768      00
 1769 0f16 7522     		jne	.L113
 752:/home/rodarmer/sra_sdk-2.3.1/libs/krypto/cipher-vec.c ****         return RC (rcKrypto, rcCipher, rcConstructing, rcSelf, rcNull);
 1770              		.loc 1 752 0
 1771 0f18 B9F00200 		movl	$752, %ecx
 1771      00
 1772 0f1d 488D1500 		leaq	__func__.7753(%rip), %rdx
 1772      000000
 1773 0f24 488D3500 		leaq	.LC0(%rip), %rsi
 1773      000000
 1774 0f2b BF878F00 		movl	$-2030006393, %edi
 1774      87
 1775 0f30 E8000000 		call	SetRCFileFuncLine@PLT
 1775      00
 1776 0f35 E9280100 		jmp	.L114
 1776      00
 1777              	.L113:
 753:/home/rodarmer/sra_sdk-2.3.1/libs/krypto/cipher-vec.c **** 
 754:/home/rodarmer/sra_sdk-2.3.1/libs/krypto/cipher-vec.c ****     *new_obj = NULL;
 1778              		.loc 1 754 0
 1779 0f3a 488B45D8 		movq	-40(%rbp), %rax
 1780 0f3e 48C70000 		movq	$0, (%rax)
 1780      000000
 755:/home/rodarmer/sra_sdk-2.3.1/libs/krypto/cipher-vec.c **** 
 756:/home/rodarmer/sra_sdk-2.3.1/libs/krypto/cipher-vec.c ****     switch (type)
 1781              		.loc 1 756 0
 1782 0f45 8B45D4   		movl	-44(%rbp), %eax
 1783 0f48 85C0     		testl	%eax, %eax
 1784 0f4a 7427     		je	.L116
 1785 0f4c 83F801   		cmpl	$1, %eax
 1786 0f4f 7433     		je	.L117
 757:/home/rodarmer/sra_sdk-2.3.1/libs/krypto/cipher-vec.c ****     {
 758:/home/rodarmer/sra_sdk-2.3.1/libs/krypto/cipher-vec.c ****     default:
 759:/home/rodarmer/sra_sdk-2.3.1/libs/krypto/cipher-vec.c ****         return RC (rcKrypto, rcCipher, rcConstructing, rcParam, rcInvalid);
 1787              		.loc 1 759 0
GAS LISTING /tmp/ccf9IsGZ.s 			page 52


 1788 0f51 B9F70200 		movl	$759, %ecx
 1788      00
 1789 0f56 488D1500 		leaq	__func__.7753(%rip), %rdx
 1789      000000
 1790 0f5d 488D3500 		leaq	.LC0(%rip), %rsi
 1790      000000
 1791 0f64 BFCA8F00 		movl	$-2030006326, %edi
 1791      87
 1792 0f69 E8000000 		call	SetRCFileFuncLine@PLT
 1792      00
 1793 0f6e E9EF0000 		jmp	.L114
 1793      00
 1794              	.L116:
 760:/home/rodarmer/sra_sdk-2.3.1/libs/krypto/cipher-vec.c **** 
 761:/home/rodarmer/sra_sdk-2.3.1/libs/krypto/cipher-vec.c ****     case kcipher_null:
 762:/home/rodarmer/sra_sdk-2.3.1/libs/krypto/cipher-vec.c ****         rc = NULLBCMEMBER(Make)(&block_cipher);
 1795              		.loc 1 762 0
 1796 0f73 488D45F0 		leaq	-16(%rbp), %rax
 1797 0f77 4889C7   		movq	%rax, %rdi
 1798 0f7a E8000000 		call	KNullBlockCipherVecAesNiMake@PLT
 1798      00
 1799 0f7f 8945FC   		movl	%eax, -4(%rbp)
 763:/home/rodarmer/sra_sdk-2.3.1/libs/krypto/cipher-vec.c ****         break;
 1800              		.loc 1 763 0
 1801 0f82 EB0F     		jmp	.L118
 1802              	.L117:
 764:/home/rodarmer/sra_sdk-2.3.1/libs/krypto/cipher-vec.c **** 
 765:/home/rodarmer/sra_sdk-2.3.1/libs/krypto/cipher-vec.c ****     case kcipher_AES:
 766:/home/rodarmer/sra_sdk-2.3.1/libs/krypto/cipher-vec.c ****         rc = AESBCMEMBER(Make)(&block_cipher);
 1803              		.loc 1 766 0
 1804 0f84 488D45F0 		leaq	-16(%rbp), %rax
 1805 0f88 4889C7   		movq	%rax, %rdi
 1806 0f8b E8000000 		call	KAESBlockCipherVecAesNiMake@PLT
 1806      00
 1807 0f90 8945FC   		movl	%eax, -4(%rbp)
 1808              	.L118:
 767:/home/rodarmer/sra_sdk-2.3.1/libs/krypto/cipher-vec.c ****         break;
 768:/home/rodarmer/sra_sdk-2.3.1/libs/krypto/cipher-vec.c ****     }
 769:/home/rodarmer/sra_sdk-2.3.1/libs/krypto/cipher-vec.c **** 
 770:/home/rodarmer/sra_sdk-2.3.1/libs/krypto/cipher-vec.c ****     if (rc == 0)
 1809              		.loc 1 770 0
 1810 0f93 837DFC00 		cmpl	$0, -4(%rbp)
 1811 0f97 0F85C200 		jne	.L119
 1811      0000
 1812              	.LBB5:
 771:/home/rodarmer/sra_sdk-2.3.1/libs/krypto/cipher-vec.c ****     {
 772:/home/rodarmer/sra_sdk-2.3.1/libs/krypto/cipher-vec.c ****         CIPHER_IMPL * obj;
 773:/home/rodarmer/sra_sdk-2.3.1/libs/krypto/cipher-vec.c **** 
 774:/home/rodarmer/sra_sdk-2.3.1/libs/krypto/cipher-vec.c ****         switch (type)
 1813              		.loc 1 774 0
 1814 0f9d 8B45D4   		movl	-44(%rbp), %eax
 1815 0fa0 85C0     		testl	%eax, %eax
 1816 0fa2 740A     		je	.L120
 1817 0fa4 83F801   		cmpl	$1, %eax
 1818 0fa7 745F     		je	.L121
 1819 0fa9 E9B10000 		jmp	.L119
 1819      00
GAS LISTING /tmp/ccf9IsGZ.s 			page 53


 1820              	.L120:
 775:/home/rodarmer/sra_sdk-2.3.1/libs/krypto/cipher-vec.c ****         {
 776:/home/rodarmer/sra_sdk-2.3.1/libs/krypto/cipher-vec.c ****         case kcipher_null:
 777:/home/rodarmer/sra_sdk-2.3.1/libs/krypto/cipher-vec.c ****             rc = CMEMBER(AllocNull) (&obj, block_cipher);
 1821              		.loc 1 777 0
 1822 0fae 488B55F0 		movq	-16(%rbp), %rdx
 1823 0fb2 488D45E8 		leaq	-24(%rbp), %rax
 1824 0fb6 4889D6   		movq	%rdx, %rsi
 1825 0fb9 4889C7   		movq	%rax, %rdi
 1826 0fbc E851FEFF 		call	KCipherVecAesNiAllocNull
 1826      FF
 1827 0fc1 8945FC   		movl	%eax, -4(%rbp)
 778:/home/rodarmer/sra_sdk-2.3.1/libs/krypto/cipher-vec.c ****             if (rc == 0)
 1828              		.loc 1 778 0
 1829 0fc4 837DFC00 		cmpl	$0, -4(%rbp)
 1830 0fc8 0F859000 		jne	.L126
 1830      0000
 779:/home/rodarmer/sra_sdk-2.3.1/libs/krypto/cipher-vec.c ****             {
 780:/home/rodarmer/sra_sdk-2.3.1/libs/krypto/cipher-vec.c ****                 rc = CMEMBER(InitNull) (obj, block_cipher);
 1831              		.loc 1 780 0
 1832 0fce 488B55F0 		movq	-16(%rbp), %rdx
 1833 0fd2 488B45E8 		movq	-24(%rbp), %rax
 1834 0fd6 4889D6   		movq	%rdx, %rsi
 1835 0fd9 4889C7   		movq	%rax, %rdi
 1836 0fdc E88CFEFF 		call	KCipherVecAesNiInitNull
 1836      FF
 1837 0fe1 8945FC   		movl	%eax, -4(%rbp)
 781:/home/rodarmer/sra_sdk-2.3.1/libs/krypto/cipher-vec.c ****                 if (rc == 0)
 1838              		.loc 1 781 0
 1839 0fe4 837DFC00 		cmpl	$0, -4(%rbp)
 1840 0fe8 7510     		jne	.L123
 782:/home/rodarmer/sra_sdk-2.3.1/libs/krypto/cipher-vec.c ****                     *new_obj = (KCipher*)obj;
 1841              		.loc 1 782 0
 1842 0fea 488B45E8 		movq	-24(%rbp), %rax
 1843 0fee 4889C2   		movq	%rax, %rdx
 1844 0ff1 488B45D8 		movq	-40(%rbp), %rax
 1845 0ff5 488910   		movq	%rdx, (%rax)
 783:/home/rodarmer/sra_sdk-2.3.1/libs/krypto/cipher-vec.c ****                 else
 784:/home/rodarmer/sra_sdk-2.3.1/libs/krypto/cipher-vec.c ****                     free (obj);
 785:/home/rodarmer/sra_sdk-2.3.1/libs/krypto/cipher-vec.c ****             }
 786:/home/rodarmer/sra_sdk-2.3.1/libs/krypto/cipher-vec.c ****             break;
 1846              		.loc 1 786 0
 1847 0ff8 EB65     		jmp	.L119
 1848              	.L123:
 784:/home/rodarmer/sra_sdk-2.3.1/libs/krypto/cipher-vec.c ****                     free (obj);
 1849              		.loc 1 784 0
 1850 0ffa 488B45E8 		movq	-24(%rbp), %rax
 1851 0ffe 4889C7   		movq	%rax, %rdi
 1852 1001 E8000000 		call	free@PLT
 1852      00
 1853              		.loc 1 786 0
 1854 1006 EB57     		jmp	.L119
 1855              	.L121:
 787:/home/rodarmer/sra_sdk-2.3.1/libs/krypto/cipher-vec.c ****         case kcipher_AES:
 788:/home/rodarmer/sra_sdk-2.3.1/libs/krypto/cipher-vec.c ****             rc = CMEMBER(AllocAes) (&obj, block_cipher);
 1856              		.loc 1 788 0
 1857 1008 488B55F0 		movq	-16(%rbp), %rdx
GAS LISTING /tmp/ccf9IsGZ.s 			page 54


 1858 100c 488D45E8 		leaq	-24(%rbp), %rax
 1859 1010 4889D6   		movq	%rdx, %rsi
 1860 1013 4889C7   		movq	%rax, %rdi
 1861 1016 E8FEFCFF 		call	KCipherVecAesNiAllocAes
 1861      FF
 1862 101b 8945FC   		movl	%eax, -4(%rbp)
 789:/home/rodarmer/sra_sdk-2.3.1/libs/krypto/cipher-vec.c ****             if (rc == 0)
 1863              		.loc 1 789 0
 1864 101e 837DFC00 		cmpl	$0, -4(%rbp)
 1865 1022 753B     		jne	.L119
 790:/home/rodarmer/sra_sdk-2.3.1/libs/krypto/cipher-vec.c ****             {
 791:/home/rodarmer/sra_sdk-2.3.1/libs/krypto/cipher-vec.c ****                 rc = CMEMBER(InitAes) (obj, block_cipher);
 1866              		.loc 1 791 0
 1867 1024 488B55F0 		movq	-16(%rbp), %rdx
 1868 1028 488B45E8 		movq	-24(%rbp), %rax
 1869 102c 4889D6   		movq	%rdx, %rsi
 1870 102f 4889C7   		movq	%rax, %rdi
 1871 1032 E83DFDFF 		call	KCipherVecAesNiInitAes
 1871      FF
 1872 1037 8945FC   		movl	%eax, -4(%rbp)
 792:/home/rodarmer/sra_sdk-2.3.1/libs/krypto/cipher-vec.c ****                 if (rc == 0)
 1873              		.loc 1 792 0
 1874 103a 837DFC00 		cmpl	$0, -4(%rbp)
 1875 103e 7510     		jne	.L124
 793:/home/rodarmer/sra_sdk-2.3.1/libs/krypto/cipher-vec.c ****                     *new_obj = (KCipher*)obj;
 1876              		.loc 1 793 0
 1877 1040 488B45E8 		movq	-24(%rbp), %rax
 1878 1044 4889C2   		movq	%rax, %rdx
 1879 1047 488B45D8 		movq	-40(%rbp), %rax
 1880 104b 488910   		movq	%rdx, (%rax)
 1881 104e EB0F     		jmp	.L119
 1882              	.L124:
 794:/home/rodarmer/sra_sdk-2.3.1/libs/krypto/cipher-vec.c ****                 else
 795:/home/rodarmer/sra_sdk-2.3.1/libs/krypto/cipher-vec.c ****                     free (obj);
 1883              		.loc 1 795 0
 1884 1050 488B45E8 		movq	-24(%rbp), %rax
 1885 1054 4889C7   		movq	%rax, %rdi
 1886 1057 E8000000 		call	free@PLT
 1886      00
 1887 105c EB01     		jmp	.L119
 1888              	.L126:
 786:/home/rodarmer/sra_sdk-2.3.1/libs/krypto/cipher-vec.c ****             break;
 1889              		.loc 1 786 0
 1890 105e 90       		nop
 1891              	.L119:
 1892              	.LBE5:
 796:/home/rodarmer/sra_sdk-2.3.1/libs/krypto/cipher-vec.c ****             }
 797:/home/rodarmer/sra_sdk-2.3.1/libs/krypto/cipher-vec.c ****         default:
 798:/home/rodarmer/sra_sdk-2.3.1/libs/krypto/cipher-vec.c ****             /* can't really get here */
 799:/home/rodarmer/sra_sdk-2.3.1/libs/krypto/cipher-vec.c ****             break;
 800:/home/rodarmer/sra_sdk-2.3.1/libs/krypto/cipher-vec.c ****         }
 801:/home/rodarmer/sra_sdk-2.3.1/libs/krypto/cipher-vec.c ****     }
 802:/home/rodarmer/sra_sdk-2.3.1/libs/krypto/cipher-vec.c ****     return rc;
 1893              		.loc 1 802 0
 1894 105f 8B45FC   		movl	-4(%rbp), %eax
 1895              	.L114:
 803:/home/rodarmer/sra_sdk-2.3.1/libs/krypto/cipher-vec.c **** }
GAS LISTING /tmp/ccf9IsGZ.s 			page 55


 1896              		.loc 1 803 0
 1897 1062 C9       		leave
 1898 1063 C3       		ret
 1899              		.cfi_endproc
 1900              	.LFE632:
 1901              		.size	KCipherVecAesNiMake, .-KCipherVecAesNiMake
 1902              		.section	.rodata
 1903 006c 00000000 		.align 16
 1904              		.type	__func__.7753, @object
 1905              		.size	__func__.7753, 20
 1906              	__func__.7753:
 1907 0070 4B436970 		.string	"KCipherVecAesNiMake"
 1907      68657256 
 1907      65634165 
 1907      734E694D 
 1907      616B6500 
 1908 0084 00000000 		.align 16
 1908      00000000 
 1908      00000000 
 1909              		.type	__PRETTY_FUNCTION__.7752, @object
 1910              		.size	__PRETTY_FUNCTION__.7752, 20
 1911              	__PRETTY_FUNCTION__.7752:
 1912 0090 4B436970 		.string	"KCipherVecAesNiMake"
 1912      68657256 
 1912      65634165 
 1912      734E694D 
 1912      616B6500 
 1913 00a4 00000000 		.align 16
 1913      00000000 
 1913      00000000 
 1914              		.type	__func__.7725, @object
 1915              		.size	__func__.7725, 25
 1916              	__func__.7725:
 1917 00b0 4B436970 		.string	"KCipherVecAesNiAllocNull"
 1917      68657256 
 1917      65634165 
 1917      734E6941 
 1917      6C6C6F63 
 1918 00c9 00000000 		.align 16
 1918      000000
 1919              		.type	__PRETTY_FUNCTION__.7724, @object
 1920              		.size	__PRETTY_FUNCTION__.7724, 25
 1921              	__PRETTY_FUNCTION__.7724:
 1922 00d0 4B436970 		.string	"KCipherVecAesNiAllocNull"
 1922      68657256 
 1922      65634165 
 1922      734E6941 
 1922      6C6C6F63 
 1923 00e9 00000000 		.align 16
 1923      000000
 1924              		.type	__func__.7698, @object
 1925              		.size	__func__.7698, 24
 1926              	__func__.7698:
 1927 00f0 4B436970 		.string	"KCipherVecAesNiAllocAes"
 1927      68657256 
 1927      65634165 
 1927      734E6941 
GAS LISTING /tmp/ccf9IsGZ.s 			page 56


 1927      6C6C6F63 
 1928 0108 00000000 		.align 16
 1928      00000000 
 1929              		.type	__PRETTY_FUNCTION__.7697, @object
 1930              		.size	__PRETTY_FUNCTION__.7697, 24
 1931              	__PRETTY_FUNCTION__.7697:
 1932 0110 4B436970 		.string	"KCipherVecAesNiAllocAes"
 1932      68657256 
 1932      65634165 
 1932      734E6941 
 1932      6C6C6F63 
 1933 0128 00000000 		.align 16
 1933      00000000 
 1934              		.type	__func__.7688, @object
 1935              		.size	__func__.7688, 26
 1936              	__func__.7688:
 1937 0130 4B436970 		.string	"KCipherVecAesNiDecryptCtr"
 1937      68657256 
 1937      65634165 
 1937      734E6944 
 1937      65637279 
 1938 014a 00000000 		.align 16
 1938      0000
 1939              		.type	__PRETTY_FUNCTION__.7687, @object
 1940              		.size	__PRETTY_FUNCTION__.7687, 26
 1941              	__PRETTY_FUNCTION__.7687:
 1942 0150 4B436970 		.string	"KCipherVecAesNiDecryptCtr"
 1942      68657256 
 1942      65634165 
 1942      734E6944 
 1942      65637279 
 1943 016a 00000000 		.align 16
 1943      0000
 1944              		.type	__func__.7678, @object
 1945              		.size	__func__.7678, 26
 1946              	__func__.7678:
 1947 0170 4B436970 		.string	"KCipherVecAesNiEncryptCtr"
 1947      68657256 
 1947      65634165 
 1947      734E6945 
 1947      6E637279 
 1948 018a 00000000 		.align 16
 1948      0000
 1949              		.type	__PRETTY_FUNCTION__.7677, @object
 1950              		.size	__PRETTY_FUNCTION__.7677, 26
 1951              	__PRETTY_FUNCTION__.7677:
 1952 0190 4B436970 		.string	"KCipherVecAesNiEncryptCtr"
 1952      68657256 
 1952      65634165 
 1952      734E6945 
 1952      6E637279 
 1953 01aa 00000000 		.align 16
 1953      0000
 1954              		.type	__func__.7444, @object
 1955              		.size	__func__.7444, 23
 1956              	__func__.7444:
 1957 01b0 4B436970 		.string	"KCipherVecAesNiDecrypt"
GAS LISTING /tmp/ccf9IsGZ.s 			page 57


 1957      68657256 
 1957      65634165 
 1957      734E6944 
 1957      65637279 
 1958 01c7 00000000 		.align 16
 1958      00000000 
 1958      00
 1959              		.type	__PRETTY_FUNCTION__.7443, @object
 1960              		.size	__PRETTY_FUNCTION__.7443, 23
 1961              	__PRETTY_FUNCTION__.7443:
 1962 01d0 4B436970 		.string	"KCipherVecAesNiDecrypt"
 1962      68657256 
 1962      65634165 
 1962      734E6944 
 1962      65637279 
 1963 01e7 00000000 		.align 16
 1963      00000000 
 1963      00
 1964              		.type	__func__.7428, @object
 1965              		.size	__func__.7428, 23
 1966              	__func__.7428:
 1967 01f0 4B436970 		.string	"KCipherVecAesNiEncrypt"
 1967      68657256 
 1967      65634165 
 1967      734E6945 
 1967      6E637279 
 1968 0207 00000000 		.align 16
 1968      00000000 
 1968      00
 1969              		.type	__PRETTY_FUNCTION__.7427, @object
 1970              		.size	__PRETTY_FUNCTION__.7427, 23
 1971              	__PRETTY_FUNCTION__.7427:
 1972 0210 4B436970 		.string	"KCipherVecAesNiEncrypt"
 1972      68657256 
 1972      65634165 
 1972      734E6945 
 1972      6E637279 
 1973 0227 00000000 		.align 32
 1973      00000000 
 1973      00000000 
 1973      00000000 
 1973      00000000 
 1974              		.type	__PRETTY_FUNCTION__.7378, @object
 1975              		.size	__PRETTY_FUNCTION__.7378, 37
 1976              	__PRETTY_FUNCTION__.7378:
 1977 0240 4B436970 		.string	"KCipherVecAesNiSetDecryptCounterFunc"
 1977      68657256 
 1977      65634165 
 1977      734E6953 
 1977      65744465 
 1978 0265 00000000 		.align 32
 1978      00000000 
 1978      00000000 
 1978      00000000 
 1978      00000000 
 1979              		.type	__PRETTY_FUNCTION__.7368, @object
 1980              		.size	__PRETTY_FUNCTION__.7368, 37
GAS LISTING /tmp/ccf9IsGZ.s 			page 58


 1981              	__PRETTY_FUNCTION__.7368:
 1982 0280 4B436970 		.string	"KCipherVecAesNiSetEncryptCounterFunc"
 1982      68657256 
 1982      65634165 
 1982      734E6953 
 1982      6574456E 
 1983 02a5 00000000 		.align 16
 1983      00000000 
 1983      000000
 1984              		.type	__PRETTY_FUNCTION__.7355, @object
 1985              		.size	__PRETTY_FUNCTION__.7355, 30
 1986              	__PRETTY_FUNCTION__.7355:
 1987 02b0 4B436970 		.string	"KCipherVecAesNiSetDecryptIvec"
 1987      68657256 
 1987      65634165 
 1987      734E6953 
 1987      65744465 
 1988 02ce 0000     		.align 16
 1989              		.type	__PRETTY_FUNCTION__.7342, @object
 1990              		.size	__PRETTY_FUNCTION__.7342, 30
 1991              	__PRETTY_FUNCTION__.7342:
 1992 02d0 4B436970 		.string	"KCipherVecAesNiSetEncryptIvec"
 1992      68657256 
 1992      65634165 
 1992      734E6953 
 1992      6574456E 
 1993 02ee 0000     		.align 16
 1994              		.type	__PRETTY_FUNCTION__.7320, @object
 1995              		.size	__PRETTY_FUNCTION__.7320, 29
 1996              	__PRETTY_FUNCTION__.7320:
 1997 02f0 4B436970 		.string	"KCipherVecAesNiSetDecryptKey"
 1997      68657256 
 1997      65634165 
 1997      734E6953 
 1997      65744465 
 1998 030d 000000   		.align 16
 1999              		.type	__func__.7322, @object
 2000              		.size	__func__.7322, 29
 2001              	__func__.7322:
 2002 0310 4B436970 		.string	"KCipherVecAesNiSetDecryptKey"
 2002      68657256 
 2002      65634165 
 2002      734E6953 
 2002      65744465 
 2003 032d 000000   		.align 16
 2004              		.type	__PRETTY_FUNCTION__.7296, @object
 2005              		.size	__PRETTY_FUNCTION__.7296, 29
 2006              	__PRETTY_FUNCTION__.7296:
 2007 0330 4B436970 		.string	"KCipherVecAesNiSetEncryptKey"
 2007      68657256 
 2007      65634165 
 2007      734E6953 
 2007      6574456E 
 2008 034d 000000   		.align 16
 2009              		.type	__func__.7298, @object
 2010              		.size	__func__.7298, 29
 2011              	__func__.7298:
GAS LISTING /tmp/ccf9IsGZ.s 			page 59


 2012 0350 4B436970 		.string	"KCipherVecAesNiSetEncryptKey"
 2012      68657256 
 2012      65634165 
 2012      734E6953 
 2012      6574456E 
 2013              		.text
 2014              	.Letext0:
 2015              		.section	.debug_loc,"",@progbits
 2016              	.Ldebug_loc0:
 2017              	.LLST0:
 2018 0000 00000000 		.quad	.LFB601-.Ltext0
 2018      00000000 
 2019 0008 01000000 		.quad	.LCFI0-.Ltext0
 2019      00000000 
 2020 0010 0200     		.value	0x2
 2021 0012 77       		.byte	0x77
 2022 0013 08       		.sleb128 8
 2023 0014 01000000 		.quad	.LCFI0-.Ltext0
 2023      00000000 
 2024 001c 04000000 		.quad	.LCFI1-.Ltext0
 2024      00000000 
 2025 0024 0200     		.value	0x2
 2026 0026 77       		.byte	0x77
 2027 0027 10       		.sleb128 16
 2028 0028 04000000 		.quad	.LCFI1-.Ltext0
 2028      00000000 
 2029 0030 1F000000 		.quad	.LFE601-.Ltext0
 2029      00000000 
 2030 0038 0200     		.value	0x2
 2031 003a 76       		.byte	0x76
 2032 003b 10       		.sleb128 16
 2033 003c 00000000 		.quad	0x0
 2033      00000000 
 2034 0044 00000000 		.quad	0x0
 2034      00000000 
 2035              	.LLST1:
 2036 004c 1F000000 		.quad	.LFB602-.Ltext0
 2036      00000000 
 2037 0054 20000000 		.quad	.LCFI2-.Ltext0
 2037      00000000 
 2038 005c 0200     		.value	0x2
 2039 005e 77       		.byte	0x77
 2040 005f 08       		.sleb128 8
 2041 0060 20000000 		.quad	.LCFI2-.Ltext0
 2041      00000000 
 2042 0068 23000000 		.quad	.LCFI3-.Ltext0
 2042      00000000 
 2043 0070 0200     		.value	0x2
 2044 0072 77       		.byte	0x77
 2045 0073 10       		.sleb128 16
 2046 0074 23000000 		.quad	.LCFI3-.Ltext0
 2046      00000000 
 2047 007c 48000000 		.quad	.LFE602-.Ltext0
 2047      00000000 
 2048 0084 0200     		.value	0x2
 2049 0086 76       		.byte	0x76
 2050 0087 10       		.sleb128 16
GAS LISTING /tmp/ccf9IsGZ.s 			page 60


 2051 0088 00000000 		.quad	0x0
 2051      00000000 
 2052 0090 00000000 		.quad	0x0
 2052      00000000 
 2053              	.LLST2:
 2054 0098 48000000 		.quad	.LFB603-.Ltext0
 2054      00000000 
 2055 00a0 49000000 		.quad	.LCFI4-.Ltext0
 2055      00000000 
 2056 00a8 0200     		.value	0x2
 2057 00aa 77       		.byte	0x77
 2058 00ab 08       		.sleb128 8
 2059 00ac 49000000 		.quad	.LCFI4-.Ltext0
 2059      00000000 
 2060 00b4 4C000000 		.quad	.LCFI5-.Ltext0
 2060      00000000 
 2061 00bc 0200     		.value	0x2
 2062 00be 77       		.byte	0x77
 2063 00bf 10       		.sleb128 16
 2064 00c0 4C000000 		.quad	.LCFI5-.Ltext0
 2064      00000000 
 2065 00c8 82000000 		.quad	.LFE603-.Ltext0
 2065      00000000 
 2066 00d0 0200     		.value	0x2
 2067 00d2 76       		.byte	0x76
 2068 00d3 10       		.sleb128 16
 2069 00d4 00000000 		.quad	0x0
 2069      00000000 
 2070 00dc 00000000 		.quad	0x0
 2070      00000000 
 2071              	.LLST3:
 2072 00e4 82000000 		.quad	.LFB604-.Ltext0
 2072      00000000 
 2073 00ec 83000000 		.quad	.LCFI6-.Ltext0
 2073      00000000 
 2074 00f4 0200     		.value	0x2
 2075 00f6 77       		.byte	0x77
 2076 00f7 08       		.sleb128 8
 2077 00f8 83000000 		.quad	.LCFI6-.Ltext0
 2077      00000000 
 2078 0100 86000000 		.quad	.LCFI7-.Ltext0
 2078      00000000 
 2079 0108 0200     		.value	0x2
 2080 010a 77       		.byte	0x77
 2081 010b 10       		.sleb128 16
 2082 010c 86000000 		.quad	.LCFI7-.Ltext0
 2082      00000000 
 2083 0114 6C010000 		.quad	.LFE604-.Ltext0
 2083      00000000 
 2084 011c 0200     		.value	0x2
 2085 011e 76       		.byte	0x76
 2086 011f 10       		.sleb128 16
 2087 0120 00000000 		.quad	0x0
 2087      00000000 
 2088 0128 00000000 		.quad	0x0
 2088      00000000 
 2089              	.LLST4:
GAS LISTING /tmp/ccf9IsGZ.s 			page 61


 2090 0130 6C010000 		.quad	.LFB605-.Ltext0
 2090      00000000 
 2091 0138 6D010000 		.quad	.LCFI8-.Ltext0
 2091      00000000 
 2092 0140 0200     		.value	0x2
 2093 0142 77       		.byte	0x77
 2094 0143 08       		.sleb128 8
 2095 0144 6D010000 		.quad	.LCFI8-.Ltext0
 2095      00000000 
 2096 014c 70010000 		.quad	.LCFI9-.Ltext0
 2096      00000000 
 2097 0154 0200     		.value	0x2
 2098 0156 77       		.byte	0x77
 2099 0157 10       		.sleb128 16
 2100 0158 70010000 		.quad	.LCFI9-.Ltext0
 2100      00000000 
 2101 0160 56020000 		.quad	.LFE605-.Ltext0
 2101      00000000 
 2102 0168 0200     		.value	0x2
 2103 016a 76       		.byte	0x76
 2104 016b 10       		.sleb128 16
 2105 016c 00000000 		.quad	0x0
 2105      00000000 
 2106 0174 00000000 		.quad	0x0
 2106      00000000 
 2107              	.LLST5:
 2108 017c 56020000 		.quad	.LFB606-.Ltext0
 2108      00000000 
 2109 0184 57020000 		.quad	.LCFI10-.Ltext0
 2109      00000000 
 2110 018c 0200     		.value	0x2
 2111 018e 77       		.byte	0x77
 2112 018f 08       		.sleb128 8
 2113 0190 57020000 		.quad	.LCFI10-.Ltext0
 2113      00000000 
 2114 0198 5A020000 		.quad	.LCFI11-.Ltext0
 2114      00000000 
 2115 01a0 0200     		.value	0x2
 2116 01a2 77       		.byte	0x77
 2117 01a3 10       		.sleb128 16
 2118 01a4 5A020000 		.quad	.LCFI11-.Ltext0
 2118      00000000 
 2119 01ac D9020000 		.quad	.LFE606-.Ltext0
 2119      00000000 
 2120 01b4 0200     		.value	0x2
 2121 01b6 76       		.byte	0x76
 2122 01b7 10       		.sleb128 16
 2123 01b8 00000000 		.quad	0x0
 2123      00000000 
 2124 01c0 00000000 		.quad	0x0
 2124      00000000 
 2125              	.LLST6:
 2126 01c8 D9020000 		.quad	.LFB607-.Ltext0
 2126      00000000 
 2127 01d0 DA020000 		.quad	.LCFI12-.Ltext0
 2127      00000000 
 2128 01d8 0200     		.value	0x2
GAS LISTING /tmp/ccf9IsGZ.s 			page 62


 2129 01da 77       		.byte	0x77
 2130 01db 08       		.sleb128 8
 2131 01dc DA020000 		.quad	.LCFI12-.Ltext0
 2131      00000000 
 2132 01e4 DD020000 		.quad	.LCFI13-.Ltext0
 2132      00000000 
 2133 01ec 0200     		.value	0x2
 2134 01ee 77       		.byte	0x77
 2135 01ef 10       		.sleb128 16
 2136 01f0 DD020000 		.quad	.LCFI13-.Ltext0
 2136      00000000 
 2137 01f8 5C030000 		.quad	.LFE607-.Ltext0
 2137      00000000 
 2138 0200 0200     		.value	0x2
 2139 0202 76       		.byte	0x76
 2140 0203 10       		.sleb128 16
 2141 0204 00000000 		.quad	0x0
 2141      00000000 
 2142 020c 00000000 		.quad	0x0
 2142      00000000 
 2143              	.LLST7:
 2144 0214 5C030000 		.quad	.LFB608-.Ltext0
 2144      00000000 
 2145 021c 5D030000 		.quad	.LCFI14-.Ltext0
 2145      00000000 
 2146 0224 0200     		.value	0x2
 2147 0226 77       		.byte	0x77
 2148 0227 08       		.sleb128 8
 2149 0228 5D030000 		.quad	.LCFI14-.Ltext0
 2149      00000000 
 2150 0230 60030000 		.quad	.LCFI15-.Ltext0
 2150      00000000 
 2151 0238 0200     		.value	0x2
 2152 023a 77       		.byte	0x77
 2153 023b 10       		.sleb128 16
 2154 023c 60030000 		.quad	.LCFI15-.Ltext0
 2154      00000000 
 2155 0244 CB030000 		.quad	.LFE608-.Ltext0
 2155      00000000 
 2156 024c 0200     		.value	0x2
 2157 024e 76       		.byte	0x76
 2158 024f 10       		.sleb128 16
 2159 0250 00000000 		.quad	0x0
 2159      00000000 
 2160 0258 00000000 		.quad	0x0
 2160      00000000 
 2161              	.LLST8:
 2162 0260 CB030000 		.quad	.LFB609-.Ltext0
 2162      00000000 
 2163 0268 CC030000 		.quad	.LCFI16-.Ltext0
 2163      00000000 
 2164 0270 0200     		.value	0x2
 2165 0272 77       		.byte	0x77
 2166 0273 08       		.sleb128 8
 2167 0274 CC030000 		.quad	.LCFI16-.Ltext0
 2167      00000000 
 2168 027c CF030000 		.quad	.LCFI17-.Ltext0
GAS LISTING /tmp/ccf9IsGZ.s 			page 63


 2168      00000000 
 2169 0284 0200     		.value	0x2
 2170 0286 77       		.byte	0x77
 2171 0287 10       		.sleb128 16
 2172 0288 CF030000 		.quad	.LCFI17-.Ltext0
 2172      00000000 
 2173 0290 3A040000 		.quad	.LFE609-.Ltext0
 2173      00000000 
 2174 0298 0200     		.value	0x2
 2175 029a 76       		.byte	0x76
 2176 029b 10       		.sleb128 16
 2177 029c 00000000 		.quad	0x0
 2177      00000000 
 2178 02a4 00000000 		.quad	0x0
 2178      00000000 
 2179              	.LLST9:
 2180 02ac 3A040000 		.quad	.LFB610-.Ltext0
 2180      00000000 
 2181 02b4 3B040000 		.quad	.LCFI18-.Ltext0
 2181      00000000 
 2182 02bc 0200     		.value	0x2
 2183 02be 77       		.byte	0x77
 2184 02bf 08       		.sleb128 8
 2185 02c0 3B040000 		.quad	.LCFI18-.Ltext0
 2185      00000000 
 2186 02c8 3E040000 		.quad	.LCFI19-.Ltext0
 2186      00000000 
 2187 02d0 0200     		.value	0x2
 2188 02d2 77       		.byte	0x77
 2189 02d3 10       		.sleb128 16
 2190 02d4 3E040000 		.quad	.LCFI19-.Ltext0
 2190      00000000 
 2191 02dc 61040000 		.quad	.LFE610-.Ltext0
 2191      00000000 
 2192 02e4 0200     		.value	0x2
 2193 02e6 76       		.byte	0x76
 2194 02e7 10       		.sleb128 16
 2195 02e8 00000000 		.quad	0x0
 2195      00000000 
 2196 02f0 00000000 		.quad	0x0
 2196      00000000 
 2197              	.LLST10:
 2198 02f8 61040000 		.quad	.LFB611-.Ltext0
 2198      00000000 
 2199 0300 62040000 		.quad	.LCFI20-.Ltext0
 2199      00000000 
 2200 0308 0200     		.value	0x2
 2201 030a 77       		.byte	0x77
 2202 030b 08       		.sleb128 8
 2203 030c 62040000 		.quad	.LCFI20-.Ltext0
 2203      00000000 
 2204 0314 65040000 		.quad	.LCFI21-.Ltext0
 2204      00000000 
 2205 031c 0200     		.value	0x2
 2206 031e 77       		.byte	0x77
 2207 031f 10       		.sleb128 16
 2208 0320 65040000 		.quad	.LCFI21-.Ltext0
GAS LISTING /tmp/ccf9IsGZ.s 			page 64


 2208      00000000 
 2209 0328 88040000 		.quad	.LFE611-.Ltext0
 2209      00000000 
 2210 0330 0200     		.value	0x2
 2211 0332 76       		.byte	0x76
 2212 0333 10       		.sleb128 16
 2213 0334 00000000 		.quad	0x0
 2213      00000000 
 2214 033c 00000000 		.quad	0x0
 2214      00000000 
 2215              	.LLST11:
 2216 0344 88040000 		.quad	.LFB612-.Ltext0
 2216      00000000 
 2217 034c 89040000 		.quad	.LCFI22-.Ltext0
 2217      00000000 
 2218 0354 0200     		.value	0x2
 2219 0356 77       		.byte	0x77
 2220 0357 08       		.sleb128 8
 2221 0358 89040000 		.quad	.LCFI22-.Ltext0
 2221      00000000 
 2222 0360 8C040000 		.quad	.LCFI23-.Ltext0
 2222      00000000 
 2223 0368 0200     		.value	0x2
 2224 036a 77       		.byte	0x77
 2225 036b 10       		.sleb128 16
 2226 036c 8C040000 		.quad	.LCFI23-.Ltext0
 2226      00000000 
 2227 0374 DB040000 		.quad	.LFE612-.Ltext0
 2227      00000000 
 2228 037c 0200     		.value	0x2
 2229 037e 76       		.byte	0x76
 2230 037f 10       		.sleb128 16
 2231 0380 00000000 		.quad	0x0
 2231      00000000 
 2232 0388 00000000 		.quad	0x0
 2232      00000000 
 2233              	.LLST12:
 2234 0390 DB040000 		.quad	.LFB613-.Ltext0
 2234      00000000 
 2235 0398 DC040000 		.quad	.LCFI24-.Ltext0
 2235      00000000 
 2236 03a0 0200     		.value	0x2
 2237 03a2 77       		.byte	0x77
 2238 03a3 08       		.sleb128 8
 2239 03a4 DC040000 		.quad	.LCFI24-.Ltext0
 2239      00000000 
 2240 03ac DF040000 		.quad	.LCFI25-.Ltext0
 2240      00000000 
 2241 03b4 0200     		.value	0x2
 2242 03b6 77       		.byte	0x77
 2243 03b7 10       		.sleb128 16
 2244 03b8 DF040000 		.quad	.LCFI25-.Ltext0
 2244      00000000 
 2245 03c0 2E050000 		.quad	.LFE613-.Ltext0
 2245      00000000 
 2246 03c8 0200     		.value	0x2
 2247 03ca 76       		.byte	0x76
GAS LISTING /tmp/ccf9IsGZ.s 			page 65


 2248 03cb 10       		.sleb128 16
 2249 03cc 00000000 		.quad	0x0
 2249      00000000 
 2250 03d4 00000000 		.quad	0x0
 2250      00000000 
 2251              	.LLST13:
 2252 03dc 2E050000 		.quad	.LFB614-.Ltext0
 2252      00000000 
 2253 03e4 2F050000 		.quad	.LCFI26-.Ltext0
 2253      00000000 
 2254 03ec 0200     		.value	0x2
 2255 03ee 77       		.byte	0x77
 2256 03ef 08       		.sleb128 8
 2257 03f0 2F050000 		.quad	.LCFI26-.Ltext0
 2257      00000000 
 2258 03f8 32050000 		.quad	.LCFI27-.Ltext0
 2258      00000000 
 2259 0400 0200     		.value	0x2
 2260 0402 77       		.byte	0x77
 2261 0403 10       		.sleb128 16
 2262 0404 32050000 		.quad	.LCFI27-.Ltext0
 2262      00000000 
 2263 040c 92050000 		.quad	.LFE614-.Ltext0
 2263      00000000 
 2264 0414 0200     		.value	0x2
 2265 0416 76       		.byte	0x76
 2266 0417 10       		.sleb128 16
 2267 0418 00000000 		.quad	0x0
 2267      00000000 
 2268 0420 00000000 		.quad	0x0
 2268      00000000 
 2269              	.LLST14:
 2270 0428 92050000 		.quad	.LFB615-.Ltext0
 2270      00000000 
 2271 0430 93050000 		.quad	.LCFI28-.Ltext0
 2271      00000000 
 2272 0438 0200     		.value	0x2
 2273 043a 77       		.byte	0x77
 2274 043b 08       		.sleb128 8
 2275 043c 93050000 		.quad	.LCFI28-.Ltext0
 2275      00000000 
 2276 0444 96050000 		.quad	.LCFI29-.Ltext0
 2276      00000000 
 2277 044c 0200     		.value	0x2
 2278 044e 77       		.byte	0x77
 2279 044f 10       		.sleb128 16
 2280 0450 96050000 		.quad	.LCFI29-.Ltext0
 2280      00000000 
 2281 0458 FD050000 		.quad	.LFE615-.Ltext0
 2281      00000000 
 2282 0460 0200     		.value	0x2
 2283 0462 76       		.byte	0x76
 2284 0463 10       		.sleb128 16
 2285 0464 00000000 		.quad	0x0
 2285      00000000 
 2286 046c 00000000 		.quad	0x0
 2286      00000000 
GAS LISTING /tmp/ccf9IsGZ.s 			page 66


 2287              	.LLST15:
 2288 0474 FD050000 		.quad	.LFB616-.Ltext0
 2288      00000000 
 2289 047c FE050000 		.quad	.LCFI30-.Ltext0
 2289      00000000 
 2290 0484 0200     		.value	0x2
 2291 0486 77       		.byte	0x77
 2292 0487 08       		.sleb128 8
 2293 0488 FE050000 		.quad	.LCFI30-.Ltext0
 2293      00000000 
 2294 0490 01060000 		.quad	.LCFI31-.Ltext0
 2294      00000000 
 2295 0498 0200     		.value	0x2
 2296 049a 77       		.byte	0x77
 2297 049b 10       		.sleb128 16
 2298 049c 01060000 		.quad	.LCFI31-.Ltext0
 2298      00000000 
 2299 04a4 6D060000 		.quad	.LFE616-.Ltext0
 2299      00000000 
 2300 04ac 0200     		.value	0x2
 2301 04ae 76       		.byte	0x76
 2302 04af 10       		.sleb128 16
 2303 04b0 00000000 		.quad	0x0
 2303      00000000 
 2304 04b8 00000000 		.quad	0x0
 2304      00000000 
 2305              	.LLST16:
 2306 04c0 6D060000 		.quad	.LFB617-.Ltext0
 2306      00000000 
 2307 04c8 6E060000 		.quad	.LCFI32-.Ltext0
 2307      00000000 
 2308 04d0 0200     		.value	0x2
 2309 04d2 77       		.byte	0x77
 2310 04d3 08       		.sleb128 8
 2311 04d4 6E060000 		.quad	.LCFI32-.Ltext0
 2311      00000000 
 2312 04dc 71060000 		.quad	.LCFI33-.Ltext0
 2312      00000000 
 2313 04e4 0200     		.value	0x2
 2314 04e6 77       		.byte	0x77
 2315 04e7 10       		.sleb128 16
 2316 04e8 71060000 		.quad	.LCFI33-.Ltext0
 2316      00000000 
 2317 04f0 DD060000 		.quad	.LFE617-.Ltext0
 2317      00000000 
 2318 04f8 0200     		.value	0x2
 2319 04fa 76       		.byte	0x76
 2320 04fb 10       		.sleb128 16
 2321 04fc 00000000 		.quad	0x0
 2321      00000000 
 2322 0504 00000000 		.quad	0x0
 2322      00000000 
 2323              	.LLST17:
 2324 050c DD060000 		.quad	.LFB618-.Ltext0
 2324      00000000 
 2325 0514 DE060000 		.quad	.LCFI34-.Ltext0
 2325      00000000 
GAS LISTING /tmp/ccf9IsGZ.s 			page 67


 2326 051c 0200     		.value	0x2
 2327 051e 77       		.byte	0x77
 2328 051f 08       		.sleb128 8
 2329 0520 DE060000 		.quad	.LCFI34-.Ltext0
 2329      00000000 
 2330 0528 E1060000 		.quad	.LCFI35-.Ltext0
 2330      00000000 
 2331 0530 0200     		.value	0x2
 2332 0532 77       		.byte	0x77
 2333 0533 10       		.sleb128 16
 2334 0534 E1060000 		.quad	.LCFI35-.Ltext0
 2334      00000000 
 2335 053c AB070000 		.quad	.LFE618-.Ltext0
 2335      00000000 
 2336 0544 0200     		.value	0x2
 2337 0546 76       		.byte	0x76
 2338 0547 10       		.sleb128 16
 2339 0548 00000000 		.quad	0x0
 2339      00000000 
 2340 0550 00000000 		.quad	0x0
 2340      00000000 
 2341              	.LLST18:
 2342 0558 AB070000 		.quad	.LFB619-.Ltext0
 2342      00000000 
 2343 0560 AC070000 		.quad	.LCFI36-.Ltext0
 2343      00000000 
 2344 0568 0200     		.value	0x2
 2345 056a 77       		.byte	0x77
 2346 056b 08       		.sleb128 8
 2347 056c AC070000 		.quad	.LCFI36-.Ltext0
 2347      00000000 
 2348 0574 AF070000 		.quad	.LCFI37-.Ltext0
 2348      00000000 
 2349 057c 0200     		.value	0x2
 2350 057e 77       		.byte	0x77
 2351 057f 10       		.sleb128 16
 2352 0580 AF070000 		.quad	.LCFI37-.Ltext0
 2352      00000000 
 2353 0588 7F080000 		.quad	.LFE619-.Ltext0
 2353      00000000 
 2354 0590 0200     		.value	0x2
 2355 0592 76       		.byte	0x76
 2356 0593 10       		.sleb128 16
 2357 0594 00000000 		.quad	0x0
 2357      00000000 
 2358 059c 00000000 		.quad	0x0
 2358      00000000 
 2359              	.LLST19:
 2360 05a4 7F080000 		.quad	.LFB620-.Ltext0
 2360      00000000 
 2361 05ac 80080000 		.quad	.LCFI38-.Ltext0
 2361      00000000 
 2362 05b4 0200     		.value	0x2
 2363 05b6 77       		.byte	0x77
 2364 05b7 08       		.sleb128 8
 2365 05b8 80080000 		.quad	.LCFI38-.Ltext0
 2365      00000000 
GAS LISTING /tmp/ccf9IsGZ.s 			page 68


 2366 05c0 83080000 		.quad	.LCFI39-.Ltext0
 2366      00000000 
 2367 05c8 0200     		.value	0x2
 2368 05ca 77       		.byte	0x77
 2369 05cb 10       		.sleb128 16
 2370 05cc 83080000 		.quad	.LCFI39-.Ltext0
 2370      00000000 
 2371 05d4 5C090000 		.quad	.LFE620-.Ltext0
 2371      00000000 
 2372 05dc 0200     		.value	0x2
 2373 05de 76       		.byte	0x76
 2374 05df 10       		.sleb128 16
 2375 05e0 00000000 		.quad	0x0
 2375      00000000 
 2376 05e8 00000000 		.quad	0x0
 2376      00000000 
 2377              	.LLST20:
 2378 05f0 5C090000 		.quad	.LFB621-.Ltext0
 2378      00000000 
 2379 05f8 5D090000 		.quad	.LCFI40-.Ltext0
 2379      00000000 
 2380 0600 0200     		.value	0x2
 2381 0602 77       		.byte	0x77
 2382 0603 08       		.sleb128 8
 2383 0604 5D090000 		.quad	.LCFI40-.Ltext0
 2383      00000000 
 2384 060c 60090000 		.quad	.LCFI41-.Ltext0
 2384      00000000 
 2385 0614 0200     		.value	0x2
 2386 0616 77       		.byte	0x77
 2387 0617 10       		.sleb128 16
 2388 0618 60090000 		.quad	.LCFI41-.Ltext0
 2388      00000000 
 2389 0620 220A0000 		.quad	.LFE621-.Ltext0
 2389      00000000 
 2390 0628 0200     		.value	0x2
 2391 062a 76       		.byte	0x76
 2392 062b 10       		.sleb128 16
 2393 062c 00000000 		.quad	0x0
 2393      00000000 
 2394 0634 00000000 		.quad	0x0
 2394      00000000 
 2395              	.LLST21:
 2396 063c 220A0000 		.quad	.LFB622-.Ltext0
 2396      00000000 
 2397 0644 230A0000 		.quad	.LCFI42-.Ltext0
 2397      00000000 
 2398 064c 0200     		.value	0x2
 2399 064e 77       		.byte	0x77
 2400 064f 08       		.sleb128 8
 2401 0650 230A0000 		.quad	.LCFI42-.Ltext0
 2401      00000000 
 2402 0658 260A0000 		.quad	.LCFI43-.Ltext0
 2402      00000000 
 2403 0660 0200     		.value	0x2
 2404 0662 77       		.byte	0x77
 2405 0663 10       		.sleb128 16
GAS LISTING /tmp/ccf9IsGZ.s 			page 69


 2406 0664 260A0000 		.quad	.LCFI43-.Ltext0
 2406      00000000 
 2407 066c E80A0000 		.quad	.LFE622-.Ltext0
 2407      00000000 
 2408 0674 0200     		.value	0x2
 2409 0676 76       		.byte	0x76
 2410 0677 10       		.sleb128 16
 2411 0678 00000000 		.quad	0x0
 2411      00000000 
 2412 0680 00000000 		.quad	0x0
 2412      00000000 
 2413              	.LLST22:
 2414 0688 E80A0000 		.quad	.LFB623-.Ltext0
 2414      00000000 
 2415 0690 E90A0000 		.quad	.LCFI44-.Ltext0
 2415      00000000 
 2416 0698 0200     		.value	0x2
 2417 069a 77       		.byte	0x77
 2418 069b 08       		.sleb128 8
 2419 069c E90A0000 		.quad	.LCFI44-.Ltext0
 2419      00000000 
 2420 06a4 EC0A0000 		.quad	.LCFI45-.Ltext0
 2420      00000000 
 2421 06ac 0200     		.value	0x2
 2422 06ae 77       		.byte	0x77
 2423 06af 10       		.sleb128 16
 2424 06b0 EC0A0000 		.quad	.LCFI45-.Ltext0
 2424      00000000 
 2425 06b8 AE0B0000 		.quad	.LFE623-.Ltext0
 2425      00000000 
 2426 06c0 0200     		.value	0x2
 2427 06c2 76       		.byte	0x76
 2428 06c3 10       		.sleb128 16
 2429 06c4 00000000 		.quad	0x0
 2429      00000000 
 2430 06cc 00000000 		.quad	0x0
 2430      00000000 
 2431              	.LLST23:
 2432 06d4 AE0B0000 		.quad	.LFB624-.Ltext0
 2432      00000000 
 2433 06dc AF0B0000 		.quad	.LCFI46-.Ltext0
 2433      00000000 
 2434 06e4 0200     		.value	0x2
 2435 06e6 77       		.byte	0x77
 2436 06e7 08       		.sleb128 8
 2437 06e8 AF0B0000 		.quad	.LCFI46-.Ltext0
 2437      00000000 
 2438 06f0 B20B0000 		.quad	.LCFI47-.Ltext0
 2438      00000000 
 2439 06f8 0200     		.value	0x2
 2440 06fa 77       		.byte	0x77
 2441 06fb 10       		.sleb128 16
 2442 06fc B20B0000 		.quad	.LCFI47-.Ltext0
 2442      00000000 
 2443 0704 740C0000 		.quad	.LFE624-.Ltext0
 2443      00000000 
 2444 070c 0200     		.value	0x2
GAS LISTING /tmp/ccf9IsGZ.s 			page 70


 2445 070e 76       		.byte	0x76
 2446 070f 10       		.sleb128 16
 2447 0710 00000000 		.quad	0x0
 2447      00000000 
 2448 0718 00000000 		.quad	0x0
 2448      00000000 
 2449              	.LLST24:
 2450 0720 740C0000 		.quad	.LFB625-.Ltext0
 2450      00000000 
 2451 0728 750C0000 		.quad	.LCFI48-.Ltext0
 2451      00000000 
 2452 0730 0200     		.value	0x2
 2453 0732 77       		.byte	0x77
 2454 0733 08       		.sleb128 8
 2455 0734 750C0000 		.quad	.LCFI48-.Ltext0
 2455      00000000 
 2456 073c 780C0000 		.quad	.LCFI49-.Ltext0
 2456      00000000 
 2457 0744 0200     		.value	0x2
 2458 0746 77       		.byte	0x77
 2459 0747 10       		.sleb128 16
 2460 0748 780C0000 		.quad	.LCFI49-.Ltext0
 2460      00000000 
 2461 0750 AD0C0000 		.quad	.LFE625-.Ltext0
 2461      00000000 
 2462 0758 0200     		.value	0x2
 2463 075a 76       		.byte	0x76
 2464 075b 10       		.sleb128 16
 2465 075c 00000000 		.quad	0x0
 2465      00000000 
 2466 0764 00000000 		.quad	0x0
 2466      00000000 
 2467              	.LLST25:
 2468 076c AD0C0000 		.quad	.LFB626-.Ltext0
 2468      00000000 
 2469 0774 AE0C0000 		.quad	.LCFI50-.Ltext0
 2469      00000000 
 2470 077c 0200     		.value	0x2
 2471 077e 77       		.byte	0x77
 2472 077f 08       		.sleb128 8
 2473 0780 AE0C0000 		.quad	.LCFI50-.Ltext0
 2473      00000000 
 2474 0788 B10C0000 		.quad	.LCFI51-.Ltext0
 2474      00000000 
 2475 0790 0200     		.value	0x2
 2476 0792 77       		.byte	0x77
 2477 0793 10       		.sleb128 16
 2478 0794 B10C0000 		.quad	.LCFI51-.Ltext0
 2478      00000000 
 2479 079c E30C0000 		.quad	.LFE626-.Ltext0
 2479      00000000 
 2480 07a4 0200     		.value	0x2
 2481 07a6 76       		.byte	0x76
 2482 07a7 10       		.sleb128 16
 2483 07a8 00000000 		.quad	0x0
 2483      00000000 
 2484 07b0 00000000 		.quad	0x0
GAS LISTING /tmp/ccf9IsGZ.s 			page 71


 2484      00000000 
 2485              	.LLST26:
 2486 07b8 E30C0000 		.quad	.LFB627-.Ltext0
 2486      00000000 
 2487 07c0 E40C0000 		.quad	.LCFI52-.Ltext0
 2487      00000000 
 2488 07c8 0200     		.value	0x2
 2489 07ca 77       		.byte	0x77
 2490 07cb 08       		.sleb128 8
 2491 07cc E40C0000 		.quad	.LCFI52-.Ltext0
 2491      00000000 
 2492 07d4 E70C0000 		.quad	.LCFI53-.Ltext0
 2492      00000000 
 2493 07dc 0200     		.value	0x2
 2494 07de 77       		.byte	0x77
 2495 07df 10       		.sleb128 16
 2496 07e0 E70C0000 		.quad	.LCFI53-.Ltext0
 2496      00000000 
 2497 07e8 190D0000 		.quad	.LFE627-.Ltext0
 2497      00000000 
 2498 07f0 0200     		.value	0x2
 2499 07f2 76       		.byte	0x76
 2500 07f3 10       		.sleb128 16
 2501 07f4 00000000 		.quad	0x0
 2501      00000000 
 2502 07fc 00000000 		.quad	0x0
 2502      00000000 
 2503              	.LLST27:
 2504 0804 190D0000 		.quad	.LFB628-.Ltext0
 2504      00000000 
 2505 080c 1A0D0000 		.quad	.LCFI54-.Ltext0
 2505      00000000 
 2506 0814 0200     		.value	0x2
 2507 0816 77       		.byte	0x77
 2508 0817 08       		.sleb128 8
 2509 0818 1A0D0000 		.quad	.LCFI54-.Ltext0
 2509      00000000 
 2510 0820 1D0D0000 		.quad	.LCFI55-.Ltext0
 2510      00000000 
 2511 0828 0200     		.value	0x2
 2512 082a 77       		.byte	0x77
 2513 082b 10       		.sleb128 16
 2514 082c 1D0D0000 		.quad	.LCFI55-.Ltext0
 2514      00000000 
 2515 0834 740D0000 		.quad	.LFE628-.Ltext0
 2515      00000000 
 2516 083c 0200     		.value	0x2
 2517 083e 76       		.byte	0x76
 2518 083f 10       		.sleb128 16
 2519 0840 00000000 		.quad	0x0
 2519      00000000 
 2520 0848 00000000 		.quad	0x0
 2520      00000000 
 2521              	.LLST28:
 2522 0850 740D0000 		.quad	.LFB629-.Ltext0
 2522      00000000 
 2523 0858 750D0000 		.quad	.LCFI56-.Ltext0
GAS LISTING /tmp/ccf9IsGZ.s 			page 72


 2523      00000000 
 2524 0860 0200     		.value	0x2
 2525 0862 77       		.byte	0x77
 2526 0863 08       		.sleb128 8
 2527 0864 750D0000 		.quad	.LCFI56-.Ltext0
 2527      00000000 
 2528 086c 780D0000 		.quad	.LCFI57-.Ltext0
 2528      00000000 
 2529 0874 0200     		.value	0x2
 2530 0876 77       		.byte	0x77
 2531 0877 10       		.sleb128 16
 2532 0878 780D0000 		.quad	.LCFI57-.Ltext0
 2532      00000000 
 2533 0880 120E0000 		.quad	.LFE629-.Ltext0
 2533      00000000 
 2534 0888 0200     		.value	0x2
 2535 088a 76       		.byte	0x76
 2536 088b 10       		.sleb128 16
 2537 088c 00000000 		.quad	0x0
 2537      00000000 
 2538 0894 00000000 		.quad	0x0
 2538      00000000 
 2539              	.LLST29:
 2540 089c 120E0000 		.quad	.LFB630-.Ltext0
 2540      00000000 
 2541 08a4 130E0000 		.quad	.LCFI58-.Ltext0
 2541      00000000 
 2542 08ac 0200     		.value	0x2
 2543 08ae 77       		.byte	0x77
 2544 08af 08       		.sleb128 8
 2545 08b0 130E0000 		.quad	.LCFI58-.Ltext0
 2545      00000000 
 2546 08b8 160E0000 		.quad	.LCFI59-.Ltext0
 2546      00000000 
 2547 08c0 0200     		.value	0x2
 2548 08c2 77       		.byte	0x77
 2549 08c3 10       		.sleb128 16
 2550 08c4 160E0000 		.quad	.LCFI59-.Ltext0
 2550      00000000 
 2551 08cc 6D0E0000 		.quad	.LFE630-.Ltext0
 2551      00000000 
 2552 08d4 0200     		.value	0x2
 2553 08d6 76       		.byte	0x76
 2554 08d7 10       		.sleb128 16
 2555 08d8 00000000 		.quad	0x0
 2555      00000000 
 2556 08e0 00000000 		.quad	0x0
 2556      00000000 
 2557              	.LLST30:
 2558 08e8 6D0E0000 		.quad	.LFB631-.Ltext0
 2558      00000000 
 2559 08f0 6E0E0000 		.quad	.LCFI60-.Ltext0
 2559      00000000 
 2560 08f8 0200     		.value	0x2
 2561 08fa 77       		.byte	0x77
 2562 08fb 08       		.sleb128 8
 2563 08fc 6E0E0000 		.quad	.LCFI60-.Ltext0
GAS LISTING /tmp/ccf9IsGZ.s 			page 73


 2563      00000000 
 2564 0904 710E0000 		.quad	.LCFI61-.Ltext0
 2564      00000000 
 2565 090c 0200     		.value	0x2
 2566 090e 77       		.byte	0x77
 2567 090f 10       		.sleb128 16
 2568 0910 710E0000 		.quad	.LCFI61-.Ltext0
 2568      00000000 
 2569 0918 020F0000 		.quad	.LFE631-.Ltext0
 2569      00000000 
 2570 0920 0200     		.value	0x2
 2571 0922 76       		.byte	0x76
 2572 0923 10       		.sleb128 16
 2573 0924 00000000 		.quad	0x0
 2573      00000000 
 2574 092c 00000000 		.quad	0x0
 2574      00000000 
 2575              	.LLST31:
 2576 0934 020F0000 		.quad	.LFB632-.Ltext0
 2576      00000000 
 2577 093c 030F0000 		.quad	.LCFI62-.Ltext0
 2577      00000000 
 2578 0944 0200     		.value	0x2
 2579 0946 77       		.byte	0x77
 2580 0947 08       		.sleb128 8
 2581 0948 030F0000 		.quad	.LCFI62-.Ltext0
 2581      00000000 
 2582 0950 060F0000 		.quad	.LCFI63-.Ltext0
 2582      00000000 
 2583 0958 0200     		.value	0x2
 2584 095a 77       		.byte	0x77
 2585 095b 10       		.sleb128 16
 2586 095c 060F0000 		.quad	.LCFI63-.Ltext0
 2586      00000000 
 2587 0964 64100000 		.quad	.LFE632-.Ltext0
 2587      00000000 
 2588 096c 0200     		.value	0x2
 2589 096e 76       		.byte	0x76
 2590 096f 10       		.sleb128 16
 2591 0970 00000000 		.quad	0x0
 2591      00000000 
 2592 0978 00000000 		.quad	0x0
 2592      00000000 
 2593              		.file 2 "/usr/include/stdint.h"
 2594              		.file 3 "/home/rodarmer/sra_sdk-2.3.1/interfaces/klib/defs.h"
 2595              		.file 4 "/home/rodarmer/sra_sdk-2.3.1/interfaces/cc/gcc/x86_64/atomic32.h"
 2596              		.file 5 "/home/rodarmer/sra_sdk-2.3.1/interfaces/klib/refcount.h"
 2597              		.file 6 "/home/rodarmer/sra_sdk-2.3.1/interfaces/krypto/cipher.h"
 2598              		.file 7 "/home/rodarmer/sra_sdk-2.3.1/libs/krypto/cipher-impl.h"
 2599              		.file 8 "/home/rodarmer/sra_sdk-2.3.1/interfaces/cc/gcc/v128.h"
 2600              		.file 9 "/home/rodarmer/sra_sdk-2.3.1/libs/krypto/blockcipher-impl.h"
 2601              		.file 10 "/home/rodarmer/sra_sdk-2.3.1/libs/krypto/aes-ncbi-priv.h"
 2602              		.file 11 "/home/rodarmer/sra_sdk-2.3.1/libs/krypto/null-ncbi-priv.h"
 2603              		.file 12 "/home/rodarmer/sra_sdk-2.3.1/interfaces/krypto/ciphermgr.h"
 2604              		.file 13 "/home/rodarmer/sra_sdk-2.3.1/interfaces/klib/debug.h"
 2605              		.file 14 "/home/rodarmer/sra_sdk-2.3.1/libs/krypto/blockcipher-priv.h"
 2606              		.file 15 "/home/rodarmer/sra_sdk-2.3.1/interfaces/klib/rc.h"
GAS LISTING /tmp/ccf9IsGZ.s 			page 74


 2607              		.section	.debug_info
 2608 0000 4C1F0000 		.long	0x1f4c
 2609 0004 0200     		.value	0x2
 2610 0006 00000000 		.long	.Ldebug_abbrev0
 2611 000a 08       		.byte	0x8
 2612 000b 01       		.uleb128 0x1
 2613 000c 00000000 		.long	.LASF392
 2614 0010 01       		.byte	0x1
 2615 0011 00000000 		.long	.LASF393
 2616 0015 00000000 		.long	.LASF394
 2617 0019 00000000 		.quad	.Ltext0
 2617      00000000 
 2618 0021 00000000 		.quad	.Letext0
 2618      00000000 
 2619 0029 00000000 		.long	.Ldebug_line0
 2620 002d 02       		.uleb128 0x2
 2621 002e 01       		.byte	0x1
 2622 002f 06       		.byte	0x6
 2623 0030 00000000 		.long	.LASF0
 2624 0034 02       		.uleb128 0x2
 2625 0035 02       		.byte	0x2
 2626 0036 05       		.byte	0x5
 2627 0037 00000000 		.long	.LASF1
 2628 003b 03       		.uleb128 0x3
 2629 003c 04       		.byte	0x4
 2630 003d 05       		.byte	0x5
 2631 003e 696E7400 		.string	"int"
 2632 0042 02       		.uleb128 0x2
 2633 0043 08       		.byte	0x8
 2634 0044 05       		.byte	0x5
 2635 0045 00000000 		.long	.LASF2
 2636 0049 04       		.uleb128 0x4
 2637 004a 00000000 		.long	.LASF5
 2638 004e 02       		.byte	0x2
 2639 004f 31       		.byte	0x31
 2640 0050 54000000 		.long	0x54
 2641 0054 02       		.uleb128 0x2
 2642 0055 01       		.byte	0x1
 2643 0056 08       		.byte	0x8
 2644 0057 00000000 		.long	.LASF3
 2645 005b 02       		.uleb128 0x2
 2646 005c 02       		.byte	0x2
 2647 005d 07       		.byte	0x7
 2648 005e 00000000 		.long	.LASF4
 2649 0062 04       		.uleb128 0x4
 2650 0063 00000000 		.long	.LASF6
 2651 0067 02       		.byte	0x2
 2652 0068 34       		.byte	0x34
 2653 0069 6D000000 		.long	0x6d
 2654 006d 02       		.uleb128 0x2
 2655 006e 04       		.byte	0x4
 2656 006f 07       		.byte	0x7
 2657 0070 00000000 		.long	.LASF7
 2658 0074 02       		.uleb128 0x2
 2659 0075 08       		.byte	0x8
 2660 0076 07       		.byte	0x7
 2661 0077 00000000 		.long	.LASF8
GAS LISTING /tmp/ccf9IsGZ.s 			page 75


 2662 007b 04       		.uleb128 0x4
 2663 007c 00000000 		.long	.LASF9
 2664 0080 03       		.byte	0x3
 2665 0081 30       		.byte	0x30
 2666 0082 62000000 		.long	0x62
 2667 0086 04       		.uleb128 0x4
 2668 0087 00000000 		.long	.LASF10
 2669 008b 04       		.byte	0x4
 2670 008c 27       		.byte	0x27
 2671 008d 91000000 		.long	0x91
 2672 0091 05       		.uleb128 0x5
 2673 0092 00000000 		.long	.LASF10
 2674 0096 04       		.byte	0x4
 2675 0097 04       		.byte	0x4
 2676 0098 27       		.byte	0x27
 2677 0099 AC000000 		.long	0xac
 2678 009d 06       		.uleb128 0x6
 2679 009e 00000000 		.long	.LASF34
 2680 00a2 04       		.byte	0x4
 2681 00a3 2A       		.byte	0x2a
 2682 00a4 AC000000 		.long	0xac
 2683 00a8 02       		.byte	0x2
 2684 00a9 23       		.byte	0x23
 2685 00aa 00       		.uleb128 0x0
 2686 00ab 00       		.byte	0x0
 2687 00ac 07       		.uleb128 0x7
 2688 00ad 3B000000 		.long	0x3b
 2689 00b1 08       		.uleb128 0x8
 2690 00b2 08       		.byte	0x8
 2691 00b3 07       		.byte	0x7
 2692 00b4 09       		.uleb128 0x9
 2693 00b5 08       		.byte	0x8
 2694 00b6 0A       		.uleb128 0xa
 2695 00b7 08       		.byte	0x8
 2696 00b8 BC000000 		.long	0xbc
 2697 00bc 0B       		.uleb128 0xb
 2698 00bd C1000000 		.long	0xc1
 2699 00c1 02       		.uleb128 0x2
 2700 00c2 01       		.byte	0x1
 2701 00c3 06       		.byte	0x6
 2702 00c4 00000000 		.long	.LASF11
 2703 00c8 0C       		.uleb128 0xc
 2704 00c9 04       		.byte	0x4
 2705 00ca 0D       		.byte	0xd
 2706 00cb D6       		.byte	0xd6
 2707 00cc 49010000 		.long	0x149
 2708 00d0 0D       		.uleb128 0xd
 2709 00d1 00000000 		.long	.LASF12
 2710 00d5 7F       		.sleb128 -1
 2711 00d6 0D       		.uleb128 0xd
 2712 00d7 00000000 		.long	.LASF13
 2713 00db 00       		.sleb128 0
 2714 00dc 0D       		.uleb128 0xd
 2715 00dd 00000000 		.long	.LASF14
 2716 00e1 01       		.sleb128 1
 2717 00e2 0D       		.uleb128 0xd
 2718 00e3 00000000 		.long	.LASF15
GAS LISTING /tmp/ccf9IsGZ.s 			page 76


 2719 00e7 02       		.sleb128 2
 2720 00e8 0D       		.uleb128 0xd
 2721 00e9 00000000 		.long	.LASF16
 2722 00ed 03       		.sleb128 3
 2723 00ee 0D       		.uleb128 0xd
 2724 00ef 00000000 		.long	.LASF17
 2725 00f3 04       		.sleb128 4
 2726 00f4 0D       		.uleb128 0xd
 2727 00f5 00000000 		.long	.LASF18
 2728 00f9 05       		.sleb128 5
 2729 00fa 0D       		.uleb128 0xd
 2730 00fb 00000000 		.long	.LASF19
 2731 00ff 06       		.sleb128 6
 2732 0100 0D       		.uleb128 0xd
 2733 0101 00000000 		.long	.LASF20
 2734 0105 07       		.sleb128 7
 2735 0106 0D       		.uleb128 0xd
 2736 0107 00000000 		.long	.LASF21
 2737 010b 08       		.sleb128 8
 2738 010c 0D       		.uleb128 0xd
 2739 010d 00000000 		.long	.LASF22
 2740 0111 09       		.sleb128 9
 2741 0112 0D       		.uleb128 0xd
 2742 0113 00000000 		.long	.LASF23
 2743 0117 0A       		.sleb128 10
 2744 0118 0D       		.uleb128 0xd
 2745 0119 00000000 		.long	.LASF24
 2746 011d 0B       		.sleb128 11
 2747 011e 0D       		.uleb128 0xd
 2748 011f 00000000 		.long	.LASF25
 2749 0123 0C       		.sleb128 12
 2750 0124 0D       		.uleb128 0xd
 2751 0125 00000000 		.long	.LASF26
 2752 0129 0D       		.sleb128 13
 2753 012a 0D       		.uleb128 0xd
 2754 012b 00000000 		.long	.LASF27
 2755 012f 0E       		.sleb128 14
 2756 0130 0D       		.uleb128 0xd
 2757 0131 00000000 		.long	.LASF28
 2758 0135 0F       		.sleb128 15
 2759 0136 0D       		.uleb128 0xd
 2760 0137 00000000 		.long	.LASF29
 2761 013b 10       		.sleb128 16
 2762 013c 0D       		.uleb128 0xd
 2763 013d 00000000 		.long	.LASF30
 2764 0141 11       		.sleb128 17
 2765 0142 0D       		.uleb128 0xd
 2766 0143 00000000 		.long	.LASF31
 2767 0147 12       		.sleb128 18
 2768 0148 00       		.byte	0x0
 2769 0149 04       		.uleb128 0x4
 2770 014a 00000000 		.long	.LASF32
 2771 014e 05       		.byte	0x5
 2772 014f 42       		.byte	0x42
 2773 0150 86000000 		.long	0x86
 2774 0154 04       		.uleb128 0x4
 2775 0155 00000000 		.long	.LASF33
GAS LISTING /tmp/ccf9IsGZ.s 			page 77


 2776 0159 06       		.byte	0x6
 2777 015a 20       		.byte	0x20
 2778 015b 5F010000 		.long	0x15f
 2779 015f 05       		.uleb128 0x5
 2780 0160 00000000 		.long	.LASF33
 2781 0164 48       		.byte	0x48
 2782 0165 06       		.byte	0x6
 2783 0166 20       		.byte	0x20
 2784 0167 F7010000 		.long	0x1f7
 2785 016b 06       		.uleb128 0x6
 2786 016c 00000000 		.long	.LASF35
 2787 0170 07       		.byte	0x7
 2788 0171 9A       		.byte	0x9a
 2789 0172 49010000 		.long	0x149
 2790 0176 02       		.byte	0x2
 2791 0177 23       		.byte	0x23
 2792 0178 00       		.uleb128 0x0
 2793 0179 06       		.uleb128 0x6
 2794 017a 00000000 		.long	.LASF36
 2795 017e 07       		.byte	0x7
 2796 017f 9B       		.byte	0x9b
 2797 0180 62000000 		.long	0x62
 2798 0184 02       		.byte	0x2
 2799 0185 23       		.byte	0x23
 2800 0186 04       		.uleb128 0x4
 2801 0187 0E       		.uleb128 0xe
 2802 0188 767400   		.string	"vt"
 2803 018b 07       		.byte	0x7
 2804 018c 9C       		.byte	0x9c
 2805 018d BC040000 		.long	0x4bc
 2806 0191 02       		.byte	0x2
 2807 0192 23       		.byte	0x23
 2808 0193 08       		.uleb128 0x8
 2809 0194 06       		.uleb128 0x6
 2810 0195 00000000 		.long	.LASF37
 2811 0199 07       		.byte	0x7
 2812 019a 9D       		.byte	0x9d
 2813 019b B6000000 		.long	0xb6
 2814 019f 02       		.byte	0x2
 2815 01a0 23       		.byte	0x23
 2816 01a1 10       		.uleb128 0x10
 2817 01a2 06       		.uleb128 0x6
 2818 01a3 00000000 		.long	.LASF38
 2819 01a7 07       		.byte	0x7
 2820 01a8 9E       		.byte	0x9e
 2821 01a9 B4000000 		.long	0xb4
 2822 01ad 02       		.byte	0x2
 2823 01ae 23       		.byte	0x23
 2824 01af 18       		.uleb128 0x18
 2825 01b0 06       		.uleb128 0x6
 2826 01b1 00000000 		.long	.LASF39
 2827 01b5 07       		.byte	0x7
 2828 01b6 9F       		.byte	0x9f
 2829 01b7 B4000000 		.long	0xb4
 2830 01bb 02       		.byte	0x2
 2831 01bc 23       		.byte	0x23
 2832 01bd 20       		.uleb128 0x20
GAS LISTING /tmp/ccf9IsGZ.s 			page 78


 2833 01be 06       		.uleb128 0x6
 2834 01bf 00000000 		.long	.LASF40
 2835 01c3 07       		.byte	0x7
 2836 01c4 A0       		.byte	0xa0
 2837 01c5 B4000000 		.long	0xb4
 2838 01c9 02       		.byte	0x2
 2839 01ca 23       		.byte	0x23
 2840 01cb 28       		.uleb128 0x28
 2841 01cc 06       		.uleb128 0x6
 2842 01cd 00000000 		.long	.LASF41
 2843 01d1 07       		.byte	0x7
 2844 01d2 A1       		.byte	0xa1
 2845 01d3 B4000000 		.long	0xb4
 2846 01d7 02       		.byte	0x2
 2847 01d8 23       		.byte	0x23
 2848 01d9 30       		.uleb128 0x30
 2849 01da 06       		.uleb128 0x6
 2850 01db 00000000 		.long	.LASF42
 2851 01df 07       		.byte	0x7
 2852 01e0 A2       		.byte	0xa2
 2853 01e1 F7010000 		.long	0x1f7
 2854 01e5 02       		.byte	0x2
 2855 01e6 23       		.byte	0x23
 2856 01e7 38       		.uleb128 0x38
 2857 01e8 06       		.uleb128 0x6
 2858 01e9 00000000 		.long	.LASF43
 2859 01ed 07       		.byte	0x7
 2860 01ee A3       		.byte	0xa3
 2861 01ef F7010000 		.long	0x1f7
 2862 01f3 02       		.byte	0x2
 2863 01f4 23       		.byte	0x23
 2864 01f5 40       		.uleb128 0x40
 2865 01f6 00       		.byte	0x0
 2866 01f7 04       		.uleb128 0x4
 2867 01f8 00000000 		.long	.LASF44
 2868 01fc 06       		.byte	0x6
 2869 01fd 40       		.byte	0x40
 2870 01fe 02020000 		.long	0x202
 2871 0202 0A       		.uleb128 0xa
 2872 0203 08       		.byte	0x8
 2873 0204 08020000 		.long	0x208
 2874 0208 0F       		.uleb128 0xf
 2875 0209 01       		.byte	0x1
 2876 020a 14020000 		.long	0x214
 2877 020e 10       		.uleb128 0x10
 2878 020f B4000000 		.long	0xb4
 2879 0213 00       		.byte	0x0
 2880 0214 04       		.uleb128 0x4
 2881 0215 00000000 		.long	.LASF45
 2882 0219 07       		.byte	0x7
 2883 021a 2C       		.byte	0x2c
 2884 021b 1F020000 		.long	0x21f
 2885 021f 05       		.uleb128 0x5
 2886 0220 00000000 		.long	.LASF45
 2887 0224 50       		.byte	0x50
 2888 0225 07       		.byte	0x7
 2889 0226 2B       		.byte	0x2b
GAS LISTING /tmp/ccf9IsGZ.s 			page 79


 2890 0227 48020000 		.long	0x248
 2891 022b 0E       		.uleb128 0xe
 2892 022c 64616400 		.string	"dad"
 2893 0230 01       		.byte	0x1
 2894 0231 3C       		.byte	0x3c
 2895 0232 54010000 		.long	0x154
 2896 0236 02       		.byte	0x2
 2897 0237 23       		.byte	0x23
 2898 0238 00       		.uleb128 0x0
 2899 0239 06       		.uleb128 0x6
 2900 023a 00000000 		.long	.LASF46
 2901 023e 01       		.byte	0x1
 2902 023f 3D       		.byte	0x3d
 2903 0240 5C070000 		.long	0x75c
 2904 0244 02       		.byte	0x2
 2905 0245 23       		.byte	0x23
 2906 0246 48       		.uleb128 0x48
 2907 0247 00       		.byte	0x0
 2908 0248 04       		.uleb128 0x4
 2909 0249 00000000 		.long	.LASF47
 2910 024d 07       		.byte	0x7
 2911 024e 2F       		.byte	0x2f
 2912 024f 53020000 		.long	0x253
 2913 0253 05       		.uleb128 0x5
 2914 0254 00000000 		.long	.LASF47
 2915 0258 08       		.byte	0x8
 2916 0259 07       		.byte	0x7
 2917 025a 2F       		.byte	0x2f
 2918 025b 7C020000 		.long	0x27c
 2919 025f 0E       		.uleb128 0xe
 2920 0260 6D616A00 		.string	"maj"
 2921 0264 07       		.byte	0x7
 2922 0265 32       		.byte	0x32
 2923 0266 62000000 		.long	0x62
 2924 026a 02       		.byte	0x2
 2925 026b 23       		.byte	0x23
 2926 026c 00       		.uleb128 0x0
 2927 026d 0E       		.uleb128 0xe
 2928 026e 6D696E00 		.string	"min"
 2929 0272 07       		.byte	0x7
 2930 0273 33       		.byte	0x33
 2931 0274 62000000 		.long	0x62
 2932 0278 02       		.byte	0x2
 2933 0279 23       		.byte	0x23
 2934 027a 04       		.uleb128 0x4
 2935 027b 00       		.byte	0x0
 2936 027c 04       		.uleb128 0x4
 2937 027d 00000000 		.long	.LASF48
 2938 0281 07       		.byte	0x7
 2939 0282 37       		.byte	0x37
 2940 0283 87020000 		.long	0x287
 2941 0287 05       		.uleb128 0x5
 2942 0288 00000000 		.long	.LASF48
 2943 028c B0       		.byte	0xb0
 2944 028d 07       		.byte	0x7
 2945 028e 37       		.byte	0x37
 2946 028f CE030000 		.long	0x3ce
GAS LISTING /tmp/ccf9IsGZ.s 			page 80


 2947 0293 06       		.uleb128 0x6
 2948 0294 00000000 		.long	.LASF49
 2949 0298 07       		.byte	0x7
 2950 0299 3A       		.byte	0x3a
 2951 029a 48020000 		.long	0x248
 2952 029e 02       		.byte	0x2
 2953 029f 23       		.byte	0x23
 2954 02a0 00       		.uleb128 0x0
 2955 02a1 06       		.uleb128 0x6
 2956 02a2 00000000 		.long	.LASF50
 2957 02a6 07       		.byte	0x7
 2958 02a7 3E       		.byte	0x3e
 2959 02a8 E4030000 		.long	0x3e4
 2960 02ac 02       		.byte	0x2
 2961 02ad 23       		.byte	0x23
 2962 02ae 08       		.uleb128 0x8
 2963 02af 06       		.uleb128 0x6
 2964 02b0 00000000 		.long	.LASF51
 2965 02b4 07       		.byte	0x7
 2966 02b5 40       		.byte	0x40
 2967 02b6 04040000 		.long	0x404
 2968 02ba 02       		.byte	0x2
 2969 02bb 23       		.byte	0x23
 2970 02bc 10       		.uleb128 0x10
 2971 02bd 06       		.uleb128 0x6
 2972 02be 00000000 		.long	.LASF52
 2973 02c2 07       		.byte	0x7
 2974 02c3 44       		.byte	0x44
 2975 02c4 04040000 		.long	0x404
 2976 02c8 02       		.byte	0x2
 2977 02c9 23       		.byte	0x23
 2978 02ca 18       		.uleb128 0x18
 2979 02cb 06       		.uleb128 0x6
 2980 02cc 00000000 		.long	.LASF53
 2981 02d0 07       		.byte	0x7
 2982 02d1 48       		.byte	0x48
 2983 02d2 26040000 		.long	0x426
 2984 02d6 02       		.byte	0x2
 2985 02d7 23       		.byte	0x23
 2986 02d8 20       		.uleb128 0x20
 2987 02d9 06       		.uleb128 0x6
 2988 02da 00000000 		.long	.LASF54
 2989 02de 07       		.byte	0x7
 2990 02df 4B       		.byte	0x4b
 2991 02e0 26040000 		.long	0x426
 2992 02e4 02       		.byte	0x2
 2993 02e5 23       		.byte	0x23
 2994 02e6 28       		.uleb128 0x28
 2995 02e7 06       		.uleb128 0x6
 2996 02e8 00000000 		.long	.LASF55
 2997 02ec 07       		.byte	0x7
 2998 02ed 4E       		.byte	0x4e
 2999 02ee 41040000 		.long	0x441
 3000 02f2 02       		.byte	0x2
 3001 02f3 23       		.byte	0x23
 3002 02f4 30       		.uleb128 0x30
 3003 02f5 06       		.uleb128 0x6
GAS LISTING /tmp/ccf9IsGZ.s 			page 81


 3004 02f6 00000000 		.long	.LASF56
 3005 02fa 07       		.byte	0x7
 3006 02fb 51       		.byte	0x51
 3007 02fc 41040000 		.long	0x441
 3008 0300 02       		.byte	0x2
 3009 0301 23       		.byte	0x23
 3010 0302 38       		.uleb128 0x38
 3011 0303 06       		.uleb128 0x6
 3012 0304 00000000 		.long	.LASF57
 3013 0308 07       		.byte	0x7
 3014 0309 55       		.byte	0x55
 3015 030a 6C040000 		.long	0x46c
 3016 030e 02       		.byte	0x2
 3017 030f 23       		.byte	0x23
 3018 0310 40       		.uleb128 0x40
 3019 0311 06       		.uleb128 0x6
 3020 0312 00000000 		.long	.LASF58
 3021 0316 07       		.byte	0x7
 3022 0317 58       		.byte	0x58
 3023 0318 6C040000 		.long	0x46c
 3024 031c 02       		.byte	0x2
 3025 031d 23       		.byte	0x23
 3026 031e 48       		.uleb128 0x48
 3027 031f 06       		.uleb128 0x6
 3028 0320 00000000 		.long	.LASF59
 3029 0324 07       		.byte	0x7
 3030 0325 5D       		.byte	0x5d
 3031 0326 91040000 		.long	0x491
 3032 032a 02       		.byte	0x2
 3033 032b 23       		.byte	0x23
 3034 032c 50       		.uleb128 0x50
 3035 032d 06       		.uleb128 0x6
 3036 032e 00000000 		.long	.LASF60
 3037 0332 07       		.byte	0x7
 3038 0333 62       		.byte	0x62
 3039 0334 91040000 		.long	0x491
 3040 0338 02       		.byte	0x2
 3041 0339 23       		.byte	0x23
 3042 033a 58       		.uleb128 0x58
 3043 033b 06       		.uleb128 0x6
 3044 033c 00000000 		.long	.LASF61
 3045 0340 07       		.byte	0x7
 3046 0341 68       		.byte	0x68
 3047 0342 B6040000 		.long	0x4b6
 3048 0346 02       		.byte	0x2
 3049 0347 23       		.byte	0x23
 3050 0348 60       		.uleb128 0x60
 3051 0349 06       		.uleb128 0x6
 3052 034a 00000000 		.long	.LASF62
 3053 034e 07       		.byte	0x7
 3054 034f 6C       		.byte	0x6c
 3055 0350 B6040000 		.long	0x4b6
 3056 0354 02       		.byte	0x2
 3057 0355 23       		.byte	0x23
 3058 0356 68       		.uleb128 0x68
 3059 0357 06       		.uleb128 0x6
 3060 0358 00000000 		.long	.LASF63
GAS LISTING /tmp/ccf9IsGZ.s 			page 82


 3061 035c 07       		.byte	0x7
 3062 035d 72       		.byte	0x72
 3063 035e B6040000 		.long	0x4b6
 3064 0362 02       		.byte	0x2
 3065 0363 23       		.byte	0x23
 3066 0364 70       		.uleb128 0x70
 3067 0365 06       		.uleb128 0x6
 3068 0366 00000000 		.long	.LASF64
 3069 036a 07       		.byte	0x7
 3070 036b 74       		.byte	0x74
 3071 036c B6040000 		.long	0x4b6
 3072 0370 02       		.byte	0x2
 3073 0371 23       		.byte	0x23
 3074 0372 78       		.uleb128 0x78
 3075 0373 06       		.uleb128 0x6
 3076 0374 00000000 		.long	.LASF65
 3077 0378 07       		.byte	0x7
 3078 0379 78       		.byte	0x78
 3079 037a B6040000 		.long	0x4b6
 3080 037e 03       		.byte	0x3
 3081 037f 23       		.byte	0x23
 3082 0380 8001     		.uleb128 0x80
 3083 0382 06       		.uleb128 0x6
 3084 0383 00000000 		.long	.LASF66
 3085 0387 07       		.byte	0x7
 3086 0388 7A       		.byte	0x7a
 3087 0389 B6040000 		.long	0x4b6
 3088 038d 03       		.byte	0x3
 3089 038e 23       		.byte	0x23
 3090 038f 8801     		.uleb128 0x88
 3091 0391 06       		.uleb128 0x6
 3092 0392 00000000 		.long	.LASF67
 3093 0396 07       		.byte	0x7
 3094 0397 7E       		.byte	0x7e
 3095 0398 B6040000 		.long	0x4b6
 3096 039c 03       		.byte	0x3
 3097 039d 23       		.byte	0x23
 3098 039e 9001     		.uleb128 0x90
 3099 03a0 06       		.uleb128 0x6
 3100 03a1 00000000 		.long	.LASF68
 3101 03a5 07       		.byte	0x7
 3102 03a6 80       		.byte	0x80
 3103 03a7 B6040000 		.long	0x4b6
 3104 03ab 03       		.byte	0x3
 3105 03ac 23       		.byte	0x23
 3106 03ad 9801     		.uleb128 0x98
 3107 03af 06       		.uleb128 0x6
 3108 03b0 00000000 		.long	.LASF69
 3109 03b4 07       		.byte	0x7
 3110 03b5 84       		.byte	0x84
 3111 03b6 B6040000 		.long	0x4b6
 3112 03ba 03       		.byte	0x3
 3113 03bb 23       		.byte	0x23
 3114 03bc A001     		.uleb128 0xa0
 3115 03be 06       		.uleb128 0x6
 3116 03bf 00000000 		.long	.LASF70
 3117 03c3 07       		.byte	0x7
GAS LISTING /tmp/ccf9IsGZ.s 			page 83


 3118 03c4 86       		.byte	0x86
 3119 03c5 B6040000 		.long	0x4b6
 3120 03c9 03       		.byte	0x3
 3121 03ca 23       		.byte	0x23
 3122 03cb A801     		.uleb128 0xa8
 3123 03cd 00       		.byte	0x0
 3124 03ce 11       		.uleb128 0x11
 3125 03cf 01       		.byte	0x1
 3126 03d0 7B000000 		.long	0x7b
 3127 03d4 DE030000 		.long	0x3de
 3128 03d8 10       		.uleb128 0x10
 3129 03d9 DE030000 		.long	0x3de
 3130 03dd 00       		.byte	0x0
 3131 03de 0A       		.uleb128 0xa
 3132 03df 08       		.byte	0x8
 3133 03e0 14020000 		.long	0x214
 3134 03e4 0A       		.uleb128 0xa
 3135 03e5 08       		.byte	0x8
 3136 03e6 CE030000 		.long	0x3ce
 3137 03ea 11       		.uleb128 0x11
 3138 03eb 01       		.byte	0x1
 3139 03ec 7B000000 		.long	0x7b
 3140 03f0 04040000 		.long	0x404
 3141 03f4 10       		.uleb128 0x10
 3142 03f5 DE030000 		.long	0x3de
 3143 03f9 10       		.uleb128 0x10
 3144 03fa B6000000 		.long	0xb6
 3145 03fe 10       		.uleb128 0x10
 3146 03ff 62000000 		.long	0x62
 3147 0403 00       		.byte	0x0
 3148 0404 0A       		.uleb128 0xa
 3149 0405 08       		.byte	0x8
 3150 0406 EA030000 		.long	0x3ea
 3151 040a 11       		.uleb128 0x11
 3152 040b 01       		.byte	0x1
 3153 040c 7B000000 		.long	0x7b
 3154 0410 1F040000 		.long	0x41f
 3155 0414 10       		.uleb128 0x10
 3156 0415 DE030000 		.long	0x3de
 3157 0419 10       		.uleb128 0x10
 3158 041a 1F040000 		.long	0x41f
 3159 041e 00       		.byte	0x0
 3160 041f 0A       		.uleb128 0xa
 3161 0420 08       		.byte	0x8
 3162 0421 25040000 		.long	0x425
 3163 0425 12       		.uleb128 0x12
 3164 0426 0A       		.uleb128 0xa
 3165 0427 08       		.byte	0x8
 3166 0428 0A040000 		.long	0x40a
 3167 042c 11       		.uleb128 0x11
 3168 042d 01       		.byte	0x1
 3169 042e 7B000000 		.long	0x7b
 3170 0432 41040000 		.long	0x441
 3171 0436 10       		.uleb128 0x10
 3172 0437 DE030000 		.long	0x3de
 3173 043b 10       		.uleb128 0x10
 3174 043c F7010000 		.long	0x1f7
GAS LISTING /tmp/ccf9IsGZ.s 			page 84


 3175 0440 00       		.byte	0x0
 3176 0441 0A       		.uleb128 0xa
 3177 0442 08       		.byte	0x8
 3178 0443 2C040000 		.long	0x42c
 3179 0447 11       		.uleb128 0x11
 3180 0448 01       		.byte	0x1
 3181 0449 7B000000 		.long	0x7b
 3182 044d 61040000 		.long	0x461
 3183 0451 10       		.uleb128 0x10
 3184 0452 61040000 		.long	0x461
 3185 0456 10       		.uleb128 0x10
 3186 0457 1F040000 		.long	0x41f
 3187 045b 10       		.uleb128 0x10
 3188 045c B4000000 		.long	0xb4
 3189 0460 00       		.byte	0x0
 3190 0461 0A       		.uleb128 0xa
 3191 0462 08       		.byte	0x8
 3192 0463 67040000 		.long	0x467
 3193 0467 0B       		.uleb128 0xb
 3194 0468 14020000 		.long	0x214
 3195 046c 0A       		.uleb128 0xa
 3196 046d 08       		.byte	0x8
 3197 046e 47040000 		.long	0x447
 3198 0472 11       		.uleb128 0x11
 3199 0473 01       		.byte	0x1
 3200 0474 7B000000 		.long	0x7b
 3201 0478 91040000 		.long	0x491
 3202 047c 10       		.uleb128 0x10
 3203 047d 61040000 		.long	0x461
 3204 0481 10       		.uleb128 0x10
 3205 0482 1F040000 		.long	0x41f
 3206 0486 10       		.uleb128 0x10
 3207 0487 B4000000 		.long	0xb4
 3208 048b 10       		.uleb128 0x10
 3209 048c 62000000 		.long	0x62
 3210 0490 00       		.byte	0x0
 3211 0491 0A       		.uleb128 0xa
 3212 0492 08       		.byte	0x8
 3213 0493 72040000 		.long	0x472
 3214 0497 11       		.uleb128 0x11
 3215 0498 01       		.byte	0x1
 3216 0499 7B000000 		.long	0x7b
 3217 049d B6040000 		.long	0x4b6
 3218 04a1 10       		.uleb128 0x10
 3219 04a2 DE030000 		.long	0x3de
 3220 04a6 10       		.uleb128 0x10
 3221 04a7 1F040000 		.long	0x41f
 3222 04ab 10       		.uleb128 0x10
 3223 04ac B4000000 		.long	0xb4
 3224 04b0 10       		.uleb128 0x10
 3225 04b1 62000000 		.long	0x62
 3226 04b5 00       		.byte	0x0
 3227 04b6 0A       		.uleb128 0xa
 3228 04b7 08       		.byte	0x8
 3229 04b8 97040000 		.long	0x497
 3230 04bc 04       		.uleb128 0x4
 3231 04bd 00000000 		.long	.LASF71
GAS LISTING /tmp/ccf9IsGZ.s 			page 85


 3232 04c1 07       		.byte	0x7
 3233 04c2 90       		.byte	0x90
 3234 04c3 C7040000 		.long	0x4c7
 3235 04c7 13       		.uleb128 0x13
 3236 04c8 00000000 		.long	.LASF71
 3237 04cc 08       		.byte	0x8
 3238 04cd 07       		.byte	0x7
 3239 04ce 90       		.byte	0x90
 3240 04cf E9040000 		.long	0x4e9
 3241 04d3 14       		.uleb128 0x14
 3242 04d4 00000000 		.long	.LASF49
 3243 04d8 07       		.byte	0x7
 3244 04d9 93       		.byte	0x93
 3245 04da E9040000 		.long	0x4e9
 3246 04de 15       		.uleb128 0x15
 3247 04df 763100   		.string	"v1"
 3248 04e2 07       		.byte	0x7
 3249 04e3 94       		.byte	0x94
 3250 04e4 F4040000 		.long	0x4f4
 3251 04e8 00       		.byte	0x0
 3252 04e9 0A       		.uleb128 0xa
 3253 04ea 08       		.byte	0x8
 3254 04eb EF040000 		.long	0x4ef
 3255 04ef 0B       		.uleb128 0xb
 3256 04f0 48020000 		.long	0x248
 3257 04f4 0A       		.uleb128 0xa
 3258 04f5 08       		.byte	0x8
 3259 04f6 FA040000 		.long	0x4fa
 3260 04fa 0B       		.uleb128 0xb
 3261 04fb 7C020000 		.long	0x27c
 3262 04ff 02       		.uleb128 0x2
 3263 0500 08       		.byte	0x8
 3264 0501 05       		.byte	0x5
 3265 0502 00000000 		.long	.LASF72
 3266 0506 02       		.uleb128 0x2
 3267 0507 04       		.byte	0x4
 3268 0508 04       		.byte	0x4
 3269 0509 00000000 		.long	.LASF73
 3270 050d 0A       		.uleb128 0xa
 3271 050e 08       		.byte	0x8
 3272 050f C1000000 		.long	0xc1
 3273 0513 02       		.uleb128 0x2
 3274 0514 08       		.byte	0x8
 3275 0515 07       		.byte	0x7
 3276 0516 00000000 		.long	.LASF74
 3277 051a 02       		.uleb128 0x2
 3278 051b 08       		.byte	0x8
 3279 051c 04       		.byte	0x4
 3280 051d 00000000 		.long	.LASF75
 3281 0521 04       		.uleb128 0x4
 3282 0522 00000000 		.long	.LASF76
 3283 0526 08       		.byte	0x8
 3284 0527 26       		.byte	0x26
 3285 0528 2C050000 		.long	0x52c
 3286 052c 16       		.uleb128 0x16
 3287 052d 01       		.byte	0x1
 3288 052e 49000000 		.long	0x49
GAS LISTING /tmp/ccf9IsGZ.s 			page 86


 3289 0532 3D050000 		.long	0x53d
 3290 0536 17       		.uleb128 0x17
 3291 0537 B1000000 		.long	0xb1
 3292 053b 0F       		.byte	0xf
 3293 053c 00       		.byte	0x0
 3294 053d 04       		.uleb128 0x4
 3295 053e 00000000 		.long	.LASF77
 3296 0542 09       		.byte	0x9
 3297 0543 3B       		.byte	0x3b
 3298 0544 21050000 		.long	0x521
 3299 0548 04       		.uleb128 0x4
 3300 0549 00000000 		.long	.LASF78
 3301 054d 09       		.byte	0x9
 3302 054e 43       		.byte	0x43
 3303 054f 53050000 		.long	0x553
 3304 0553 05       		.uleb128 0x5
 3305 0554 00000000 		.long	.LASF78
 3306 0558 08       		.byte	0x8
 3307 0559 09       		.byte	0x9
 3308 055a 43       		.byte	0x43
 3309 055b 7C050000 		.long	0x57c
 3310 055f 0E       		.uleb128 0xe
 3311 0560 6D616A00 		.string	"maj"
 3312 0564 09       		.byte	0x9
 3313 0565 46       		.byte	0x46
 3314 0566 62000000 		.long	0x62
 3315 056a 02       		.byte	0x2
 3316 056b 23       		.byte	0x23
 3317 056c 00       		.uleb128 0x0
 3318 056d 0E       		.uleb128 0xe
 3319 056e 6D696E00 		.string	"min"
 3320 0572 09       		.byte	0x9
 3321 0573 47       		.byte	0x47
 3322 0574 62000000 		.long	0x62
 3323 0578 02       		.byte	0x2
 3324 0579 23       		.byte	0x23
 3325 057a 04       		.uleb128 0x4
 3326 057b 00       		.byte	0x0
 3327 057c 04       		.uleb128 0x4
 3328 057d 00000000 		.long	.LASF79
 3329 0581 09       		.byte	0x9
 3330 0582 52       		.byte	0x52
 3331 0583 87050000 		.long	0x587
 3332 0587 05       		.uleb128 0x5
 3333 0588 00000000 		.long	.LASF79
 3334 058c 40       		.byte	0x40
 3335 058d 09       		.byte	0x9
 3336 058e 52       		.byte	0x52
 3337 058f 04060000 		.long	0x604
 3338 0593 06       		.uleb128 0x6
 3339 0594 00000000 		.long	.LASF49
 3340 0598 09       		.byte	0x9
 3341 0599 5E       		.byte	0x5e
 3342 059a 48050000 		.long	0x548
 3343 059e 02       		.byte	0x2
 3344 059f 23       		.byte	0x23
 3345 05a0 00       		.uleb128 0x0
GAS LISTING /tmp/ccf9IsGZ.s 			page 87


 3346 05a1 06       		.uleb128 0x6
 3347 05a2 00000000 		.long	.LASF50
 3348 05a6 09       		.byte	0x9
 3349 05a7 63       		.byte	0x63
 3350 05a8 48060000 		.long	0x648
 3351 05ac 02       		.byte	0x2
 3352 05ad 23       		.byte	0x23
 3353 05ae 08       		.uleb128 0x8
 3354 05af 06       		.uleb128 0x6
 3355 05b0 00000000 		.long	.LASF36
 3356 05b4 09       		.byte	0x9
 3357 05b5 65       		.byte	0x65
 3358 05b6 59060000 		.long	0x659
 3359 05ba 02       		.byte	0x2
 3360 05bb 23       		.byte	0x23
 3361 05bc 10       		.uleb128 0x10
 3362 05bd 06       		.uleb128 0x6
 3363 05be 00000000 		.long	.LASF80
 3364 05c2 09       		.byte	0x9
 3365 05c3 67       		.byte	0x67
 3366 05c4 59060000 		.long	0x659
 3367 05c8 02       		.byte	0x2
 3368 05c9 23       		.byte	0x23
 3369 05ca 18       		.uleb128 0x18
 3370 05cb 06       		.uleb128 0x6
 3371 05cc 00000000 		.long	.LASF51
 3372 05d0 09       		.byte	0x9
 3373 05d1 69       		.byte	0x69
 3374 05d2 79060000 		.long	0x679
 3375 05d6 02       		.byte	0x2
 3376 05d7 23       		.byte	0x23
 3377 05d8 20       		.uleb128 0x20
 3378 05d9 06       		.uleb128 0x6
 3379 05da 00000000 		.long	.LASF52
 3380 05de 09       		.byte	0x9
 3381 05df 6D       		.byte	0x6d
 3382 05e0 79060000 		.long	0x679
 3383 05e4 02       		.byte	0x2
 3384 05e5 23       		.byte	0x23
 3385 05e6 28       		.uleb128 0x28
 3386 05e7 06       		.uleb128 0x6
 3387 05e8 00000000 		.long	.LASF57
 3388 05ec 09       		.byte	0x9
 3389 05ed 71       		.byte	0x71
 3390 05ee 95060000 		.long	0x695
 3391 05f2 02       		.byte	0x2
 3392 05f3 23       		.byte	0x23
 3393 05f4 30       		.uleb128 0x30
 3394 05f5 06       		.uleb128 0x6
 3395 05f6 00000000 		.long	.LASF58
 3396 05fa 09       		.byte	0x9
 3397 05fb 75       		.byte	0x75
 3398 05fc 95060000 		.long	0x695
 3399 0600 02       		.byte	0x2
 3400 0601 23       		.byte	0x23
 3401 0602 38       		.uleb128 0x38
 3402 0603 00       		.byte	0x0
GAS LISTING /tmp/ccf9IsGZ.s 			page 88


 3403 0604 04       		.uleb128 0x4
 3404 0605 00000000 		.long	.LASF81
 3405 0609 09       		.byte	0x9
 3406 060a 53       		.byte	0x53
 3407 060b 0F060000 		.long	0x60f
 3408 060f 13       		.uleb128 0x13
 3409 0610 00000000 		.long	.LASF81
 3410 0614 40       		.byte	0x40
 3411 0615 09       		.byte	0x9
 3412 0616 53       		.byte	0x53
 3413 0617 31060000 		.long	0x631
 3414 061b 14       		.uleb128 0x14
 3415 061c 00000000 		.long	.LASF49
 3416 0620 09       		.byte	0x9
 3417 0621 7F       		.byte	0x7f
 3418 0622 48050000 		.long	0x548
 3419 0626 15       		.uleb128 0x15
 3420 0627 763100   		.string	"v1"
 3421 062a 09       		.byte	0x9
 3422 062b 80       		.byte	0x80
 3423 062c 7C050000 		.long	0x57c
 3424 0630 00       		.byte	0x0
 3425 0631 0F       		.uleb128 0xf
 3426 0632 01       		.byte	0x1
 3427 0633 3D060000 		.long	0x63d
 3428 0637 10       		.uleb128 0x10
 3429 0638 3D060000 		.long	0x63d
 3430 063c 00       		.byte	0x0
 3431 063d 0A       		.uleb128 0xa
 3432 063e 08       		.byte	0x8
 3433 063f 43060000 		.long	0x643
 3434 0643 0B       		.uleb128 0xb
 3435 0644 04060000 		.long	0x604
 3436 0648 0A       		.uleb128 0xa
 3437 0649 08       		.byte	0x8
 3438 064a 31060000 		.long	0x631
 3439 064e 18       		.uleb128 0x18
 3440 064f 62000000 		.long	0x62
 3441 0653 59060000 		.long	0x659
 3442 0657 19       		.uleb128 0x19
 3443 0658 00       		.byte	0x0
 3444 0659 0A       		.uleb128 0xa
 3445 065a 08       		.byte	0x8
 3446 065b 4E060000 		.long	0x64e
 3447 065f 11       		.uleb128 0x11
 3448 0660 01       		.byte	0x1
 3449 0661 7B000000 		.long	0x7b
 3450 0665 79060000 		.long	0x679
 3451 0669 10       		.uleb128 0x10
 3452 066a B4000000 		.long	0xb4
 3453 066e 10       		.uleb128 0x10
 3454 066f B6000000 		.long	0xb6
 3455 0673 10       		.uleb128 0x10
 3456 0674 62000000 		.long	0x62
 3457 0678 00       		.byte	0x0
 3458 0679 0A       		.uleb128 0xa
 3459 067a 08       		.byte	0x8
GAS LISTING /tmp/ccf9IsGZ.s 			page 89


 3460 067b 5F060000 		.long	0x65f
 3461 067f 0F       		.uleb128 0xf
 3462 0680 01       		.byte	0x1
 3463 0681 95060000 		.long	0x695
 3464 0685 10       		.uleb128 0x10
 3465 0686 B6000000 		.long	0xb6
 3466 068a 10       		.uleb128 0x10
 3467 068b 0D050000 		.long	0x50d
 3468 068f 10       		.uleb128 0x10
 3469 0690 1F040000 		.long	0x41f
 3470 0694 00       		.byte	0x0
 3471 0695 0A       		.uleb128 0xa
 3472 0696 08       		.byte	0x8
 3473 0697 7F060000 		.long	0x67f
 3474 069b 04       		.uleb128 0x4
 3475 069c 00000000 		.long	.LASF82
 3476 06a0 09       		.byte	0x9
 3477 06a1 84       		.byte	0x84
 3478 06a2 A6060000 		.long	0x6a6
 3479 06a6 05       		.uleb128 0x5
 3480 06a7 00000000 		.long	.LASF82
 3481 06ab 40       		.byte	0x40
 3482 06ac 09       		.byte	0x9
 3483 06ad 84       		.byte	0x84
 3484 06ae 23070000 		.long	0x723
 3485 06b2 06       		.uleb128 0x6
 3486 06b3 00000000 		.long	.LASF49
 3487 06b7 09       		.byte	0x9
 3488 06b8 90       		.byte	0x90
 3489 06b9 48050000 		.long	0x548
 3490 06bd 02       		.byte	0x2
 3491 06be 23       		.byte	0x23
 3492 06bf 00       		.uleb128 0x0
 3493 06c0 06       		.uleb128 0x6
 3494 06c1 00000000 		.long	.LASF50
 3495 06c5 09       		.byte	0x9
 3496 06c6 95       		.byte	0x95
 3497 06c7 67070000 		.long	0x767
 3498 06cb 02       		.byte	0x2
 3499 06cc 23       		.byte	0x23
 3500 06cd 08       		.uleb128 0x8
 3501 06ce 06       		.uleb128 0x6
 3502 06cf 00000000 		.long	.LASF36
 3503 06d3 09       		.byte	0x9
 3504 06d4 97       		.byte	0x97
 3505 06d5 59060000 		.long	0x659
 3506 06d9 02       		.byte	0x2
 3507 06da 23       		.byte	0x23
 3508 06db 10       		.uleb128 0x10
 3509 06dc 06       		.uleb128 0x6
 3510 06dd 00000000 		.long	.LASF80
 3511 06e1 09       		.byte	0x9
 3512 06e2 99       		.byte	0x99
 3513 06e3 59060000 		.long	0x659
 3514 06e7 02       		.byte	0x2
 3515 06e8 23       		.byte	0x23
 3516 06e9 18       		.uleb128 0x18
GAS LISTING /tmp/ccf9IsGZ.s 			page 90


 3517 06ea 06       		.uleb128 0x6
 3518 06eb 00000000 		.long	.LASF51
 3519 06ef 09       		.byte	0x9
 3520 06f0 9B       		.byte	0x9b
 3521 06f1 79060000 		.long	0x679
 3522 06f5 02       		.byte	0x2
 3523 06f6 23       		.byte	0x23
 3524 06f7 20       		.uleb128 0x20
 3525 06f8 06       		.uleb128 0x6
 3526 06f9 00000000 		.long	.LASF52
 3527 06fd 09       		.byte	0x9
 3528 06fe 9F       		.byte	0x9f
 3529 06ff 79060000 		.long	0x679
 3530 0703 02       		.byte	0x2
 3531 0704 23       		.byte	0x23
 3532 0705 28       		.uleb128 0x28
 3533 0706 06       		.uleb128 0x6
 3534 0707 00000000 		.long	.LASF57
 3535 070b 09       		.byte	0x9
 3536 070c A3       		.byte	0xa3
 3537 070d 82070000 		.long	0x782
 3538 0711 02       		.byte	0x2
 3539 0712 23       		.byte	0x23
 3540 0713 30       		.uleb128 0x30
 3541 0714 06       		.uleb128 0x6
 3542 0715 00000000 		.long	.LASF58
 3543 0719 09       		.byte	0x9
 3544 071a A6       		.byte	0xa6
 3545 071b 82070000 		.long	0x782
 3546 071f 02       		.byte	0x2
 3547 0720 23       		.byte	0x23
 3548 0721 38       		.uleb128 0x38
 3549 0722 00       		.byte	0x0
 3550 0723 04       		.uleb128 0x4
 3551 0724 00000000 		.long	.LASF83
 3552 0728 09       		.byte	0x9
 3553 0729 85       		.byte	0x85
 3554 072a 2E070000 		.long	0x72e
 3555 072e 13       		.uleb128 0x13
 3556 072f 00000000 		.long	.LASF83
 3557 0733 40       		.byte	0x40
 3558 0734 09       		.byte	0x9
 3559 0735 85       		.byte	0x85
 3560 0736 50070000 		.long	0x750
 3561 073a 14       		.uleb128 0x14
 3562 073b 00000000 		.long	.LASF49
 3563 073f 09       		.byte	0x9
 3564 0740 AF       		.byte	0xaf
 3565 0741 48050000 		.long	0x548
 3566 0745 15       		.uleb128 0x15
 3567 0746 763100   		.string	"v1"
 3568 0749 09       		.byte	0x9
 3569 074a B0       		.byte	0xb0
 3570 074b 9B060000 		.long	0x69b
 3571 074f 00       		.byte	0x0
 3572 0750 0F       		.uleb128 0xf
 3573 0751 01       		.byte	0x1
GAS LISTING /tmp/ccf9IsGZ.s 			page 91


 3574 0752 5C070000 		.long	0x75c
 3575 0756 10       		.uleb128 0x10
 3576 0757 5C070000 		.long	0x75c
 3577 075b 00       		.byte	0x0
 3578 075c 0A       		.uleb128 0xa
 3579 075d 08       		.byte	0x8
 3580 075e 62070000 		.long	0x762
 3581 0762 0B       		.uleb128 0xb
 3582 0763 23070000 		.long	0x723
 3583 0767 0A       		.uleb128 0xa
 3584 0768 08       		.byte	0x8
 3585 0769 50070000 		.long	0x750
 3586 076d 11       		.uleb128 0x11
 3587 076e 01       		.byte	0x1
 3588 076f 3D050000 		.long	0x53d
 3589 0773 82070000 		.long	0x782
 3590 0777 10       		.uleb128 0x10
 3591 0778 3D050000 		.long	0x53d
 3592 077c 10       		.uleb128 0x10
 3593 077d 1F040000 		.long	0x41f
 3594 0781 00       		.byte	0x0
 3595 0782 0A       		.uleb128 0xa
 3596 0783 08       		.byte	0x8
 3597 0784 6D070000 		.long	0x76d
 3598 0788 04       		.uleb128 0x4
 3599 0789 00000000 		.long	.LASF84
 3600 078d 0A       		.byte	0xa
 3601 078e B0       		.byte	0xb0
 3602 078f 93070000 		.long	0x793
 3603 0793 1A       		.uleb128 0x1a
 3604 0794 00000000 		.long	.LASF84
 3605 0798 0001     		.value	0x100
 3606 079a 0A       		.byte	0xa
 3607 079b B0       		.byte	0xb0
 3608 079c BE070000 		.long	0x7be
 3609 07a0 06       		.uleb128 0x6
 3610 07a1 00000000 		.long	.LASF85
 3611 07a5 0A       		.byte	0xa
 3612 07a6 B3       		.byte	0xb3
 3613 07a7 BE070000 		.long	0x7be
 3614 07ab 02       		.byte	0x2
 3615 07ac 23       		.byte	0x23
 3616 07ad 00       		.uleb128 0x0
 3617 07ae 06       		.uleb128 0x6
 3618 07af 00000000 		.long	.LASF86
 3619 07b3 0A       		.byte	0xa
 3620 07b4 B4       		.byte	0xb4
 3621 07b5 62000000 		.long	0x62
 3622 07b9 03       		.byte	0x3
 3623 07ba 23       		.byte	0x23
 3624 07bb F001     		.uleb128 0xf0
 3625 07bd 00       		.byte	0x0
 3626 07be 1B       		.uleb128 0x1b
 3627 07bf 3D050000 		.long	0x53d
 3628 07c3 CE070000 		.long	0x7ce
 3629 07c7 17       		.uleb128 0x17
 3630 07c8 B1000000 		.long	0xb1
GAS LISTING /tmp/ccf9IsGZ.s 			page 92


 3631 07cc 0E       		.byte	0xe
 3632 07cd 00       		.byte	0x0
 3633 07ce 04       		.uleb128 0x4
 3634 07cf 00000000 		.long	.LASF87
 3635 07d3 0A       		.byte	0xa
 3636 07d4 D2       		.byte	0xd2
 3637 07d5 D9070000 		.long	0x7d9
 3638 07d9 1A       		.uleb128 0x1a
 3639 07da 00000000 		.long	.LASF87
 3640 07de 7002     		.value	0x270
 3641 07e0 0A       		.byte	0xa
 3642 07e1 D2       		.byte	0xd2
 3643 07e2 30080000 		.long	0x830
 3644 07e6 0E       		.uleb128 0xe
 3645 07e7 64616400 		.string	"dad"
 3646 07eb 0A       		.byte	0xa
 3647 07ec D5       		.byte	0xd5
 3648 07ed 54010000 		.long	0x154
 3649 07f1 02       		.byte	0x2
 3650 07f2 23       		.byte	0x23
 3651 07f3 00       		.uleb128 0x0
 3652 07f4 06       		.uleb128 0x6
 3653 07f5 00000000 		.long	.LASF88
 3654 07f9 0A       		.byte	0xa
 3655 07fa D6       		.byte	0xd6
 3656 07fb 88070000 		.long	0x788
 3657 07ff 02       		.byte	0x2
 3658 0800 23       		.byte	0x23
 3659 0801 50       		.uleb128 0x50
 3660 0802 06       		.uleb128 0x6
 3661 0803 00000000 		.long	.LASF89
 3662 0807 0A       		.byte	0xa
 3663 0808 D7       		.byte	0xd7
 3664 0809 88070000 		.long	0x788
 3665 080d 03       		.byte	0x3
 3666 080e 23       		.byte	0x23
 3667 080f D002     		.uleb128 0x150
 3668 0811 06       		.uleb128 0x6
 3669 0812 00000000 		.long	.LASF90
 3670 0816 0A       		.byte	0xa
 3671 0817 D8       		.byte	0xd8
 3672 0818 3D050000 		.long	0x53d
 3673 081c 03       		.byte	0x3
 3674 081d 23       		.byte	0x23
 3675 081e D004     		.uleb128 0x250
 3676 0820 06       		.uleb128 0x6
 3677 0821 00000000 		.long	.LASF91
 3678 0825 0A       		.byte	0xa
 3679 0826 D9       		.byte	0xd9
 3680 0827 3D050000 		.long	0x53d
 3681 082b 03       		.byte	0x3
 3682 082c 23       		.byte	0x23
 3683 082d E004     		.uleb128 0x260
 3684 082f 00       		.byte	0x0
 3685 0830 04       		.uleb128 0x4
 3686 0831 00000000 		.long	.LASF92
 3687 0835 0B       		.byte	0xb
GAS LISTING /tmp/ccf9IsGZ.s 			page 93


 3688 0836 29       		.byte	0x29
 3689 0837 3B080000 		.long	0x83b
 3690 083b 05       		.uleb128 0x5
 3691 083c 00000000 		.long	.LASF92
 3692 0840 70       		.byte	0x70
 3693 0841 0B       		.byte	0xb
 3694 0842 29       		.byte	0x29
 3695 0843 72080000 		.long	0x872
 3696 0847 0E       		.uleb128 0xe
 3697 0848 64616400 		.string	"dad"
 3698 084c 0B       		.byte	0xb
 3699 084d 2C       		.byte	0x2c
 3700 084e 54010000 		.long	0x154
 3701 0852 02       		.byte	0x2
 3702 0853 23       		.byte	0x23
 3703 0854 00       		.uleb128 0x0
 3704 0855 06       		.uleb128 0x6
 3705 0856 00000000 		.long	.LASF90
 3706 085a 0B       		.byte	0xb
 3707 085b 2D       		.byte	0x2d
 3708 085c 3D050000 		.long	0x53d
 3709 0860 02       		.byte	0x2
 3710 0861 23       		.byte	0x23
 3711 0862 50       		.uleb128 0x50
 3712 0863 06       		.uleb128 0x6
 3713 0864 00000000 		.long	.LASF91
 3714 0868 0B       		.byte	0xb
 3715 0869 2E       		.byte	0x2e
 3716 086a 3D050000 		.long	0x53d
 3717 086e 02       		.byte	0x2
 3718 086f 23       		.byte	0x23
 3719 0870 60       		.uleb128 0x60
 3720 0871 00       		.byte	0x0
 3721 0872 04       		.uleb128 0x4
 3722 0873 00000000 		.long	.LASF93
 3723 0877 0C       		.byte	0xc
 3724 0878 48       		.byte	0x48
 3725 0879 62000000 		.long	0x62
 3726 087d 0C       		.uleb128 0xc
 3727 087e 04       		.byte	0x4
 3728 087f 0C       		.byte	0xc
 3729 0880 4A       		.byte	0x4a
 3730 0881 98080000 		.long	0x898
 3731 0885 0D       		.uleb128 0xd
 3732 0886 00000000 		.long	.LASF94
 3733 088a 00       		.sleb128 0
 3734 088b 0D       		.uleb128 0xd
 3735 088c 00000000 		.long	.LASF95
 3736 0890 01       		.sleb128 1
 3737 0891 0D       		.uleb128 0xd
 3738 0892 00000000 		.long	.LASF96
 3739 0896 02       		.sleb128 2
 3740 0897 00       		.byte	0x0
 3741 0898 04       		.uleb128 0x4
 3742 0899 00000000 		.long	.LASF97
 3743 089d 0E       		.byte	0xe
 3744 089e 40       		.byte	0x40
GAS LISTING /tmp/ccf9IsGZ.s 			page 94


 3745 089f A3080000 		.long	0x8a3
 3746 08a3 13       		.uleb128 0x13
 3747 08a4 00000000 		.long	.LASF97
 3748 08a8 40       		.byte	0x40
 3749 08a9 0E       		.byte	0xe
 3750 08aa 40       		.byte	0x40
 3751 08ab C6080000 		.long	0x8c6
 3752 08af 14       		.uleb128 0x14
 3753 08b0 00000000 		.long	.LASF98
 3754 08b4 0E       		.byte	0xe
 3755 08b5 43       		.byte	0x43
 3756 08b6 04060000 		.long	0x604
 3757 08ba 15       		.uleb128 0x15
 3758 08bb 76656300 		.string	"vec"
 3759 08bf 0E       		.byte	0xe
 3760 08c0 44       		.byte	0x44
 3761 08c1 23070000 		.long	0x723
 3762 08c5 00       		.byte	0x0
 3763 08c6 1C       		.uleb128 0x1c
 3764 08c7 00000000 		.long	.LASF121
 3765 08cb 04       		.byte	0x4
 3766 08cc 0F       		.byte	0xf
 3767 08cd 5A       		.byte	0x5a
 3768 08ce 57090000 		.long	0x957
 3769 08d2 0D       		.uleb128 0xd
 3770 08d3 00000000 		.long	.LASF99
 3771 08d7 00       		.sleb128 0
 3772 08d8 0D       		.uleb128 0xd
 3773 08d9 00000000 		.long	.LASF100
 3774 08dd 01       		.sleb128 1
 3775 08de 0D       		.uleb128 0xd
 3776 08df 00000000 		.long	.LASF101
 3777 08e3 02       		.sleb128 2
 3778 08e4 0D       		.uleb128 0xd
 3779 08e5 00000000 		.long	.LASF102
 3780 08e9 03       		.sleb128 3
 3781 08ea 0D       		.uleb128 0xd
 3782 08eb 00000000 		.long	.LASF103
 3783 08ef 04       		.sleb128 4
 3784 08f0 0D       		.uleb128 0xd
 3785 08f1 00000000 		.long	.LASF104
 3786 08f5 05       		.sleb128 5
 3787 08f6 0D       		.uleb128 0xd
 3788 08f7 00000000 		.long	.LASF105
 3789 08fb 06       		.sleb128 6
 3790 08fc 0D       		.uleb128 0xd
 3791 08fd 00000000 		.long	.LASF106
 3792 0901 07       		.sleb128 7
 3793 0902 0D       		.uleb128 0xd
 3794 0903 00000000 		.long	.LASF107
 3795 0907 08       		.sleb128 8
 3796 0908 0D       		.uleb128 0xd
 3797 0909 00000000 		.long	.LASF108
 3798 090d 09       		.sleb128 9
 3799 090e 0D       		.uleb128 0xd
 3800 090f 00000000 		.long	.LASF109
 3801 0913 0A       		.sleb128 10
GAS LISTING /tmp/ccf9IsGZ.s 			page 95


 3802 0914 0D       		.uleb128 0xd
 3803 0915 00000000 		.long	.LASF110
 3804 0919 0B       		.sleb128 11
 3805 091a 0D       		.uleb128 0xd
 3806 091b 00000000 		.long	.LASF111
 3807 091f 0C       		.sleb128 12
 3808 0920 0D       		.uleb128 0xd
 3809 0921 00000000 		.long	.LASF112
 3810 0925 0D       		.sleb128 13
 3811 0926 0D       		.uleb128 0xd
 3812 0927 00000000 		.long	.LASF113
 3813 092b 0E       		.sleb128 14
 3814 092c 0D       		.uleb128 0xd
 3815 092d 00000000 		.long	.LASF114
 3816 0931 0E       		.sleb128 14
 3817 0932 0D       		.uleb128 0xd
 3818 0933 00000000 		.long	.LASF115
 3819 0937 0F       		.sleb128 15
 3820 0938 0D       		.uleb128 0xd
 3821 0939 00000000 		.long	.LASF116
 3822 093d 10       		.sleb128 16
 3823 093e 0D       		.uleb128 0xd
 3824 093f 00000000 		.long	.LASF117
 3825 0943 11       		.sleb128 17
 3826 0944 0D       		.uleb128 0xd
 3827 0945 00000000 		.long	.LASF118
 3828 0949 12       		.sleb128 18
 3829 094a 0D       		.uleb128 0xd
 3830 094b 00000000 		.long	.LASF119
 3831 094f 13       		.sleb128 19
 3832 0950 0D       		.uleb128 0xd
 3833 0951 00000000 		.long	.LASF120
 3834 0955 14       		.sleb128 20
 3835 0956 00       		.byte	0x0
 3836 0957 1C       		.uleb128 0x1c
 3837 0958 00000000 		.long	.LASF122
 3838 095c 04       		.byte	0x4
 3839 095d 0F       		.byte	0xf
 3840 095e 77       		.byte	0x77
 3841 095f DE0A0000 		.long	0xade
 3842 0963 0D       		.uleb128 0xd
 3843 0964 00000000 		.long	.LASF123
 3844 0968 00       		.sleb128 0
 3845 0969 0D       		.uleb128 0xd
 3846 096a 00000000 		.long	.LASF124
 3847 096e 01       		.sleb128 1
 3848 096f 0D       		.uleb128 0xd
 3849 0970 00000000 		.long	.LASF125
 3850 0974 02       		.sleb128 2
 3851 0975 0D       		.uleb128 0xd
 3852 0976 00000000 		.long	.LASF126
 3853 097a 03       		.sleb128 3
 3854 097b 0D       		.uleb128 0xd
 3855 097c 00000000 		.long	.LASF127
 3856 0980 04       		.sleb128 4
 3857 0981 0D       		.uleb128 0xd
 3858 0982 00000000 		.long	.LASF128
GAS LISTING /tmp/ccf9IsGZ.s 			page 96


 3859 0986 05       		.sleb128 5
 3860 0987 0D       		.uleb128 0xd
 3861 0988 00000000 		.long	.LASF129
 3862 098c 06       		.sleb128 6
 3863 098d 0D       		.uleb128 0xd
 3864 098e 00000000 		.long	.LASF130
 3865 0992 07       		.sleb128 7
 3866 0993 0D       		.uleb128 0xd
 3867 0994 00000000 		.long	.LASF131
 3868 0998 08       		.sleb128 8
 3869 0999 0D       		.uleb128 0xd
 3870 099a 00000000 		.long	.LASF132
 3871 099e 09       		.sleb128 9
 3872 099f 0D       		.uleb128 0xd
 3873 09a0 00000000 		.long	.LASF133
 3874 09a4 0A       		.sleb128 10
 3875 09a5 0D       		.uleb128 0xd
 3876 09a6 00000000 		.long	.LASF134
 3877 09aa 0B       		.sleb128 11
 3878 09ab 0D       		.uleb128 0xd
 3879 09ac 00000000 		.long	.LASF135
 3880 09b0 0C       		.sleb128 12
 3881 09b1 0D       		.uleb128 0xd
 3882 09b2 00000000 		.long	.LASF136
 3883 09b6 0D       		.sleb128 13
 3884 09b7 0D       		.uleb128 0xd
 3885 09b8 00000000 		.long	.LASF137
 3886 09bc 0E       		.sleb128 14
 3887 09bd 0D       		.uleb128 0xd
 3888 09be 00000000 		.long	.LASF138
 3889 09c2 0F       		.sleb128 15
 3890 09c3 0D       		.uleb128 0xd
 3891 09c4 00000000 		.long	.LASF139
 3892 09c8 10       		.sleb128 16
 3893 09c9 0D       		.uleb128 0xd
 3894 09ca 00000000 		.long	.LASF140
 3895 09ce 11       		.sleb128 17
 3896 09cf 0D       		.uleb128 0xd
 3897 09d0 00000000 		.long	.LASF141
 3898 09d4 12       		.sleb128 18
 3899 09d5 0D       		.uleb128 0xd
 3900 09d6 00000000 		.long	.LASF142
 3901 09da 13       		.sleb128 19
 3902 09db 0D       		.uleb128 0xd
 3903 09dc 00000000 		.long	.LASF143
 3904 09e0 14       		.sleb128 20
 3905 09e1 0D       		.uleb128 0xd
 3906 09e2 00000000 		.long	.LASF144
 3907 09e6 15       		.sleb128 21
 3908 09e7 0D       		.uleb128 0xd
 3909 09e8 00000000 		.long	.LASF145
 3910 09ec 16       		.sleb128 22
 3911 09ed 0D       		.uleb128 0xd
 3912 09ee 00000000 		.long	.LASF146
 3913 09f2 17       		.sleb128 23
 3914 09f3 0D       		.uleb128 0xd
 3915 09f4 00000000 		.long	.LASF147
GAS LISTING /tmp/ccf9IsGZ.s 			page 97


 3916 09f8 18       		.sleb128 24
 3917 09f9 0D       		.uleb128 0xd
 3918 09fa 00000000 		.long	.LASF148
 3919 09fe 19       		.sleb128 25
 3920 09ff 0D       		.uleb128 0xd
 3921 0a00 00000000 		.long	.LASF149
 3922 0a04 1A       		.sleb128 26
 3923 0a05 0D       		.uleb128 0xd
 3924 0a06 00000000 		.long	.LASF150
 3925 0a0a 1B       		.sleb128 27
 3926 0a0b 0D       		.uleb128 0xd
 3927 0a0c 00000000 		.long	.LASF151
 3928 0a10 1C       		.sleb128 28
 3929 0a11 0D       		.uleb128 0xd
 3930 0a12 00000000 		.long	.LASF152
 3931 0a16 1D       		.sleb128 29
 3932 0a17 0D       		.uleb128 0xd
 3933 0a18 00000000 		.long	.LASF153
 3934 0a1c 1E       		.sleb128 30
 3935 0a1d 0D       		.uleb128 0xd
 3936 0a1e 00000000 		.long	.LASF154
 3937 0a22 1F       		.sleb128 31
 3938 0a23 0D       		.uleb128 0xd
 3939 0a24 00000000 		.long	.LASF155
 3940 0a28 20       		.sleb128 32
 3941 0a29 0D       		.uleb128 0xd
 3942 0a2a 00000000 		.long	.LASF156
 3943 0a2e 21       		.sleb128 33
 3944 0a2f 0D       		.uleb128 0xd
 3945 0a30 00000000 		.long	.LASF157
 3946 0a34 22       		.sleb128 34
 3947 0a35 0D       		.uleb128 0xd
 3948 0a36 00000000 		.long	.LASF158
 3949 0a3a 23       		.sleb128 35
 3950 0a3b 0D       		.uleb128 0xd
 3951 0a3c 00000000 		.long	.LASF159
 3952 0a40 24       		.sleb128 36
 3953 0a41 0D       		.uleb128 0xd
 3954 0a42 00000000 		.long	.LASF160
 3955 0a46 25       		.sleb128 37
 3956 0a47 0D       		.uleb128 0xd
 3957 0a48 00000000 		.long	.LASF161
 3958 0a4c 26       		.sleb128 38
 3959 0a4d 0D       		.uleb128 0xd
 3960 0a4e 00000000 		.long	.LASF162
 3961 0a52 27       		.sleb128 39
 3962 0a53 0D       		.uleb128 0xd
 3963 0a54 00000000 		.long	.LASF163
 3964 0a58 28       		.sleb128 40
 3965 0a59 0D       		.uleb128 0xd
 3966 0a5a 00000000 		.long	.LASF164
 3967 0a5e 29       		.sleb128 41
 3968 0a5f 0D       		.uleb128 0xd
 3969 0a60 00000000 		.long	.LASF165
 3970 0a64 2A       		.sleb128 42
 3971 0a65 0D       		.uleb128 0xd
 3972 0a66 00000000 		.long	.LASF166
GAS LISTING /tmp/ccf9IsGZ.s 			page 98


 3973 0a6a 2B       		.sleb128 43
 3974 0a6b 0D       		.uleb128 0xd
 3975 0a6c 00000000 		.long	.LASF167
 3976 0a70 2C       		.sleb128 44
 3977 0a71 0D       		.uleb128 0xd
 3978 0a72 00000000 		.long	.LASF168
 3979 0a76 2D       		.sleb128 45
 3980 0a77 0D       		.uleb128 0xd
 3981 0a78 00000000 		.long	.LASF169
 3982 0a7c 2E       		.sleb128 46
 3983 0a7d 0D       		.uleb128 0xd
 3984 0a7e 00000000 		.long	.LASF170
 3985 0a82 2F       		.sleb128 47
 3986 0a83 0D       		.uleb128 0xd
 3987 0a84 00000000 		.long	.LASF171
 3988 0a88 30       		.sleb128 48
 3989 0a89 0D       		.uleb128 0xd
 3990 0a8a 00000000 		.long	.LASF172
 3991 0a8e 31       		.sleb128 49
 3992 0a8f 0D       		.uleb128 0xd
 3993 0a90 00000000 		.long	.LASF173
 3994 0a94 32       		.sleb128 50
 3995 0a95 0D       		.uleb128 0xd
 3996 0a96 00000000 		.long	.LASF174
 3997 0a9a 33       		.sleb128 51
 3998 0a9b 0D       		.uleb128 0xd
 3999 0a9c 00000000 		.long	.LASF175
 4000 0aa0 34       		.sleb128 52
 4001 0aa1 0D       		.uleb128 0xd
 4002 0aa2 00000000 		.long	.LASF176
 4003 0aa6 35       		.sleb128 53
 4004 0aa7 0D       		.uleb128 0xd
 4005 0aa8 00000000 		.long	.LASF177
 4006 0aac 36       		.sleb128 54
 4007 0aad 0D       		.uleb128 0xd
 4008 0aae 00000000 		.long	.LASF178
 4009 0ab2 36       		.sleb128 54
 4010 0ab3 0D       		.uleb128 0xd
 4011 0ab4 00000000 		.long	.LASF179
 4012 0ab8 37       		.sleb128 55
 4013 0ab9 0D       		.uleb128 0xd
 4014 0aba 00000000 		.long	.LASF180
 4015 0abe 38       		.sleb128 56
 4016 0abf 0D       		.uleb128 0xd
 4017 0ac0 00000000 		.long	.LASF181
 4018 0ac4 39       		.sleb128 57
 4019 0ac5 0D       		.uleb128 0xd
 4020 0ac6 00000000 		.long	.LASF182
 4021 0aca 3A       		.sleb128 58
 4022 0acb 0D       		.uleb128 0xd
 4023 0acc 00000000 		.long	.LASF183
 4024 0ad0 3B       		.sleb128 59
 4025 0ad1 0D       		.uleb128 0xd
 4026 0ad2 00000000 		.long	.LASF184
 4027 0ad6 3C       		.sleb128 60
 4028 0ad7 0D       		.uleb128 0xd
 4029 0ad8 00000000 		.long	.LASF185
GAS LISTING /tmp/ccf9IsGZ.s 			page 99


 4030 0adc 3D       		.sleb128 61
 4031 0add 00       		.byte	0x0
 4032 0ade 1C       		.uleb128 0x1c
 4033 0adf 00000000 		.long	.LASF186
 4034 0ae3 04       		.byte	0x4
 4035 0ae4 0F       		.byte	0xf
 4036 0ae5 BD       		.byte	0xbd
 4037 0ae6 940C0000 		.long	0xc94
 4038 0aea 0D       		.uleb128 0xd
 4039 0aeb 00000000 		.long	.LASF187
 4040 0aef 00       		.sleb128 0
 4041 0af0 0D       		.uleb128 0xd
 4042 0af1 00000000 		.long	.LASF188
 4043 0af5 01       		.sleb128 1
 4044 0af6 0D       		.uleb128 0xd
 4045 0af7 00000000 		.long	.LASF189
 4046 0afb 02       		.sleb128 2
 4047 0afc 0D       		.uleb128 0xd
 4048 0afd 00000000 		.long	.LASF190
 4049 0b01 03       		.sleb128 3
 4050 0b02 0D       		.uleb128 0xd
 4051 0b03 00000000 		.long	.LASF191
 4052 0b07 04       		.sleb128 4
 4053 0b08 0D       		.uleb128 0xd
 4054 0b09 00000000 		.long	.LASF192
 4055 0b0d 05       		.sleb128 5
 4056 0b0e 0D       		.uleb128 0xd
 4057 0b0f 00000000 		.long	.LASF193
 4058 0b13 06       		.sleb128 6
 4059 0b14 0D       		.uleb128 0xd
 4060 0b15 00000000 		.long	.LASF194
 4061 0b19 07       		.sleb128 7
 4062 0b1a 0D       		.uleb128 0xd
 4063 0b1b 00000000 		.long	.LASF195
 4064 0b1f 08       		.sleb128 8
 4065 0b20 0D       		.uleb128 0xd
 4066 0b21 00000000 		.long	.LASF196
 4067 0b25 09       		.sleb128 9
 4068 0b26 0D       		.uleb128 0xd
 4069 0b27 00000000 		.long	.LASF197
 4070 0b2b 0A       		.sleb128 10
 4071 0b2c 0D       		.uleb128 0xd
 4072 0b2d 00000000 		.long	.LASF198
 4073 0b31 0B       		.sleb128 11
 4074 0b32 0D       		.uleb128 0xd
 4075 0b33 00000000 		.long	.LASF199
 4076 0b37 0C       		.sleb128 12
 4077 0b38 0D       		.uleb128 0xd
 4078 0b39 00000000 		.long	.LASF200
 4079 0b3d 0D       		.sleb128 13
 4080 0b3e 0D       		.uleb128 0xd
 4081 0b3f 00000000 		.long	.LASF201
 4082 0b43 0E       		.sleb128 14
 4083 0b44 0D       		.uleb128 0xd
 4084 0b45 00000000 		.long	.LASF202
 4085 0b49 0F       		.sleb128 15
 4086 0b4a 0D       		.uleb128 0xd
GAS LISTING /tmp/ccf9IsGZ.s 			page 100


 4087 0b4b 00000000 		.long	.LASF203
 4088 0b4f 10       		.sleb128 16
 4089 0b50 0D       		.uleb128 0xd
 4090 0b51 00000000 		.long	.LASF204
 4091 0b55 11       		.sleb128 17
 4092 0b56 0D       		.uleb128 0xd
 4093 0b57 00000000 		.long	.LASF205
 4094 0b5b 12       		.sleb128 18
 4095 0b5c 0D       		.uleb128 0xd
 4096 0b5d 00000000 		.long	.LASF206
 4097 0b61 13       		.sleb128 19
 4098 0b62 0D       		.uleb128 0xd
 4099 0b63 00000000 		.long	.LASF207
 4100 0b67 14       		.sleb128 20
 4101 0b68 0D       		.uleb128 0xd
 4102 0b69 00000000 		.long	.LASF208
 4103 0b6d 15       		.sleb128 21
 4104 0b6e 0D       		.uleb128 0xd
 4105 0b6f 00000000 		.long	.LASF209
 4106 0b73 16       		.sleb128 22
 4107 0b74 0D       		.uleb128 0xd
 4108 0b75 00000000 		.long	.LASF210
 4109 0b79 17       		.sleb128 23
 4110 0b7a 0D       		.uleb128 0xd
 4111 0b7b 00000000 		.long	.LASF211
 4112 0b7f 18       		.sleb128 24
 4113 0b80 0D       		.uleb128 0xd
 4114 0b81 00000000 		.long	.LASF212
 4115 0b85 19       		.sleb128 25
 4116 0b86 0D       		.uleb128 0xd
 4117 0b87 00000000 		.long	.LASF213
 4118 0b8b 1A       		.sleb128 26
 4119 0b8c 0D       		.uleb128 0xd
 4120 0b8d 00000000 		.long	.LASF214
 4121 0b91 1B       		.sleb128 27
 4122 0b92 0D       		.uleb128 0xd
 4123 0b93 00000000 		.long	.LASF215
 4124 0b97 1C       		.sleb128 28
 4125 0b98 0D       		.uleb128 0xd
 4126 0b99 00000000 		.long	.LASF216
 4127 0b9d 1D       		.sleb128 29
 4128 0b9e 0D       		.uleb128 0xd
 4129 0b9f 00000000 		.long	.LASF217
 4130 0ba3 1E       		.sleb128 30
 4131 0ba4 0D       		.uleb128 0xd
 4132 0ba5 00000000 		.long	.LASF218
 4133 0ba9 1F       		.sleb128 31
 4134 0baa 0D       		.uleb128 0xd
 4135 0bab 00000000 		.long	.LASF219
 4136 0baf 20       		.sleb128 32
 4137 0bb0 0D       		.uleb128 0xd
 4138 0bb1 00000000 		.long	.LASF220
 4139 0bb5 21       		.sleb128 33
 4140 0bb6 0D       		.uleb128 0xd
 4141 0bb7 00000000 		.long	.LASF221
 4142 0bbb 22       		.sleb128 34
 4143 0bbc 0D       		.uleb128 0xd
GAS LISTING /tmp/ccf9IsGZ.s 			page 101


 4144 0bbd 00000000 		.long	.LASF222
 4145 0bc1 23       		.sleb128 35
 4146 0bc2 0D       		.uleb128 0xd
 4147 0bc3 00000000 		.long	.LASF223
 4148 0bc7 24       		.sleb128 36
 4149 0bc8 0D       		.uleb128 0xd
 4150 0bc9 00000000 		.long	.LASF224
 4151 0bcd 25       		.sleb128 37
 4152 0bce 0D       		.uleb128 0xd
 4153 0bcf 00000000 		.long	.LASF225
 4154 0bd3 26       		.sleb128 38
 4155 0bd4 0D       		.uleb128 0xd
 4156 0bd5 00000000 		.long	.LASF226
 4157 0bd9 27       		.sleb128 39
 4158 0bda 0D       		.uleb128 0xd
 4159 0bdb 00000000 		.long	.LASF227
 4160 0bdf 28       		.sleb128 40
 4161 0be0 0D       		.uleb128 0xd
 4162 0be1 00000000 		.long	.LASF228
 4163 0be5 29       		.sleb128 41
 4164 0be6 0D       		.uleb128 0xd
 4165 0be7 00000000 		.long	.LASF229
 4166 0beb 2A       		.sleb128 42
 4167 0bec 0D       		.uleb128 0xd
 4168 0bed 00000000 		.long	.LASF230
 4169 0bf1 2B       		.sleb128 43
 4170 0bf2 0D       		.uleb128 0xd
 4171 0bf3 00000000 		.long	.LASF231
 4172 0bf7 2C       		.sleb128 44
 4173 0bf8 0D       		.uleb128 0xd
 4174 0bf9 00000000 		.long	.LASF232
 4175 0bfd 2D       		.sleb128 45
 4176 0bfe 0D       		.uleb128 0xd
 4177 0bff 00000000 		.long	.LASF233
 4178 0c03 2E       		.sleb128 46
 4179 0c04 0D       		.uleb128 0xd
 4180 0c05 00000000 		.long	.LASF234
 4181 0c09 2F       		.sleb128 47
 4182 0c0a 0D       		.uleb128 0xd
 4183 0c0b 00000000 		.long	.LASF235
 4184 0c0f 30       		.sleb128 48
 4185 0c10 0D       		.uleb128 0xd
 4186 0c11 00000000 		.long	.LASF236
 4187 0c15 31       		.sleb128 49
 4188 0c16 0D       		.uleb128 0xd
 4189 0c17 00000000 		.long	.LASF237
 4190 0c1b 32       		.sleb128 50
 4191 0c1c 0D       		.uleb128 0xd
 4192 0c1d 00000000 		.long	.LASF238
 4193 0c21 33       		.sleb128 51
 4194 0c22 0D       		.uleb128 0xd
 4195 0c23 00000000 		.long	.LASF239
 4196 0c27 34       		.sleb128 52
 4197 0c28 0D       		.uleb128 0xd
 4198 0c29 00000000 		.long	.LASF240
 4199 0c2d 35       		.sleb128 53
 4200 0c2e 0D       		.uleb128 0xd
GAS LISTING /tmp/ccf9IsGZ.s 			page 102


 4201 0c2f 00000000 		.long	.LASF241
 4202 0c33 36       		.sleb128 54
 4203 0c34 0D       		.uleb128 0xd
 4204 0c35 00000000 		.long	.LASF242
 4205 0c39 37       		.sleb128 55
 4206 0c3a 0D       		.uleb128 0xd
 4207 0c3b 00000000 		.long	.LASF243
 4208 0c3f 38       		.sleb128 56
 4209 0c40 0D       		.uleb128 0xd
 4210 0c41 00000000 		.long	.LASF244
 4211 0c45 39       		.sleb128 57
 4212 0c46 0D       		.uleb128 0xd
 4213 0c47 00000000 		.long	.LASF245
 4214 0c4b 3A       		.sleb128 58
 4215 0c4c 0D       		.uleb128 0xd
 4216 0c4d 00000000 		.long	.LASF246
 4217 0c51 3A       		.sleb128 58
 4218 0c52 0D       		.uleb128 0xd
 4219 0c53 00000000 		.long	.LASF247
 4220 0c57 3B       		.sleb128 59
 4221 0c58 0D       		.uleb128 0xd
 4222 0c59 00000000 		.long	.LASF248
 4223 0c5d 3C       		.sleb128 60
 4224 0c5e 0D       		.uleb128 0xd
 4225 0c5f 00000000 		.long	.LASF249
 4226 0c63 3D       		.sleb128 61
 4227 0c64 0D       		.uleb128 0xd
 4228 0c65 00000000 		.long	.LASF250
 4229 0c69 3E       		.sleb128 62
 4230 0c6a 0D       		.uleb128 0xd
 4231 0c6b 00000000 		.long	.LASF251
 4232 0c6f 3F       		.sleb128 63
 4233 0c70 0D       		.uleb128 0xd
 4234 0c71 00000000 		.long	.LASF252
 4235 0c75 C000     		.sleb128 64
 4236 0c77 0D       		.uleb128 0xd
 4237 0c78 00000000 		.long	.LASF253
 4238 0c7c C100     		.sleb128 65
 4239 0c7e 0D       		.uleb128 0xd
 4240 0c7f 00000000 		.long	.LASF254
 4241 0c83 C200     		.sleb128 66
 4242 0c85 0D       		.uleb128 0xd
 4243 0c86 00000000 		.long	.LASF255
 4244 0c8a C300     		.sleb128 67
 4245 0c8c 0D       		.uleb128 0xd
 4246 0c8d 00000000 		.long	.LASF256
 4247 0c91 C400     		.sleb128 68
 4248 0c93 00       		.byte	0x0
 4249 0c94 1D       		.uleb128 0x1d
 4250 0c95 00000000 		.long	.LASF257
 4251 0c99 04       		.byte	0x4
 4252 0c9a 0F       		.byte	0xf
 4253 0c9b 0A01     		.value	0x10a
 4254 0c9d 930D0000 		.long	0xd93
 4255 0ca1 0D       		.uleb128 0xd
 4256 0ca2 00000000 		.long	.LASF258
 4257 0ca6 00       		.sleb128 0
GAS LISTING /tmp/ccf9IsGZ.s 			page 103


 4258 0ca7 0D       		.uleb128 0xd
 4259 0ca8 00000000 		.long	.LASF259
 4260 0cac 3D       		.sleb128 61
 4261 0cad 0D       		.uleb128 0xd
 4262 0cae 00000000 		.long	.LASF260
 4263 0cb2 3E       		.sleb128 62
 4264 0cb3 0D       		.uleb128 0xd
 4265 0cb4 00000000 		.long	.LASF261
 4266 0cb8 3F       		.sleb128 63
 4267 0cb9 0D       		.uleb128 0xd
 4268 0cba 00000000 		.long	.LASF262
 4269 0cbe C000     		.sleb128 64
 4270 0cc0 0D       		.uleb128 0xd
 4271 0cc1 00000000 		.long	.LASF263
 4272 0cc5 C100     		.sleb128 65
 4273 0cc7 0D       		.uleb128 0xd
 4274 0cc8 00000000 		.long	.LASF264
 4275 0ccc C200     		.sleb128 66
 4276 0cce 0D       		.uleb128 0xd
 4277 0ccf 00000000 		.long	.LASF265
 4278 0cd3 C300     		.sleb128 67
 4279 0cd5 0D       		.uleb128 0xd
 4280 0cd6 00000000 		.long	.LASF266
 4281 0cda C400     		.sleb128 68
 4282 0cdc 0D       		.uleb128 0xd
 4283 0cdd 00000000 		.long	.LASF267
 4284 0ce1 C500     		.sleb128 69
 4285 0ce3 0D       		.uleb128 0xd
 4286 0ce4 00000000 		.long	.LASF268
 4287 0ce8 C600     		.sleb128 70
 4288 0cea 0D       		.uleb128 0xd
 4289 0ceb 00000000 		.long	.LASF269
 4290 0cef C700     		.sleb128 71
 4291 0cf1 0D       		.uleb128 0xd
 4292 0cf2 00000000 		.long	.LASF270
 4293 0cf6 C800     		.sleb128 72
 4294 0cf8 0D       		.uleb128 0xd
 4295 0cf9 00000000 		.long	.LASF271
 4296 0cfd C900     		.sleb128 73
 4297 0cff 0D       		.uleb128 0xd
 4298 0d00 00000000 		.long	.LASF272
 4299 0d04 CA00     		.sleb128 74
 4300 0d06 0D       		.uleb128 0xd
 4301 0d07 00000000 		.long	.LASF273
 4302 0d0b CB00     		.sleb128 75
 4303 0d0d 0D       		.uleb128 0xd
 4304 0d0e 00000000 		.long	.LASF274
 4305 0d12 CC00     		.sleb128 76
 4306 0d14 0D       		.uleb128 0xd
 4307 0d15 00000000 		.long	.LASF275
 4308 0d19 CD00     		.sleb128 77
 4309 0d1b 0D       		.uleb128 0xd
 4310 0d1c 00000000 		.long	.LASF276
 4311 0d20 CE00     		.sleb128 78
 4312 0d22 0D       		.uleb128 0xd
 4313 0d23 00000000 		.long	.LASF277
 4314 0d27 CF00     		.sleb128 79
GAS LISTING /tmp/ccf9IsGZ.s 			page 104


 4315 0d29 0D       		.uleb128 0xd
 4316 0d2a 00000000 		.long	.LASF278
 4317 0d2e D000     		.sleb128 80
 4318 0d30 0D       		.uleb128 0xd
 4319 0d31 00000000 		.long	.LASF279
 4320 0d35 D100     		.sleb128 81
 4321 0d37 0D       		.uleb128 0xd
 4322 0d38 00000000 		.long	.LASF280
 4323 0d3c D100     		.sleb128 81
 4324 0d3e 0D       		.uleb128 0xd
 4325 0d3f 00000000 		.long	.LASF281
 4326 0d43 D200     		.sleb128 82
 4327 0d45 0D       		.uleb128 0xd
 4328 0d46 00000000 		.long	.LASF282
 4329 0d4a D300     		.sleb128 83
 4330 0d4c 0D       		.uleb128 0xd
 4331 0d4d 00000000 		.long	.LASF283
 4332 0d51 D400     		.sleb128 84
 4333 0d53 0D       		.uleb128 0xd
 4334 0d54 00000000 		.long	.LASF284
 4335 0d58 D500     		.sleb128 85
 4336 0d5a 0D       		.uleb128 0xd
 4337 0d5b 00000000 		.long	.LASF285
 4338 0d5f D600     		.sleb128 86
 4339 0d61 0D       		.uleb128 0xd
 4340 0d62 00000000 		.long	.LASF286
 4341 0d66 D700     		.sleb128 87
 4342 0d68 0D       		.uleb128 0xd
 4343 0d69 00000000 		.long	.LASF287
 4344 0d6d D800     		.sleb128 88
 4345 0d6f 0D       		.uleb128 0xd
 4346 0d70 00000000 		.long	.LASF288
 4347 0d74 D900     		.sleb128 89
 4348 0d76 0D       		.uleb128 0xd
 4349 0d77 00000000 		.long	.LASF289
 4350 0d7b DA00     		.sleb128 90
 4351 0d7d 0D       		.uleb128 0xd
 4352 0d7e 00000000 		.long	.LASF290
 4353 0d82 DB00     		.sleb128 91
 4354 0d84 0D       		.uleb128 0xd
 4355 0d85 00000000 		.long	.LASF291
 4356 0d89 DC00     		.sleb128 92
 4357 0d8b 0D       		.uleb128 0xd
 4358 0d8c 00000000 		.long	.LASF292
 4359 0d90 DD00     		.sleb128 93
 4360 0d92 00       		.byte	0x0
 4361 0d93 1D       		.uleb128 0x1d
 4362 0d94 00000000 		.long	.LASF293
 4363 0d98 04       		.byte	0x4
 4364 0d99 0F       		.byte	0xf
 4365 0d9a 3401     		.value	0x134
 4366 0d9c D30E0000 		.long	0xed3
 4367 0da0 0D       		.uleb128 0xd
 4368 0da1 00000000 		.long	.LASF294
 4369 0da5 00       		.sleb128 0
 4370 0da6 0D       		.uleb128 0xd
 4371 0da7 00000000 		.long	.LASF295
GAS LISTING /tmp/ccf9IsGZ.s 			page 105


 4372 0dab 01       		.sleb128 1
 4373 0dac 0D       		.uleb128 0xd
 4374 0dad 00000000 		.long	.LASF296
 4375 0db1 02       		.sleb128 2
 4376 0db2 0D       		.uleb128 0xd
 4377 0db3 00000000 		.long	.LASF297
 4378 0db7 03       		.sleb128 3
 4379 0db8 0D       		.uleb128 0xd
 4380 0db9 00000000 		.long	.LASF298
 4381 0dbd 04       		.sleb128 4
 4382 0dbe 0D       		.uleb128 0xd
 4383 0dbf 00000000 		.long	.LASF299
 4384 0dc3 05       		.sleb128 5
 4385 0dc4 0D       		.uleb128 0xd
 4386 0dc5 00000000 		.long	.LASF300
 4387 0dc9 06       		.sleb128 6
 4388 0dca 0D       		.uleb128 0xd
 4389 0dcb 00000000 		.long	.LASF301
 4390 0dcf 07       		.sleb128 7
 4391 0dd0 0D       		.uleb128 0xd
 4392 0dd1 00000000 		.long	.LASF302
 4393 0dd5 08       		.sleb128 8
 4394 0dd6 0D       		.uleb128 0xd
 4395 0dd7 00000000 		.long	.LASF303
 4396 0ddb 09       		.sleb128 9
 4397 0ddc 0D       		.uleb128 0xd
 4398 0ddd 00000000 		.long	.LASF304
 4399 0de1 0A       		.sleb128 10
 4400 0de2 0D       		.uleb128 0xd
 4401 0de3 00000000 		.long	.LASF305
 4402 0de7 0B       		.sleb128 11
 4403 0de8 0D       		.uleb128 0xd
 4404 0de9 00000000 		.long	.LASF306
 4405 0ded 0C       		.sleb128 12
 4406 0dee 0D       		.uleb128 0xd
 4407 0def 00000000 		.long	.LASF307
 4408 0df3 0D       		.sleb128 13
 4409 0df4 0D       		.uleb128 0xd
 4410 0df5 00000000 		.long	.LASF308
 4411 0df9 0E       		.sleb128 14
 4412 0dfa 0D       		.uleb128 0xd
 4413 0dfb 00000000 		.long	.LASF309
 4414 0dff 0F       		.sleb128 15
 4415 0e00 0D       		.uleb128 0xd
 4416 0e01 00000000 		.long	.LASF310
 4417 0e05 10       		.sleb128 16
 4418 0e06 0D       		.uleb128 0xd
 4419 0e07 00000000 		.long	.LASF311
 4420 0e0b 11       		.sleb128 17
 4421 0e0c 0D       		.uleb128 0xd
 4422 0e0d 00000000 		.long	.LASF312
 4423 0e11 12       		.sleb128 18
 4424 0e12 0D       		.uleb128 0xd
 4425 0e13 00000000 		.long	.LASF313
 4426 0e17 13       		.sleb128 19
 4427 0e18 0D       		.uleb128 0xd
 4428 0e19 00000000 		.long	.LASF314
GAS LISTING /tmp/ccf9IsGZ.s 			page 106


 4429 0e1d 14       		.sleb128 20
 4430 0e1e 0D       		.uleb128 0xd
 4431 0e1f 00000000 		.long	.LASF315
 4432 0e23 15       		.sleb128 21
 4433 0e24 0D       		.uleb128 0xd
 4434 0e25 00000000 		.long	.LASF316
 4435 0e29 16       		.sleb128 22
 4436 0e2a 0D       		.uleb128 0xd
 4437 0e2b 00000000 		.long	.LASF317
 4438 0e2f 17       		.sleb128 23
 4439 0e30 0D       		.uleb128 0xd
 4440 0e31 00000000 		.long	.LASF318
 4441 0e35 18       		.sleb128 24
 4442 0e36 0D       		.uleb128 0xd
 4443 0e37 00000000 		.long	.LASF319
 4444 0e3b 19       		.sleb128 25
 4445 0e3c 0D       		.uleb128 0xd
 4446 0e3d 00000000 		.long	.LASF320
 4447 0e41 1A       		.sleb128 26
 4448 0e42 0D       		.uleb128 0xd
 4449 0e43 00000000 		.long	.LASF321
 4450 0e47 1B       		.sleb128 27
 4451 0e48 0D       		.uleb128 0xd
 4452 0e49 00000000 		.long	.LASF322
 4453 0e4d 1C       		.sleb128 28
 4454 0e4e 0D       		.uleb128 0xd
 4455 0e4f 00000000 		.long	.LASF323
 4456 0e53 1D       		.sleb128 29
 4457 0e54 0D       		.uleb128 0xd
 4458 0e55 00000000 		.long	.LASF324
 4459 0e59 1E       		.sleb128 30
 4460 0e5a 0D       		.uleb128 0xd
 4461 0e5b 00000000 		.long	.LASF325
 4462 0e5f 1F       		.sleb128 31
 4463 0e60 0D       		.uleb128 0xd
 4464 0e61 00000000 		.long	.LASF326
 4465 0e65 20       		.sleb128 32
 4466 0e66 0D       		.uleb128 0xd
 4467 0e67 00000000 		.long	.LASF327
 4468 0e6b 21       		.sleb128 33
 4469 0e6c 0D       		.uleb128 0xd
 4470 0e6d 00000000 		.long	.LASF328
 4471 0e71 22       		.sleb128 34
 4472 0e72 0D       		.uleb128 0xd
 4473 0e73 00000000 		.long	.LASF329
 4474 0e77 23       		.sleb128 35
 4475 0e78 0D       		.uleb128 0xd
 4476 0e79 00000000 		.long	.LASF330
 4477 0e7d 24       		.sleb128 36
 4478 0e7e 0D       		.uleb128 0xd
 4479 0e7f 00000000 		.long	.LASF331
 4480 0e83 25       		.sleb128 37
 4481 0e84 0D       		.uleb128 0xd
 4482 0e85 00000000 		.long	.LASF332
 4483 0e89 26       		.sleb128 38
 4484 0e8a 0D       		.uleb128 0xd
 4485 0e8b 00000000 		.long	.LASF333
GAS LISTING /tmp/ccf9IsGZ.s 			page 107


 4486 0e8f 27       		.sleb128 39
 4487 0e90 0D       		.uleb128 0xd
 4488 0e91 00000000 		.long	.LASF334
 4489 0e95 28       		.sleb128 40
 4490 0e96 0D       		.uleb128 0xd
 4491 0e97 00000000 		.long	.LASF335
 4492 0e9b 29       		.sleb128 41
 4493 0e9c 0D       		.uleb128 0xd
 4494 0e9d 00000000 		.long	.LASF336
 4495 0ea1 29       		.sleb128 41
 4496 0ea2 0D       		.uleb128 0xd
 4497 0ea3 00000000 		.long	.LASF337
 4498 0ea7 2A       		.sleb128 42
 4499 0ea8 0D       		.uleb128 0xd
 4500 0ea9 00000000 		.long	.LASF338
 4501 0ead 2B       		.sleb128 43
 4502 0eae 0D       		.uleb128 0xd
 4503 0eaf 00000000 		.long	.LASF339
 4504 0eb3 2C       		.sleb128 44
 4505 0eb4 0D       		.uleb128 0xd
 4506 0eb5 00000000 		.long	.LASF340
 4507 0eb9 2D       		.sleb128 45
 4508 0eba 0D       		.uleb128 0xd
 4509 0ebb 00000000 		.long	.LASF341
 4510 0ebf 2E       		.sleb128 46
 4511 0ec0 0D       		.uleb128 0xd
 4512 0ec1 00000000 		.long	.LASF342
 4513 0ec5 2F       		.sleb128 47
 4514 0ec6 0D       		.uleb128 0xd
 4515 0ec7 00000000 		.long	.LASF343
 4516 0ecb 30       		.sleb128 48
 4517 0ecc 0D       		.uleb128 0xd
 4518 0ecd 00000000 		.long	.LASF344
 4519 0ed1 31       		.sleb128 49
 4520 0ed2 00       		.byte	0x0
 4521 0ed3 1E       		.uleb128 0x1e
 4522 0ed4 00000000 		.long	.LASF347
 4523 0ed8 01       		.byte	0x1
 4524 0ed9 49       		.byte	0x49
 4525 0eda 01       		.byte	0x1
 4526 0edb 3D050000 		.long	0x53d
 4527 0edf 00000000 		.quad	.LFB601
 4527      00000000 
 4528 0ee7 00000000 		.quad	.LFE601
 4528      00000000 
 4529 0eef 00000000 		.long	.LLST0
 4530 0ef3 130F0000 		.long	0xf13
 4531 0ef7 1F       		.uleb128 0x1f
 4532 0ef8 00000000 		.long	.LASF345
 4533 0efc 01       		.byte	0x1
 4534 0efd 49       		.byte	0x49
 4535 0efe 1F040000 		.long	0x41f
 4536 0f02 02       		.byte	0x2
 4537 0f03 91       		.byte	0x91
 4538 0f04 68       		.sleb128 -24
 4539 0f05 20       		.uleb128 0x20
 4540 0f06 637600   		.string	"cv"
GAS LISTING /tmp/ccf9IsGZ.s 			page 108


 4541 0f09 01       		.byte	0x1
 4542 0f0a 4C       		.byte	0x4c
 4543 0f0b 3D050000 		.long	0x53d
 4544 0f0f 02       		.byte	0x2
 4545 0f10 76       		.byte	0x76
 4546 0f11 60       		.sleb128 -32
 4547 0f12 00       		.byte	0x0
 4548 0f13 21       		.uleb128 0x21
 4549 0f14 00000000 		.long	.LASF395
 4550 0f18 01       		.byte	0x1
 4551 0f19 60       		.byte	0x60
 4552 0f1a 01       		.byte	0x1
 4553 0f1b 00000000 		.quad	.LFB602
 4553      00000000 
 4554 0f23 00000000 		.quad	.LFE602
 4554      00000000 
 4555 0f2b 00000000 		.long	.LLST1
 4556 0f2f 5D0F0000 		.long	0xf5d
 4557 0f33 22       		.uleb128 0x22
 4558 0f34 637600   		.string	"cv"
 4559 0f37 01       		.byte	0x1
 4560 0f38 60       		.byte	0x60
 4561 0f39 5D0F0000 		.long	0xf5d
 4562 0f3d 02       		.byte	0x2
 4563 0f3e 91       		.byte	0x91
 4564 0f3f 60       		.sleb128 -32
 4565 0f40 1F       		.uleb128 0x1f
 4566 0f41 00000000 		.long	.LASF346
 4567 0f45 01       		.byte	0x1
 4568 0f46 60       		.byte	0x60
 4569 0f47 B4000000 		.long	0xb4
 4570 0f4b 02       		.byte	0x2
 4571 0f4c 91       		.byte	0x91
 4572 0f4d 58       		.sleb128 -40
 4573 0f4e 20       		.uleb128 0x20
 4574 0f4f 72637600 		.string	"rcv"
 4575 0f53 01       		.byte	0x1
 4576 0f54 63       		.byte	0x63
 4577 0f55 3D050000 		.long	0x53d
 4578 0f59 02       		.byte	0x2
 4579 0f5a 76       		.byte	0x76
 4580 0f5b 50       		.sleb128 -48
 4581 0f5c 00       		.byte	0x0
 4582 0f5d 0B       		.uleb128 0xb
 4583 0f5e 3D050000 		.long	0x53d
 4584 0f62 1E       		.uleb128 0x1e
 4585 0f63 00000000 		.long	.LASF348
 4586 0f67 01       		.byte	0x1
 4587 0f68 6F       		.byte	0x6f
 4588 0f69 01       		.byte	0x1
 4589 0f6a 7B000000 		.long	0x7b
 4590 0f6e 00000000 		.quad	.LFB603
 4590      00000000 
 4591 0f76 00000000 		.quad	.LFE603
 4591      00000000 
 4592 0f7e 00000000 		.long	.LLST2
 4593 0f82 A20F0000 		.long	0xfa2
GAS LISTING /tmp/ccf9IsGZ.s 			page 109


 4594 0f86 1F       		.uleb128 0x1f
 4595 0f87 00000000 		.long	.LASF349
 4596 0f8b 01       		.byte	0x1
 4597 0f8c 6F       		.byte	0x6f
 4598 0f8d DE030000 		.long	0x3de
 4599 0f91 02       		.byte	0x2
 4600 0f92 91       		.byte	0x91
 4601 0f93 58       		.sleb128 -40
 4602 0f94 20       		.uleb128 0x20
 4603 0f95 726300   		.string	"rc"
 4604 0f98 01       		.byte	0x1
 4605 0f99 71       		.byte	0x71
 4606 0f9a 7B000000 		.long	0x7b
 4607 0f9e 02       		.byte	0x2
 4608 0f9f 91       		.byte	0x91
 4609 0fa0 6C       		.sleb128 -20
 4610 0fa1 00       		.byte	0x0
 4611 0fa2 1E       		.uleb128 0x1e
 4612 0fa3 00000000 		.long	.LASF350
 4613 0fa7 01       		.byte	0x1
 4614 0fa8 7C       		.byte	0x7c
 4615 0fa9 01       		.byte	0x1
 4616 0faa 7B000000 		.long	0x7b
 4617 0fae 00000000 		.quad	.LFB604
 4617      00000000 
 4618 0fb6 00000000 		.quad	.LFE604
 4618      00000000 
 4619 0fbe 00000000 		.long	.LLST3
 4620 0fc2 27100000 		.long	0x1027
 4621 0fc6 1F       		.uleb128 0x1f
 4622 0fc7 00000000 		.long	.LASF349
 4623 0fcb 01       		.byte	0x1
 4624 0fcc 7C       		.byte	0x7c
 4625 0fcd DE030000 		.long	0x3de
 4626 0fd1 02       		.byte	0x2
 4627 0fd2 91       		.byte	0x91
 4628 0fd3 48       		.sleb128 -56
 4629 0fd4 1F       		.uleb128 0x1f
 4630 0fd5 00000000 		.long	.LASF351
 4631 0fd9 01       		.byte	0x1
 4632 0fda 7D       		.byte	0x7d
 4633 0fdb B6000000 		.long	0xb6
 4634 0fdf 02       		.byte	0x2
 4635 0fe0 91       		.byte	0x91
 4636 0fe1 40       		.sleb128 -64
 4637 0fe2 1F       		.uleb128 0x1f
 4638 0fe3 00000000 		.long	.LASF352
 4639 0fe7 01       		.byte	0x1
 4640 0fe8 7E       		.byte	0x7e
 4641 0fe9 62000000 		.long	0x62
 4642 0fed 03       		.byte	0x3
 4643 0fee 91       		.byte	0x91
 4644 0fef BC7F     		.sleb128 -68
 4645 0ff1 20       		.uleb128 0x20
 4646 0ff2 726300   		.string	"rc"
 4647 0ff5 01       		.byte	0x1
 4648 0ff6 80       		.byte	0x80
GAS LISTING /tmp/ccf9IsGZ.s 			page 110


 4649 0ff7 7B000000 		.long	0x7b
 4650 0ffb 02       		.byte	0x2
 4651 0ffc 91       		.byte	0x91
 4652 0ffd 5C       		.sleb128 -36
 4653 0ffe 23       		.uleb128 0x23
 4654 0fff 00000000 		.long	.LASF353
 4655 1003 37100000 		.long	0x1037
 4656 1007 01       		.byte	0x1
 4657 1008 09       		.byte	0x9
 4658 1009 03       		.byte	0x3
 4659 100a 00000000 		.quad	__PRETTY_FUNCTION__.7296
 4659      00000000 
 4660 1012 23       		.uleb128 0x23
 4661 1013 00000000 		.long	.LASF354
 4662 1017 3C100000 		.long	0x103c
 4663 101b 01       		.byte	0x1
 4664 101c 09       		.byte	0x9
 4665 101d 03       		.byte	0x3
 4666 101e 00000000 		.quad	__func__.7298
 4666      00000000 
 4667 1026 00       		.byte	0x0
 4668 1027 1B       		.uleb128 0x1b
 4669 1028 C1000000 		.long	0xc1
 4670 102c 37100000 		.long	0x1037
 4671 1030 17       		.uleb128 0x17
 4672 1031 B1000000 		.long	0xb1
 4673 1035 1C       		.byte	0x1c
 4674 1036 00       		.byte	0x0
 4675 1037 0B       		.uleb128 0xb
 4676 1038 27100000 		.long	0x1027
 4677 103c 0B       		.uleb128 0xb
 4678 103d 27100000 		.long	0x1027
 4679 1041 1E       		.uleb128 0x1e
 4680 1042 00000000 		.long	.LASF355
 4681 1046 01       		.byte	0x1
 4682 1047 95       		.byte	0x95
 4683 1048 01       		.byte	0x1
 4684 1049 7B000000 		.long	0x7b
 4685 104d 00000000 		.quad	.LFB605
 4685      00000000 
 4686 1055 00000000 		.quad	.LFE605
 4686      00000000 
 4687 105d 00000000 		.long	.LLST4
 4688 1061 C6100000 		.long	0x10c6
 4689 1065 1F       		.uleb128 0x1f
 4690 1066 00000000 		.long	.LASF349
 4691 106a 01       		.byte	0x1
 4692 106b 95       		.byte	0x95
 4693 106c DE030000 		.long	0x3de
 4694 1070 02       		.byte	0x2
 4695 1071 91       		.byte	0x91
 4696 1072 48       		.sleb128 -56
 4697 1073 1F       		.uleb128 0x1f
 4698 1074 00000000 		.long	.LASF351
 4699 1078 01       		.byte	0x1
 4700 1079 96       		.byte	0x96
 4701 107a B6000000 		.long	0xb6
GAS LISTING /tmp/ccf9IsGZ.s 			page 111


 4702 107e 02       		.byte	0x2
 4703 107f 91       		.byte	0x91
 4704 1080 40       		.sleb128 -64
 4705 1081 1F       		.uleb128 0x1f
 4706 1082 00000000 		.long	.LASF352
 4707 1086 01       		.byte	0x1
 4708 1087 97       		.byte	0x97
 4709 1088 62000000 		.long	0x62
 4710 108c 03       		.byte	0x3
 4711 108d 91       		.byte	0x91
 4712 108e BC7F     		.sleb128 -68
 4713 1090 20       		.uleb128 0x20
 4714 1091 726300   		.string	"rc"
 4715 1094 01       		.byte	0x1
 4716 1095 99       		.byte	0x99
 4717 1096 7B000000 		.long	0x7b
 4718 109a 02       		.byte	0x2
 4719 109b 91       		.byte	0x91
 4720 109c 5C       		.sleb128 -36
 4721 109d 23       		.uleb128 0x23
 4722 109e 00000000 		.long	.LASF353
 4723 10a2 C6100000 		.long	0x10c6
 4724 10a6 01       		.byte	0x1
 4725 10a7 09       		.byte	0x9
 4726 10a8 03       		.byte	0x3
 4727 10a9 00000000 		.quad	__PRETTY_FUNCTION__.7320
 4727      00000000 
 4728 10b1 23       		.uleb128 0x23
 4729 10b2 00000000 		.long	.LASF354
 4730 10b6 CB100000 		.long	0x10cb
 4731 10ba 01       		.byte	0x1
 4732 10bb 09       		.byte	0x9
 4733 10bc 03       		.byte	0x3
 4734 10bd 00000000 		.quad	__func__.7322
 4734      00000000 
 4735 10c5 00       		.byte	0x0
 4736 10c6 0B       		.uleb128 0xb
 4737 10c7 27100000 		.long	0x1027
 4738 10cb 0B       		.uleb128 0xb
 4739 10cc 27100000 		.long	0x1027
 4740 10d0 1E       		.uleb128 0x1e
 4741 10d1 00000000 		.long	.LASF356
 4742 10d5 01       		.byte	0x1
 4743 10d6 AF       		.byte	0xaf
 4744 10d7 01       		.byte	0x1
 4745 10d8 7B000000 		.long	0x7b
 4746 10dc 00000000 		.quad	.LFB606
 4746      00000000 
 4747 10e4 00000000 		.quad	.LFE606
 4747      00000000 
 4748 10ec 00000000 		.long	.LLST5
 4749 10f0 25110000 		.long	0x1125
 4750 10f4 1F       		.uleb128 0x1f
 4751 10f5 00000000 		.long	.LASF349
 4752 10f9 01       		.byte	0x1
 4753 10fa AF       		.byte	0xaf
 4754 10fb DE030000 		.long	0x3de
GAS LISTING /tmp/ccf9IsGZ.s 			page 112


 4755 10ff 02       		.byte	0x2
 4756 1100 91       		.byte	0x91
 4757 1101 68       		.sleb128 -24
 4758 1102 1F       		.uleb128 0x1f
 4759 1103 00000000 		.long	.LASF357
 4760 1107 01       		.byte	0x1
 4761 1108 B0       		.byte	0xb0
 4762 1109 1F040000 		.long	0x41f
 4763 110d 02       		.byte	0x2
 4764 110e 91       		.byte	0x91
 4765 110f 60       		.sleb128 -32
 4766 1110 23       		.uleb128 0x23
 4767 1111 00000000 		.long	.LASF353
 4768 1115 35110000 		.long	0x1135
 4769 1119 01       		.byte	0x1
 4770 111a 09       		.byte	0x9
 4771 111b 03       		.byte	0x3
 4772 111c 00000000 		.quad	__PRETTY_FUNCTION__.7342
 4772      00000000 
 4773 1124 00       		.byte	0x0
 4774 1125 1B       		.uleb128 0x1b
 4775 1126 C1000000 		.long	0xc1
 4776 112a 35110000 		.long	0x1135
 4777 112e 17       		.uleb128 0x17
 4778 112f B1000000 		.long	0xb1
 4779 1133 1D       		.byte	0x1d
 4780 1134 00       		.byte	0x0
 4781 1135 0B       		.uleb128 0xb
 4782 1136 25110000 		.long	0x1125
 4783 113a 1E       		.uleb128 0x1e
 4784 113b 00000000 		.long	.LASF358
 4785 113f 01       		.byte	0x1
 4786 1140 BC       		.byte	0xbc
 4787 1141 01       		.byte	0x1
 4788 1142 7B000000 		.long	0x7b
 4789 1146 00000000 		.quad	.LFB607
 4789      00000000 
 4790 114e 00000000 		.quad	.LFE607
 4790      00000000 
 4791 1156 00000000 		.long	.LLST6
 4792 115a 8F110000 		.long	0x118f
 4793 115e 1F       		.uleb128 0x1f
 4794 115f 00000000 		.long	.LASF349
 4795 1163 01       		.byte	0x1
 4796 1164 BC       		.byte	0xbc
 4797 1165 DE030000 		.long	0x3de
 4798 1169 02       		.byte	0x2
 4799 116a 91       		.byte	0x91
 4800 116b 68       		.sleb128 -24
 4801 116c 1F       		.uleb128 0x1f
 4802 116d 00000000 		.long	.LASF357
 4803 1171 01       		.byte	0x1
 4804 1172 BD       		.byte	0xbd
 4805 1173 1F040000 		.long	0x41f
 4806 1177 02       		.byte	0x2
 4807 1178 91       		.byte	0x91
 4808 1179 60       		.sleb128 -32
GAS LISTING /tmp/ccf9IsGZ.s 			page 113


 4809 117a 23       		.uleb128 0x23
 4810 117b 00000000 		.long	.LASF353
 4811 117f 8F110000 		.long	0x118f
 4812 1183 01       		.byte	0x1
 4813 1184 09       		.byte	0x9
 4814 1185 03       		.byte	0x3
 4815 1186 00000000 		.quad	__PRETTY_FUNCTION__.7355
 4815      00000000 
 4816 118e 00       		.byte	0x0
 4817 118f 0B       		.uleb128 0xb
 4818 1190 25110000 		.long	0x1125
 4819 1194 1E       		.uleb128 0x1e
 4820 1195 00000000 		.long	.LASF359
 4821 1199 01       		.byte	0x1
 4822 119a C9       		.byte	0xc9
 4823 119b 01       		.byte	0x1
 4824 119c 7B000000 		.long	0x7b
 4825 11a0 00000000 		.quad	.LFB608
 4825      00000000 
 4826 11a8 00000000 		.quad	.LFE608
 4826      00000000 
 4827 11b0 00000000 		.long	.LLST7
 4828 11b4 E9110000 		.long	0x11e9
 4829 11b8 1F       		.uleb128 0x1f
 4830 11b9 00000000 		.long	.LASF349
 4831 11bd 01       		.byte	0x1
 4832 11be C9       		.byte	0xc9
 4833 11bf DE030000 		.long	0x3de
 4834 11c3 02       		.byte	0x2
 4835 11c4 91       		.byte	0x91
 4836 11c5 68       		.sleb128 -24
 4837 11c6 1F       		.uleb128 0x1f
 4838 11c7 00000000 		.long	.LASF360
 4839 11cb 01       		.byte	0x1
 4840 11cc CA       		.byte	0xca
 4841 11cd F7010000 		.long	0x1f7
 4842 11d1 02       		.byte	0x2
 4843 11d2 91       		.byte	0x91
 4844 11d3 60       		.sleb128 -32
 4845 11d4 23       		.uleb128 0x23
 4846 11d5 00000000 		.long	.LASF353
 4847 11d9 F9110000 		.long	0x11f9
 4848 11dd 01       		.byte	0x1
 4849 11de 09       		.byte	0x9
 4850 11df 03       		.byte	0x3
 4851 11e0 00000000 		.quad	__PRETTY_FUNCTION__.7368
 4851      00000000 
 4852 11e8 00       		.byte	0x0
 4853 11e9 1B       		.uleb128 0x1b
 4854 11ea C1000000 		.long	0xc1
 4855 11ee F9110000 		.long	0x11f9
 4856 11f2 17       		.uleb128 0x17
 4857 11f3 B1000000 		.long	0xb1
 4858 11f7 24       		.byte	0x24
 4859 11f8 00       		.byte	0x0
 4860 11f9 0B       		.uleb128 0xb
 4861 11fa E9110000 		.long	0x11e9
GAS LISTING /tmp/ccf9IsGZ.s 			page 114


 4862 11fe 1E       		.uleb128 0x1e
 4863 11ff 00000000 		.long	.LASF361
 4864 1203 01       		.byte	0x1
 4865 1204 D6       		.byte	0xd6
 4866 1205 01       		.byte	0x1
 4867 1206 7B000000 		.long	0x7b
 4868 120a 00000000 		.quad	.LFB609
 4868      00000000 
 4869 1212 00000000 		.quad	.LFE609
 4869      00000000 
 4870 121a 00000000 		.long	.LLST8
 4871 121e 53120000 		.long	0x1253
 4872 1222 1F       		.uleb128 0x1f
 4873 1223 00000000 		.long	.LASF349
 4874 1227 01       		.byte	0x1
 4875 1228 D6       		.byte	0xd6
 4876 1229 DE030000 		.long	0x3de
 4877 122d 02       		.byte	0x2
 4878 122e 91       		.byte	0x91
 4879 122f 68       		.sleb128 -24
 4880 1230 1F       		.uleb128 0x1f
 4881 1231 00000000 		.long	.LASF360
 4882 1235 01       		.byte	0x1
 4883 1236 D7       		.byte	0xd7
 4884 1237 F7010000 		.long	0x1f7
 4885 123b 02       		.byte	0x2
 4886 123c 91       		.byte	0x91
 4887 123d 60       		.sleb128 -32
 4888 123e 23       		.uleb128 0x23
 4889 123f 00000000 		.long	.LASF353
 4890 1243 53120000 		.long	0x1253
 4891 1247 01       		.byte	0x1
 4892 1248 09       		.byte	0x9
 4893 1249 03       		.byte	0x3
 4894 124a 00000000 		.quad	__PRETTY_FUNCTION__.7378
 4894      00000000 
 4895 1252 00       		.byte	0x0
 4896 1253 0B       		.uleb128 0xb
 4897 1254 E9110000 		.long	0x11e9
 4898 1258 1E       		.uleb128 0x1e
 4899 1259 00000000 		.long	.LASF362
 4900 125d 01       		.byte	0x1
 4901 125e E2       		.byte	0xe2
 4902 125f 01       		.byte	0x1
 4903 1260 3D050000 		.long	0x53d
 4904 1264 00000000 		.quad	.LFB610
 4904      00000000 
 4905 126c 00000000 		.quad	.LFE610
 4905      00000000 
 4906 1274 00000000 		.long	.LLST9
 4907 1278 97120000 		.long	0x1297
 4908 127c 1F       		.uleb128 0x1f
 4909 127d 00000000 		.long	.LASF349
 4910 1281 01       		.byte	0x1
 4911 1282 E2       		.byte	0xe2
 4912 1283 61040000 		.long	0x461
 4913 1287 02       		.byte	0x2
GAS LISTING /tmp/ccf9IsGZ.s 			page 115


 4914 1288 91       		.byte	0x91
 4915 1289 68       		.sleb128 -24
 4916 128a 22       		.uleb128 0x22
 4917 128b 637600   		.string	"cv"
 4918 128e 01       		.byte	0x1
 4919 128f E3       		.byte	0xe3
 4920 1290 3D050000 		.long	0x53d
 4921 1294 01       		.byte	0x1
 4922 1295 61       		.byte	0x61
 4923 1296 00       		.byte	0x0
 4924 1297 1E       		.uleb128 0x1e
 4925 1298 00000000 		.long	.LASF363
 4926 129c 01       		.byte	0x1
 4927 129d E9       		.byte	0xe9
 4928 129e 01       		.byte	0x1
 4929 129f 3D050000 		.long	0x53d
 4930 12a3 00000000 		.quad	.LFB611
 4930      00000000 
 4931 12ab 00000000 		.quad	.LFE611
 4931      00000000 
 4932 12b3 00000000 		.long	.LLST10
 4933 12b7 D6120000 		.long	0x12d6
 4934 12bb 1F       		.uleb128 0x1f
 4935 12bc 00000000 		.long	.LASF349
 4936 12c0 01       		.byte	0x1
 4937 12c1 E9       		.byte	0xe9
 4938 12c2 61040000 		.long	0x461
 4939 12c6 02       		.byte	0x2
 4940 12c7 91       		.byte	0x91
 4941 12c8 68       		.sleb128 -24
 4942 12c9 22       		.uleb128 0x22
 4943 12ca 637600   		.string	"cv"
 4944 12cd 01       		.byte	0x1
 4945 12ce EA       		.byte	0xea
 4946 12cf 3D050000 		.long	0x53d
 4947 12d3 01       		.byte	0x1
 4948 12d4 61       		.byte	0x61
 4949 12d5 00       		.byte	0x0
 4950 12d6 1E       		.uleb128 0x1e
 4951 12d7 00000000 		.long	.LASF364
 4952 12db 01       		.byte	0x1
 4953 12dc F0       		.byte	0xf0
 4954 12dd 01       		.byte	0x1
 4955 12de 7B000000 		.long	0x7b
 4956 12e2 00000000 		.quad	.LFB612
 4956      00000000 
 4957 12ea 00000000 		.quad	.LFE612
 4957      00000000 
 4958 12f2 00000000 		.long	.LLST11
 4959 12f6 31130000 		.long	0x1331
 4960 12fa 1F       		.uleb128 0x1f
 4961 12fb 00000000 		.long	.LASF349
 4962 12ff 01       		.byte	0x1
 4963 1300 F0       		.byte	0xf0
 4964 1301 61040000 		.long	0x461
 4965 1305 02       		.byte	0x2
 4966 1306 91       		.byte	0x91
GAS LISTING /tmp/ccf9IsGZ.s 			page 116


 4967 1307 58       		.sleb128 -40
 4968 1308 22       		.uleb128 0x22
 4969 1309 696E00   		.string	"in"
 4970 130c 01       		.byte	0x1
 4971 130d F1       		.byte	0xf1
 4972 130e 1F040000 		.long	0x41f
 4973 1312 02       		.byte	0x2
 4974 1313 91       		.byte	0x91
 4975 1314 50       		.sleb128 -48
 4976 1315 22       		.uleb128 0x22
 4977 1316 6F757400 		.string	"out"
 4978 131a 01       		.byte	0x1
 4979 131b F1       		.byte	0xf1
 4980 131c B4000000 		.long	0xb4
 4981 1320 02       		.byte	0x2
 4982 1321 91       		.byte	0x91
 4983 1322 48       		.sleb128 -56
 4984 1323 20       		.uleb128 0x20
 4985 1324 637600   		.string	"cv"
 4986 1327 01       		.byte	0x1
 4987 1328 F3       		.byte	0xf3
 4988 1329 3D050000 		.long	0x53d
 4989 132d 02       		.byte	0x2
 4990 132e 91       		.byte	0x91
 4991 132f 60       		.sleb128 -32
 4992 1330 00       		.byte	0x0
 4993 1331 1E       		.uleb128 0x1e
 4994 1332 00000000 		.long	.LASF365
 4995 1336 01       		.byte	0x1
 4996 1337 FC       		.byte	0xfc
 4997 1338 01       		.byte	0x1
 4998 1339 7B000000 		.long	0x7b
 4999 133d 00000000 		.quad	.LFB613
 4999      00000000 
 5000 1345 00000000 		.quad	.LFE613
 5000      00000000 
 5001 134d 00000000 		.long	.LLST12
 5002 1351 8C130000 		.long	0x138c
 5003 1355 1F       		.uleb128 0x1f
 5004 1356 00000000 		.long	.LASF349
 5005 135a 01       		.byte	0x1
 5006 135b FC       		.byte	0xfc
 5007 135c 61040000 		.long	0x461
 5008 1360 02       		.byte	0x2
 5009 1361 91       		.byte	0x91
 5010 1362 58       		.sleb128 -40
 5011 1363 22       		.uleb128 0x22
 5012 1364 696E00   		.string	"in"
 5013 1367 01       		.byte	0x1
 5014 1368 FD       		.byte	0xfd
 5015 1369 1F040000 		.long	0x41f
 5016 136d 02       		.byte	0x2
 5017 136e 91       		.byte	0x91
 5018 136f 50       		.sleb128 -48
 5019 1370 22       		.uleb128 0x22
 5020 1371 6F757400 		.string	"out"
 5021 1375 01       		.byte	0x1
GAS LISTING /tmp/ccf9IsGZ.s 			page 117


 5022 1376 FD       		.byte	0xfd
 5023 1377 B4000000 		.long	0xb4
 5024 137b 02       		.byte	0x2
 5025 137c 91       		.byte	0x91
 5026 137d 48       		.sleb128 -56
 5027 137e 20       		.uleb128 0x20
 5028 137f 637600   		.string	"cv"
 5029 1382 01       		.byte	0x1
 5030 1383 FF       		.byte	0xff
 5031 1384 3D050000 		.long	0x53d
 5032 1388 02       		.byte	0x2
 5033 1389 91       		.byte	0x91
 5034 138a 60       		.sleb128 -32
 5035 138b 00       		.byte	0x0
 5036 138c 24       		.uleb128 0x24
 5037 138d 00000000 		.long	.LASF366
 5038 1391 01       		.byte	0x1
 5039 1392 0801     		.value	0x108
 5040 1394 01       		.byte	0x1
 5041 1395 7B000000 		.long	0x7b
 5042 1399 00000000 		.quad	.LFB614
 5042      00000000 
 5043 13a1 00000000 		.quad	.LFE614
 5043      00000000 
 5044 13a9 00000000 		.long	.LLST13
 5045 13ad 14140000 		.long	0x1414
 5046 13b1 25       		.uleb128 0x25
 5047 13b2 00000000 		.long	.LASF349
 5048 13b6 01       		.byte	0x1
 5049 13b7 0801     		.value	0x108
 5050 13b9 61040000 		.long	0x461
 5051 13bd 02       		.byte	0x2
 5052 13be 91       		.byte	0x91
 5053 13bf 58       		.sleb128 -40
 5054 13c0 26       		.uleb128 0x26
 5055 13c1 696E00   		.string	"in"
 5056 13c4 01       		.byte	0x1
 5057 13c5 0801     		.value	0x108
 5058 13c7 1F040000 		.long	0x41f
 5059 13cb 02       		.byte	0x2
 5060 13cc 91       		.byte	0x91
 5061 13cd 50       		.sleb128 -48
 5062 13ce 26       		.uleb128 0x26
 5063 13cf 6F757400 		.string	"out"
 5064 13d3 01       		.byte	0x1
 5065 13d4 0801     		.value	0x108
 5066 13d6 B4000000 		.long	0xb4
 5067 13da 02       		.byte	0x2
 5068 13db 91       		.byte	0x91
 5069 13dc 48       		.sleb128 -56
 5070 13dd 27       		.uleb128 0x27
 5071 13de 726300   		.string	"rc"
 5072 13e1 01       		.byte	0x1
 5073 13e2 0A01     		.value	0x10a
 5074 13e4 7B000000 		.long	0x7b
 5075 13e8 02       		.byte	0x2
 5076 13e9 91       		.byte	0x91
GAS LISTING /tmp/ccf9IsGZ.s 			page 118


 5077 13ea 6C       		.sleb128 -20
 5078 13eb 23       		.uleb128 0x23
 5079 13ec 00000000 		.long	.LASF353
 5080 13f0 24140000 		.long	0x1424
 5081 13f4 01       		.byte	0x1
 5082 13f5 09       		.byte	0x9
 5083 13f6 03       		.byte	0x3
 5084 13f7 00000000 		.quad	__PRETTY_FUNCTION__.7427
 5084      00000000 
 5085 13ff 23       		.uleb128 0x23
 5086 1400 00000000 		.long	.LASF354
 5087 1404 29140000 		.long	0x1429
 5088 1408 01       		.byte	0x1
 5089 1409 09       		.byte	0x9
 5090 140a 03       		.byte	0x3
 5091 140b 00000000 		.quad	__func__.7428
 5091      00000000 
 5092 1413 00       		.byte	0x0
 5093 1414 1B       		.uleb128 0x1b
 5094 1415 C1000000 		.long	0xc1
 5095 1419 24140000 		.long	0x1424
 5096 141d 17       		.uleb128 0x17
 5097 141e B1000000 		.long	0xb1
 5098 1422 16       		.byte	0x16
 5099 1423 00       		.byte	0x0
 5100 1424 0B       		.uleb128 0xb
 5101 1425 14140000 		.long	0x1414
 5102 1429 0B       		.uleb128 0xb
 5103 142a 14140000 		.long	0x1414
 5104 142e 24       		.uleb128 0x24
 5105 142f 00000000 		.long	.LASF367
 5106 1433 01       		.byte	0x1
 5107 1434 1C01     		.value	0x11c
 5108 1436 01       		.byte	0x1
 5109 1437 7B000000 		.long	0x7b
 5110 143b 00000000 		.quad	.LFB615
 5110      00000000 
 5111 1443 00000000 		.quad	.LFE615
 5111      00000000 
 5112 144b 00000000 		.long	.LLST14
 5113 144f B6140000 		.long	0x14b6
 5114 1453 25       		.uleb128 0x25
 5115 1454 00000000 		.long	.LASF349
 5116 1458 01       		.byte	0x1
 5117 1459 1C01     		.value	0x11c
 5118 145b 61040000 		.long	0x461
 5119 145f 02       		.byte	0x2
 5120 1460 91       		.byte	0x91
 5121 1461 58       		.sleb128 -40
 5122 1462 26       		.uleb128 0x26
 5123 1463 696E00   		.string	"in"
 5124 1466 01       		.byte	0x1
 5125 1467 1C01     		.value	0x11c
 5126 1469 1F040000 		.long	0x41f
 5127 146d 02       		.byte	0x2
 5128 146e 91       		.byte	0x91
 5129 146f 50       		.sleb128 -48
GAS LISTING /tmp/ccf9IsGZ.s 			page 119


 5130 1470 26       		.uleb128 0x26
 5131 1471 6F757400 		.string	"out"
 5132 1475 01       		.byte	0x1
 5133 1476 1C01     		.value	0x11c
 5134 1478 B4000000 		.long	0xb4
 5135 147c 02       		.byte	0x2
 5136 147d 91       		.byte	0x91
 5137 147e 48       		.sleb128 -56
 5138 147f 27       		.uleb128 0x27
 5139 1480 726300   		.string	"rc"
 5140 1483 01       		.byte	0x1
 5141 1484 1E01     		.value	0x11e
 5142 1486 7B000000 		.long	0x7b
 5143 148a 02       		.byte	0x2
 5144 148b 91       		.byte	0x91
 5145 148c 6C       		.sleb128 -20
 5146 148d 23       		.uleb128 0x23
 5147 148e 00000000 		.long	.LASF353
 5148 1492 B6140000 		.long	0x14b6
 5149 1496 01       		.byte	0x1
 5150 1497 09       		.byte	0x9
 5151 1498 03       		.byte	0x3
 5152 1499 00000000 		.quad	__PRETTY_FUNCTION__.7443
 5152      00000000 
 5153 14a1 23       		.uleb128 0x23
 5154 14a2 00000000 		.long	.LASF354
 5155 14a6 BB140000 		.long	0x14bb
 5156 14aa 01       		.byte	0x1
 5157 14ab 09       		.byte	0x9
 5158 14ac 03       		.byte	0x3
 5159 14ad 00000000 		.quad	__func__.7444
 5159      00000000 
 5160 14b5 00       		.byte	0x0
 5161 14b6 0B       		.uleb128 0xb
 5162 14b7 14140000 		.long	0x1414
 5163 14bb 0B       		.uleb128 0xb
 5164 14bc 14140000 		.long	0x1414
 5165 14c0 24       		.uleb128 0x24
 5166 14c1 00000000 		.long	.LASF368
 5167 14c5 01       		.byte	0x1
 5168 14c6 5A01     		.value	0x15a
 5169 14c8 01       		.byte	0x1
 5170 14c9 7B000000 		.long	0x7b
 5171 14cd 00000000 		.quad	.LFB616
 5171      00000000 
 5172 14d5 00000000 		.quad	.LFE616
 5172      00000000 
 5173 14dd 00000000 		.long	.LLST15
 5174 14e1 3F150000 		.long	0x153f
 5175 14e5 25       		.uleb128 0x25
 5176 14e6 00000000 		.long	.LASF349
 5177 14ea 01       		.byte	0x1
 5178 14eb 5A01     		.value	0x15a
 5179 14ed 61040000 		.long	0x461
 5180 14f1 02       		.byte	0x2
 5181 14f2 91       		.byte	0x91
 5182 14f3 58       		.sleb128 -40
GAS LISTING /tmp/ccf9IsGZ.s 			page 120


 5183 14f4 26       		.uleb128 0x26
 5184 14f5 696E00   		.string	"in"
 5185 14f8 01       		.byte	0x1
 5186 14f9 5A01     		.value	0x15a
 5187 14fb 1F040000 		.long	0x41f
 5188 14ff 02       		.byte	0x2
 5189 1500 91       		.byte	0x91
 5190 1501 50       		.sleb128 -48
 5191 1502 26       		.uleb128 0x26
 5192 1503 6F757400 		.string	"out"
 5193 1507 01       		.byte	0x1
 5194 1508 5A01     		.value	0x15a
 5195 150a B4000000 		.long	0xb4
 5196 150e 02       		.byte	0x2
 5197 150f 91       		.byte	0x91
 5198 1510 48       		.sleb128 -56
 5199 1511 25       		.uleb128 0x25
 5200 1512 00000000 		.long	.LASF369
 5201 1516 01       		.byte	0x1
 5202 1517 5A01     		.value	0x15a
 5203 1519 62000000 		.long	0x62
 5204 151d 02       		.byte	0x2
 5205 151e 91       		.byte	0x91
 5206 151f 44       		.sleb128 -60
 5207 1520 27       		.uleb128 0x27
 5208 1521 70696E00 		.string	"pin"
 5209 1525 01       		.byte	0x1
 5210 1526 5C01     		.value	0x15c
 5211 1528 3F150000 		.long	0x153f
 5212 152c 02       		.byte	0x2
 5213 152d 91       		.byte	0x91
 5214 152e 60       		.sleb128 -32
 5215 152f 28       		.uleb128 0x28
 5216 1530 00000000 		.long	.LASF370
 5217 1534 01       		.byte	0x1
 5218 1535 5D01     		.value	0x15d
 5219 1537 4A150000 		.long	0x154a
 5220 153b 02       		.byte	0x2
 5221 153c 91       		.byte	0x91
 5222 153d 68       		.sleb128 -24
 5223 153e 00       		.byte	0x0
 5224 153f 0A       		.uleb128 0xa
 5225 1540 08       		.byte	0x8
 5226 1541 45150000 		.long	0x1545
 5227 1545 0B       		.uleb128 0xb
 5228 1546 49000000 		.long	0x49
 5229 154a 0A       		.uleb128 0xa
 5230 154b 08       		.byte	0x8
 5231 154c 49000000 		.long	0x49
 5232 1550 24       		.uleb128 0x24
 5233 1551 00000000 		.long	.LASF371
 5234 1555 01       		.byte	0x1
 5235 1556 6A01     		.value	0x16a
 5236 1558 01       		.byte	0x1
 5237 1559 7B000000 		.long	0x7b
 5238 155d 00000000 		.quad	.LFB617
 5238      00000000 
GAS LISTING /tmp/ccf9IsGZ.s 			page 121


 5239 1565 00000000 		.quad	.LFE617
 5239      00000000 
 5240 156d 00000000 		.long	.LLST16
 5241 1571 CF150000 		.long	0x15cf
 5242 1575 25       		.uleb128 0x25
 5243 1576 00000000 		.long	.LASF349
 5244 157a 01       		.byte	0x1
 5245 157b 6A01     		.value	0x16a
 5246 157d 61040000 		.long	0x461
 5247 1581 02       		.byte	0x2
 5248 1582 91       		.byte	0x91
 5249 1583 58       		.sleb128 -40
 5250 1584 26       		.uleb128 0x26
 5251 1585 696E00   		.string	"in"
 5252 1588 01       		.byte	0x1
 5253 1589 6A01     		.value	0x16a
 5254 158b 1F040000 		.long	0x41f
 5255 158f 02       		.byte	0x2
 5256 1590 91       		.byte	0x91
 5257 1591 50       		.sleb128 -48
 5258 1592 26       		.uleb128 0x26
 5259 1593 6F757400 		.string	"out"
 5260 1597 01       		.byte	0x1
 5261 1598 6A01     		.value	0x16a
 5262 159a B4000000 		.long	0xb4
 5263 159e 02       		.byte	0x2
 5264 159f 91       		.byte	0x91
 5265 15a0 48       		.sleb128 -56
 5266 15a1 25       		.uleb128 0x25
 5267 15a2 00000000 		.long	.LASF369
 5268 15a6 01       		.byte	0x1
 5269 15a7 6A01     		.value	0x16a
 5270 15a9 62000000 		.long	0x62
 5271 15ad 02       		.byte	0x2
 5272 15ae 91       		.byte	0x91
 5273 15af 44       		.sleb128 -60
 5274 15b0 27       		.uleb128 0x27
 5275 15b1 70696E00 		.string	"pin"
 5276 15b5 01       		.byte	0x1
 5277 15b6 6C01     		.value	0x16c
 5278 15b8 3F150000 		.long	0x153f
 5279 15bc 02       		.byte	0x2
 5280 15bd 91       		.byte	0x91
 5281 15be 60       		.sleb128 -32
 5282 15bf 28       		.uleb128 0x28
 5283 15c0 00000000 		.long	.LASF370
 5284 15c4 01       		.byte	0x1
 5285 15c5 6D01     		.value	0x16d
 5286 15c7 4A150000 		.long	0x154a
 5287 15cb 02       		.byte	0x2
 5288 15cc 91       		.byte	0x91
 5289 15cd 68       		.sleb128 -24
 5290 15ce 00       		.byte	0x0
 5291 15cf 24       		.uleb128 0x24
 5292 15d0 00000000 		.long	.LASF372
 5293 15d4 01       		.byte	0x1
 5294 15d5 8001     		.value	0x180
GAS LISTING /tmp/ccf9IsGZ.s 			page 122


 5295 15d7 01       		.byte	0x1
 5296 15d8 7B000000 		.long	0x7b
 5297 15dc 00000000 		.quad	.LFB618
 5297      00000000 
 5298 15e4 00000000 		.quad	.LFE618
 5298      00000000 
 5299 15ec 00000000 		.long	.LLST17
 5300 15f0 6F160000 		.long	0x166f
 5301 15f4 25       		.uleb128 0x25
 5302 15f5 00000000 		.long	.LASF349
 5303 15f9 01       		.byte	0x1
 5304 15fa 8001     		.value	0x180
 5305 15fc DE030000 		.long	0x3de
 5306 1600 03       		.byte	0x3
 5307 1601 91       		.byte	0x91
 5308 1602 B87F     		.sleb128 -72
 5309 1604 26       		.uleb128 0x26
 5310 1605 696E00   		.string	"in"
 5311 1608 01       		.byte	0x1
 5312 1609 8001     		.value	0x180
 5313 160b 1F040000 		.long	0x41f
 5314 160f 03       		.byte	0x3
 5315 1610 91       		.byte	0x91
 5316 1611 B07F     		.sleb128 -80
 5317 1613 26       		.uleb128 0x26
 5318 1614 6F757400 		.string	"out"
 5319 1618 01       		.byte	0x1
 5320 1619 8001     		.value	0x180
 5321 161b B4000000 		.long	0xb4
 5322 161f 03       		.byte	0x3
 5323 1620 91       		.byte	0x91
 5324 1621 A87F     		.sleb128 -88
 5325 1623 25       		.uleb128 0x25
 5326 1624 00000000 		.long	.LASF369
 5327 1628 01       		.byte	0x1
 5328 1629 8001     		.value	0x180
 5329 162b 62000000 		.long	0x62
 5330 162f 03       		.byte	0x3
 5331 1630 91       		.byte	0x91
 5332 1631 A47F     		.sleb128 -92
 5333 1633 27       		.uleb128 0x27
 5334 1634 637600   		.string	"cv"
 5335 1637 01       		.byte	0x1
 5336 1638 8201     		.value	0x182
 5337 163a 3D050000 		.long	0x53d
 5338 163e 02       		.byte	0x2
 5339 163f 91       		.byte	0x91
 5340 1640 40       		.sleb128 -64
 5341 1641 28       		.uleb128 0x28
 5342 1642 00000000 		.long	.LASF357
 5343 1646 01       		.byte	0x1
 5344 1647 8301     		.value	0x183
 5345 1649 3D050000 		.long	0x53d
 5346 164d 02       		.byte	0x2
 5347 164e 91       		.byte	0x91
 5348 164f 50       		.sleb128 -48
 5349 1650 27       		.uleb128 0x27
GAS LISTING /tmp/ccf9IsGZ.s 			page 123


 5350 1651 70696E00 		.string	"pin"
 5351 1655 01       		.byte	0x1
 5352 1656 8401     		.value	0x184
 5353 1658 3F150000 		.long	0x153f
 5354 165c 02       		.byte	0x2
 5355 165d 91       		.byte	0x91
 5356 165e 60       		.sleb128 -32
 5357 165f 28       		.uleb128 0x28
 5358 1660 00000000 		.long	.LASF370
 5359 1664 01       		.byte	0x1
 5360 1665 8501     		.value	0x185
 5361 1667 4A150000 		.long	0x154a
 5362 166b 02       		.byte	0x2
 5363 166c 91       		.byte	0x91
 5364 166d 68       		.sleb128 -24
 5365 166e 00       		.byte	0x0
 5366 166f 24       		.uleb128 0x24
 5367 1670 00000000 		.long	.LASF373
 5368 1674 01       		.byte	0x1
 5369 1675 A201     		.value	0x1a2
 5370 1677 01       		.byte	0x1
 5371 1678 7B000000 		.long	0x7b
 5372 167c 00000000 		.quad	.LFB619
 5372      00000000 
 5373 1684 00000000 		.quad	.LFE619
 5373      00000000 
 5374 168c 00000000 		.long	.LLST18
 5375 1690 31170000 		.long	0x1731
 5376 1694 25       		.uleb128 0x25
 5377 1695 00000000 		.long	.LASF349
 5378 1699 01       		.byte	0x1
 5379 169a A201     		.value	0x1a2
 5380 169c DE030000 		.long	0x3de
 5381 16a0 03       		.byte	0x3
 5382 16a1 91       		.byte	0x91
 5383 16a2 A87F     		.sleb128 -88
 5384 16a4 26       		.uleb128 0x26
 5385 16a5 696E00   		.string	"in"
 5386 16a8 01       		.byte	0x1
 5387 16a9 A201     		.value	0x1a2
 5388 16ab 1F040000 		.long	0x41f
 5389 16af 03       		.byte	0x3
 5390 16b0 91       		.byte	0x91
 5391 16b1 A07F     		.sleb128 -96
 5392 16b3 26       		.uleb128 0x26
 5393 16b4 6F757400 		.string	"out"
 5394 16b8 01       		.byte	0x1
 5395 16b9 A201     		.value	0x1a2
 5396 16bb B4000000 		.long	0xb4
 5397 16bf 03       		.byte	0x3
 5398 16c0 91       		.byte	0x91
 5399 16c1 987F     		.sleb128 -104
 5400 16c3 25       		.uleb128 0x25
 5401 16c4 00000000 		.long	.LASF369
 5402 16c8 01       		.byte	0x1
 5403 16c9 A201     		.value	0x1a2
 5404 16cb 62000000 		.long	0x62
GAS LISTING /tmp/ccf9IsGZ.s 			page 124


 5405 16cf 03       		.byte	0x3
 5406 16d0 91       		.byte	0x91
 5407 16d1 947F     		.sleb128 -108
 5408 16d3 27       		.uleb128 0x27
 5409 16d4 637600   		.string	"cv"
 5410 16d7 01       		.byte	0x1
 5411 16d8 A401     		.value	0x1a4
 5412 16da 3D050000 		.long	0x53d
 5413 16de 03       		.byte	0x3
 5414 16df 91       		.byte	0x91
 5415 16e0 B07F     		.sleb128 -80
 5416 16e2 28       		.uleb128 0x28
 5417 16e3 00000000 		.long	.LASF357
 5418 16e7 01       		.byte	0x1
 5419 16e8 A501     		.value	0x1a5
 5420 16ea 3D050000 		.long	0x53d
 5421 16ee 02       		.byte	0x2
 5422 16ef 91       		.byte	0x91
 5423 16f0 40       		.sleb128 -64
 5424 16f1 27       		.uleb128 0x27
 5425 16f2 70696E00 		.string	"pin"
 5426 16f6 01       		.byte	0x1
 5427 16f7 A601     		.value	0x1a6
 5428 16f9 3F150000 		.long	0x153f
 5429 16fd 02       		.byte	0x2
 5430 16fe 91       		.byte	0x91
 5431 16ff 50       		.sleb128 -48
 5432 1700 28       		.uleb128 0x28
 5433 1701 00000000 		.long	.LASF370
 5434 1705 01       		.byte	0x1
 5435 1706 A701     		.value	0x1a7
 5436 1708 4A150000 		.long	0x154a
 5437 170c 02       		.byte	0x2
 5438 170d 91       		.byte	0x91
 5439 170e 58       		.sleb128 -40
 5440 170f 29       		.uleb128 0x29
 5441 1710 00000000 		.quad	.LBB2
 5441      00000000 
 5442 1718 00000000 		.quad	.LBE2
 5442      00000000 
 5443 1720 28       		.uleb128 0x28
 5444 1721 00000000 		.long	.LASF374
 5445 1725 01       		.byte	0x1
 5446 1726 AF01     		.value	0x1af
 5447 1728 3D050000 		.long	0x53d
 5448 172c 02       		.byte	0x2
 5449 172d 91       		.byte	0x91
 5450 172e 60       		.sleb128 -32
 5451 172f 00       		.byte	0x0
 5452 1730 00       		.byte	0x0
 5453 1731 24       		.uleb128 0x24
 5454 1732 00000000 		.long	.LASF375
 5455 1736 01       		.byte	0x1
 5456 1737 C801     		.value	0x1c8
 5457 1739 01       		.byte	0x1
 5458 173a 7B000000 		.long	0x7b
 5459 173e 00000000 		.quad	.LFB620
GAS LISTING /tmp/ccf9IsGZ.s 			page 125


 5459      00000000 
 5460 1746 00000000 		.quad	.LFE620
 5460      00000000 
 5461 174e 00000000 		.long	.LLST19
 5462 1752 F3170000 		.long	0x17f3
 5463 1756 25       		.uleb128 0x25
 5464 1757 00000000 		.long	.LASF349
 5465 175b 01       		.byte	0x1
 5466 175c C801     		.value	0x1c8
 5467 175e DE030000 		.long	0x3de
 5468 1762 03       		.byte	0x3
 5469 1763 91       		.byte	0x91
 5470 1764 A87F     		.sleb128 -88
 5471 1766 26       		.uleb128 0x26
 5472 1767 696E00   		.string	"in"
 5473 176a 01       		.byte	0x1
 5474 176b C801     		.value	0x1c8
 5475 176d 1F040000 		.long	0x41f
 5476 1771 03       		.byte	0x3
 5477 1772 91       		.byte	0x91
 5478 1773 A07F     		.sleb128 -96
 5479 1775 26       		.uleb128 0x26
 5480 1776 6F757400 		.string	"out"
 5481 177a 01       		.byte	0x1
 5482 177b C801     		.value	0x1c8
 5483 177d B4000000 		.long	0xb4
 5484 1781 03       		.byte	0x3
 5485 1782 91       		.byte	0x91
 5486 1783 987F     		.sleb128 -104
 5487 1785 25       		.uleb128 0x25
 5488 1786 00000000 		.long	.LASF369
 5489 178a 01       		.byte	0x1
 5490 178b C801     		.value	0x1c8
 5491 178d 62000000 		.long	0x62
 5492 1791 03       		.byte	0x3
 5493 1792 91       		.byte	0x91
 5494 1793 947F     		.sleb128 -108
 5495 1795 27       		.uleb128 0x27
 5496 1796 637600   		.string	"cv"
 5497 1799 01       		.byte	0x1
 5498 179a CB01     		.value	0x1cb
 5499 179c 3D050000 		.long	0x53d
 5500 17a0 03       		.byte	0x3
 5501 17a1 91       		.byte	0x91
 5502 17a2 B07F     		.sleb128 -80
 5503 17a4 28       		.uleb128 0x28
 5504 17a5 00000000 		.long	.LASF357
 5505 17a9 01       		.byte	0x1
 5506 17aa CC01     		.value	0x1cc
 5507 17ac 3D050000 		.long	0x53d
 5508 17b0 02       		.byte	0x2
 5509 17b1 91       		.byte	0x91
 5510 17b2 40       		.sleb128 -64
 5511 17b3 27       		.uleb128 0x27
 5512 17b4 70696E00 		.string	"pin"
 5513 17b8 01       		.byte	0x1
 5514 17b9 CD01     		.value	0x1cd
GAS LISTING /tmp/ccf9IsGZ.s 			page 126


 5515 17bb 3F150000 		.long	0x153f
 5516 17bf 02       		.byte	0x2
 5517 17c0 91       		.byte	0x91
 5518 17c1 50       		.sleb128 -48
 5519 17c2 28       		.uleb128 0x28
 5520 17c3 00000000 		.long	.LASF370
 5521 17c7 01       		.byte	0x1
 5522 17c8 CE01     		.value	0x1ce
 5523 17ca 4A150000 		.long	0x154a
 5524 17ce 02       		.byte	0x2
 5525 17cf 91       		.byte	0x91
 5526 17d0 58       		.sleb128 -40
 5527 17d1 29       		.uleb128 0x29
 5528 17d2 00000000 		.quad	.LBB3
 5528      00000000 
 5529 17da 00000000 		.quad	.LBE3
 5529      00000000 
 5530 17e2 28       		.uleb128 0x28
 5531 17e3 00000000 		.long	.LASF374
 5532 17e7 01       		.byte	0x1
 5533 17e8 D601     		.value	0x1d6
 5534 17ea 3D050000 		.long	0x53d
 5535 17ee 02       		.byte	0x2
 5536 17ef 91       		.byte	0x91
 5537 17f0 60       		.sleb128 -32
 5538 17f1 00       		.byte	0x0
 5539 17f2 00       		.byte	0x0
 5540 17f3 24       		.uleb128 0x24
 5541 17f4 00000000 		.long	.LASF376
 5542 17f8 01       		.byte	0x1
 5543 17f9 E901     		.value	0x1e9
 5544 17fb 01       		.byte	0x1
 5545 17fc 7B000000 		.long	0x7b
 5546 1800 00000000 		.quad	.LFB621
 5546      00000000 
 5547 1808 00000000 		.quad	.LFE621
 5547      00000000 
 5548 1810 00000000 		.long	.LLST20
 5549 1814 B5180000 		.long	0x18b5
 5550 1818 25       		.uleb128 0x25
 5551 1819 00000000 		.long	.LASF349
 5552 181d 01       		.byte	0x1
 5553 181e E901     		.value	0x1e9
 5554 1820 DE030000 		.long	0x3de
 5555 1824 03       		.byte	0x3
 5556 1825 91       		.byte	0x91
 5557 1826 A87F     		.sleb128 -88
 5558 1828 26       		.uleb128 0x26
 5559 1829 696E00   		.string	"in"
 5560 182c 01       		.byte	0x1
 5561 182d E901     		.value	0x1e9
 5562 182f 1F040000 		.long	0x41f
 5563 1833 03       		.byte	0x3
 5564 1834 91       		.byte	0x91
 5565 1835 A07F     		.sleb128 -96
 5566 1837 26       		.uleb128 0x26
 5567 1838 6F757400 		.string	"out"
GAS LISTING /tmp/ccf9IsGZ.s 			page 127


 5568 183c 01       		.byte	0x1
 5569 183d E901     		.value	0x1e9
 5570 183f B4000000 		.long	0xb4
 5571 1843 03       		.byte	0x3
 5572 1844 91       		.byte	0x91
 5573 1845 987F     		.sleb128 -104
 5574 1847 25       		.uleb128 0x25
 5575 1848 00000000 		.long	.LASF369
 5576 184c 01       		.byte	0x1
 5577 184d E901     		.value	0x1e9
 5578 184f 62000000 		.long	0x62
 5579 1853 03       		.byte	0x3
 5580 1854 91       		.byte	0x91
 5581 1855 947F     		.sleb128 -108
 5582 1857 27       		.uleb128 0x27
 5583 1858 637600   		.string	"cv"
 5584 185b 01       		.byte	0x1
 5585 185c EC01     		.value	0x1ec
 5586 185e 3D050000 		.long	0x53d
 5587 1862 03       		.byte	0x3
 5588 1863 91       		.byte	0x91
 5589 1864 B07F     		.sleb128 -80
 5590 1866 28       		.uleb128 0x28
 5591 1867 00000000 		.long	.LASF357
 5592 186b 01       		.byte	0x1
 5593 186c ED01     		.value	0x1ed
 5594 186e 3D050000 		.long	0x53d
 5595 1872 02       		.byte	0x2
 5596 1873 91       		.byte	0x91
 5597 1874 40       		.sleb128 -64
 5598 1875 27       		.uleb128 0x27
 5599 1876 70696E00 		.string	"pin"
 5600 187a 01       		.byte	0x1
 5601 187b EE01     		.value	0x1ee
 5602 187d 3F150000 		.long	0x153f
 5603 1881 02       		.byte	0x2
 5604 1882 91       		.byte	0x91
 5605 1883 50       		.sleb128 -48
 5606 1884 28       		.uleb128 0x28
 5607 1885 00000000 		.long	.LASF370
 5608 1889 01       		.byte	0x1
 5609 188a EF01     		.value	0x1ef
 5610 188c 4A150000 		.long	0x154a
 5611 1890 02       		.byte	0x2
 5612 1891 91       		.byte	0x91
 5613 1892 58       		.sleb128 -40
 5614 1893 29       		.uleb128 0x29
 5615 1894 00000000 		.quad	.LBB4
 5615      00000000 
 5616 189c 00000000 		.quad	.LBE4
 5616      00000000 
 5617 18a4 28       		.uleb128 0x28
 5618 18a5 00000000 		.long	.LASF374
 5619 18a9 01       		.byte	0x1
 5620 18aa F701     		.value	0x1f7
 5621 18ac 3D050000 		.long	0x53d
 5622 18b0 02       		.byte	0x2
GAS LISTING /tmp/ccf9IsGZ.s 			page 128


 5623 18b1 91       		.byte	0x91
 5624 18b2 60       		.sleb128 -32
 5625 18b3 00       		.byte	0x0
 5626 18b4 00       		.byte	0x0
 5627 18b5 24       		.uleb128 0x24
 5628 18b6 00000000 		.long	.LASF377
 5629 18ba 01       		.byte	0x1
 5630 18bb 0E02     		.value	0x20e
 5631 18bd 01       		.byte	0x1
 5632 18be 7B000000 		.long	0x7b
 5633 18c2 00000000 		.quad	.LFB622
 5633      00000000 
 5634 18ca 00000000 		.quad	.LFE622
 5634      00000000 
 5635 18d2 00000000 		.long	.LLST21
 5636 18d6 55190000 		.long	0x1955
 5637 18da 25       		.uleb128 0x25
 5638 18db 00000000 		.long	.LASF349
 5639 18df 01       		.byte	0x1
 5640 18e0 0E02     		.value	0x20e
 5641 18e2 DE030000 		.long	0x3de
 5642 18e6 03       		.byte	0x3
 5643 18e7 91       		.byte	0x91
 5644 18e8 B87F     		.sleb128 -72
 5645 18ea 26       		.uleb128 0x26
 5646 18eb 696E00   		.string	"in"
 5647 18ee 01       		.byte	0x1
 5648 18ef 0E02     		.value	0x20e
 5649 18f1 1F040000 		.long	0x41f
 5650 18f5 03       		.byte	0x3
 5651 18f6 91       		.byte	0x91
 5652 18f7 B07F     		.sleb128 -80
 5653 18f9 26       		.uleb128 0x26
 5654 18fa 6F757400 		.string	"out"
 5655 18fe 01       		.byte	0x1
 5656 18ff 0E02     		.value	0x20e
 5657 1901 B4000000 		.long	0xb4
 5658 1905 03       		.byte	0x3
 5659 1906 91       		.byte	0x91
 5660 1907 A87F     		.sleb128 -88
 5661 1909 25       		.uleb128 0x25
 5662 190a 00000000 		.long	.LASF369
 5663 190e 01       		.byte	0x1
 5664 190f 0E02     		.value	0x20e
 5665 1911 62000000 		.long	0x62
 5666 1915 03       		.byte	0x3
 5667 1916 91       		.byte	0x91
 5668 1917 A47F     		.sleb128 -92
 5669 1919 27       		.uleb128 0x27
 5670 191a 637600   		.string	"cv"
 5671 191d 01       		.byte	0x1
 5672 191e 1102     		.value	0x211
 5673 1920 3D050000 		.long	0x53d
 5674 1924 02       		.byte	0x2
 5675 1925 91       		.byte	0x91
 5676 1926 40       		.sleb128 -64
 5677 1927 28       		.uleb128 0x28
GAS LISTING /tmp/ccf9IsGZ.s 			page 129


 5678 1928 00000000 		.long	.LASF357
 5679 192c 01       		.byte	0x1
 5680 192d 1202     		.value	0x212
 5681 192f 3D050000 		.long	0x53d
 5682 1933 02       		.byte	0x2
 5683 1934 91       		.byte	0x91
 5684 1935 50       		.sleb128 -48
 5685 1936 27       		.uleb128 0x27
 5686 1937 70696E00 		.string	"pin"
 5687 193b 01       		.byte	0x1
 5688 193c 1302     		.value	0x213
 5689 193e 3F150000 		.long	0x153f
 5690 1942 02       		.byte	0x2
 5691 1943 91       		.byte	0x91
 5692 1944 60       		.sleb128 -32
 5693 1945 28       		.uleb128 0x28
 5694 1946 00000000 		.long	.LASF370
 5695 194a 01       		.byte	0x1
 5696 194b 1402     		.value	0x214
 5697 194d 4A150000 		.long	0x154a
 5698 1951 02       		.byte	0x2
 5699 1952 91       		.byte	0x91
 5700 1953 68       		.sleb128 -24
 5701 1954 00       		.byte	0x0
 5702 1955 24       		.uleb128 0x24
 5703 1956 00000000 		.long	.LASF378
 5704 195a 01       		.byte	0x1
 5705 195b 2C02     		.value	0x22c
 5706 195d 01       		.byte	0x1
 5707 195e 7B000000 		.long	0x7b
 5708 1962 00000000 		.quad	.LFB623
 5708      00000000 
 5709 196a 00000000 		.quad	.LFE623
 5709      00000000 
 5710 1972 00000000 		.long	.LLST22
 5711 1976 F5190000 		.long	0x19f5
 5712 197a 25       		.uleb128 0x25
 5713 197b 00000000 		.long	.LASF349
 5714 197f 01       		.byte	0x1
 5715 1980 2C02     		.value	0x22c
 5716 1982 DE030000 		.long	0x3de
 5717 1986 03       		.byte	0x3
 5718 1987 91       		.byte	0x91
 5719 1988 B87F     		.sleb128 -72
 5720 198a 26       		.uleb128 0x26
 5721 198b 696E00   		.string	"in"
 5722 198e 01       		.byte	0x1
 5723 198f 2C02     		.value	0x22c
 5724 1991 1F040000 		.long	0x41f
 5725 1995 03       		.byte	0x3
 5726 1996 91       		.byte	0x91
 5727 1997 B07F     		.sleb128 -80
 5728 1999 26       		.uleb128 0x26
 5729 199a 6F757400 		.string	"out"
 5730 199e 01       		.byte	0x1
 5731 199f 2C02     		.value	0x22c
 5732 19a1 B4000000 		.long	0xb4
GAS LISTING /tmp/ccf9IsGZ.s 			page 130


 5733 19a5 03       		.byte	0x3
 5734 19a6 91       		.byte	0x91
 5735 19a7 A87F     		.sleb128 -88
 5736 19a9 25       		.uleb128 0x25
 5737 19aa 00000000 		.long	.LASF369
 5738 19ae 01       		.byte	0x1
 5739 19af 2C02     		.value	0x22c
 5740 19b1 62000000 		.long	0x62
 5741 19b5 03       		.byte	0x3
 5742 19b6 91       		.byte	0x91
 5743 19b7 A47F     		.sleb128 -92
 5744 19b9 27       		.uleb128 0x27
 5745 19ba 637600   		.string	"cv"
 5746 19bd 01       		.byte	0x1
 5747 19be 2F02     		.value	0x22f
 5748 19c0 3D050000 		.long	0x53d
 5749 19c4 02       		.byte	0x2
 5750 19c5 91       		.byte	0x91
 5751 19c6 40       		.sleb128 -64
 5752 19c7 28       		.uleb128 0x28
 5753 19c8 00000000 		.long	.LASF357
 5754 19cc 01       		.byte	0x1
 5755 19cd 3002     		.value	0x230
 5756 19cf 3D050000 		.long	0x53d
 5757 19d3 02       		.byte	0x2
 5758 19d4 91       		.byte	0x91
 5759 19d5 50       		.sleb128 -48
 5760 19d6 27       		.uleb128 0x27
 5761 19d7 70696E00 		.string	"pin"
 5762 19db 01       		.byte	0x1
 5763 19dc 3102     		.value	0x231
 5764 19de 3F150000 		.long	0x153f
 5765 19e2 02       		.byte	0x2
 5766 19e3 91       		.byte	0x91
 5767 19e4 60       		.sleb128 -32
 5768 19e5 28       		.uleb128 0x28
 5769 19e6 00000000 		.long	.LASF370
 5770 19ea 01       		.byte	0x1
 5771 19eb 3202     		.value	0x232
 5772 19ed 4A150000 		.long	0x154a
 5773 19f1 02       		.byte	0x2
 5774 19f2 91       		.byte	0x91
 5775 19f3 68       		.sleb128 -24
 5776 19f4 00       		.byte	0x0
 5777 19f5 24       		.uleb128 0x24
 5778 19f6 00000000 		.long	.LASF379
 5779 19fa 01       		.byte	0x1
 5780 19fb 4F02     		.value	0x24f
 5781 19fd 01       		.byte	0x1
 5782 19fe 7B000000 		.long	0x7b
 5783 1a02 00000000 		.quad	.LFB624
 5783      00000000 
 5784 1a0a 00000000 		.quad	.LFE624
 5784      00000000 
 5785 1a12 00000000 		.long	.LLST23
 5786 1a16 951A0000 		.long	0x1a95
 5787 1a1a 25       		.uleb128 0x25
GAS LISTING /tmp/ccf9IsGZ.s 			page 131


 5788 1a1b 00000000 		.long	.LASF349
 5789 1a1f 01       		.byte	0x1
 5790 1a20 4F02     		.value	0x24f
 5791 1a22 DE030000 		.long	0x3de
 5792 1a26 03       		.byte	0x3
 5793 1a27 91       		.byte	0x91
 5794 1a28 B87F     		.sleb128 -72
 5795 1a2a 26       		.uleb128 0x26
 5796 1a2b 696E00   		.string	"in"
 5797 1a2e 01       		.byte	0x1
 5798 1a2f 4F02     		.value	0x24f
 5799 1a31 1F040000 		.long	0x41f
 5800 1a35 03       		.byte	0x3
 5801 1a36 91       		.byte	0x91
 5802 1a37 B07F     		.sleb128 -80
 5803 1a39 26       		.uleb128 0x26
 5804 1a3a 6F757400 		.string	"out"
 5805 1a3e 01       		.byte	0x1
 5806 1a3f 4F02     		.value	0x24f
 5807 1a41 B4000000 		.long	0xb4
 5808 1a45 03       		.byte	0x3
 5809 1a46 91       		.byte	0x91
 5810 1a47 A87F     		.sleb128 -88
 5811 1a49 25       		.uleb128 0x25
 5812 1a4a 00000000 		.long	.LASF369
 5813 1a4e 01       		.byte	0x1
 5814 1a4f 4F02     		.value	0x24f
 5815 1a51 62000000 		.long	0x62
 5816 1a55 03       		.byte	0x3
 5817 1a56 91       		.byte	0x91
 5818 1a57 A47F     		.sleb128 -92
 5819 1a59 27       		.uleb128 0x27
 5820 1a5a 637600   		.string	"cv"
 5821 1a5d 01       		.byte	0x1
 5822 1a5e 5202     		.value	0x252
 5823 1a60 3D050000 		.long	0x53d
 5824 1a64 02       		.byte	0x2
 5825 1a65 91       		.byte	0x91
 5826 1a66 40       		.sleb128 -64
 5827 1a67 28       		.uleb128 0x28
 5828 1a68 00000000 		.long	.LASF357
 5829 1a6c 01       		.byte	0x1
 5830 1a6d 5302     		.value	0x253
 5831 1a6f 3D050000 		.long	0x53d
 5832 1a73 02       		.byte	0x2
 5833 1a74 91       		.byte	0x91
 5834 1a75 50       		.sleb128 -48
 5835 1a76 27       		.uleb128 0x27
 5836 1a77 70696E00 		.string	"pin"
 5837 1a7b 01       		.byte	0x1
 5838 1a7c 5402     		.value	0x254
 5839 1a7e 3F150000 		.long	0x153f
 5840 1a82 02       		.byte	0x2
 5841 1a83 91       		.byte	0x91
 5842 1a84 60       		.sleb128 -32
 5843 1a85 28       		.uleb128 0x28
 5844 1a86 00000000 		.long	.LASF370
GAS LISTING /tmp/ccf9IsGZ.s 			page 132


 5845 1a8a 01       		.byte	0x1
 5846 1a8b 5502     		.value	0x255
 5847 1a8d 4A150000 		.long	0x154a
 5848 1a91 02       		.byte	0x2
 5849 1a92 91       		.byte	0x91
 5850 1a93 68       		.sleb128 -24
 5851 1a94 00       		.byte	0x0
 5852 1a95 24       		.uleb128 0x24
 5853 1a96 00000000 		.long	.LASF380
 5854 1a9a 01       		.byte	0x1
 5855 1a9b 6D02     		.value	0x26d
 5856 1a9d 01       		.byte	0x1
 5857 1a9e 7B000000 		.long	0x7b
 5858 1aa2 00000000 		.quad	.LFB625
 5858      00000000 
 5859 1aaa 00000000 		.quad	.LFE625
 5859      00000000 
 5860 1ab2 00000000 		.long	.LLST24
 5861 1ab6 F61A0000 		.long	0x1af6
 5862 1aba 25       		.uleb128 0x25
 5863 1abb 00000000 		.long	.LASF349
 5864 1abf 01       		.byte	0x1
 5865 1ac0 6D02     		.value	0x26d
 5866 1ac2 DE030000 		.long	0x3de
 5867 1ac6 02       		.byte	0x2
 5868 1ac7 91       		.byte	0x91
 5869 1ac8 58       		.sleb128 -40
 5870 1ac9 26       		.uleb128 0x26
 5871 1aca 696E00   		.string	"in"
 5872 1acd 01       		.byte	0x1
 5873 1ace 6D02     		.value	0x26d
 5874 1ad0 1F040000 		.long	0x41f
 5875 1ad4 02       		.byte	0x2
 5876 1ad5 91       		.byte	0x91
 5877 1ad6 50       		.sleb128 -48
 5878 1ad7 26       		.uleb128 0x26
 5879 1ad8 6F757400 		.string	"out"
 5880 1adc 01       		.byte	0x1
 5881 1add 6D02     		.value	0x26d
 5882 1adf B4000000 		.long	0xb4
 5883 1ae3 02       		.byte	0x2
 5884 1ae4 91       		.byte	0x91
 5885 1ae5 48       		.sleb128 -56
 5886 1ae6 25       		.uleb128 0x25
 5887 1ae7 00000000 		.long	.LASF369
 5888 1aeb 01       		.byte	0x1
 5889 1aec 6D02     		.value	0x26d
 5890 1aee 62000000 		.long	0x62
 5891 1af2 02       		.byte	0x2
 5892 1af3 91       		.byte	0x91
 5893 1af4 44       		.sleb128 -60
 5894 1af5 00       		.byte	0x0
 5895 1af6 24       		.uleb128 0x24
 5896 1af7 00000000 		.long	.LASF381
 5897 1afb 01       		.byte	0x1
 5898 1afc 7B02     		.value	0x27b
 5899 1afe 01       		.byte	0x1
GAS LISTING /tmp/ccf9IsGZ.s 			page 133


 5900 1aff 7B000000 		.long	0x7b
 5901 1b03 00000000 		.quad	.LFB626
 5901      00000000 
 5902 1b0b 00000000 		.quad	.LFE626
 5902      00000000 
 5903 1b13 00000000 		.long	.LLST25
 5904 1b17 7F1B0000 		.long	0x1b7f
 5905 1b1b 25       		.uleb128 0x25
 5906 1b1c 00000000 		.long	.LASF349
 5907 1b20 01       		.byte	0x1
 5908 1b21 7B02     		.value	0x27b
 5909 1b23 DE030000 		.long	0x3de
 5910 1b27 02       		.byte	0x2
 5911 1b28 91       		.byte	0x91
 5912 1b29 68       		.sleb128 -24
 5913 1b2a 26       		.uleb128 0x26
 5914 1b2b 696E00   		.string	"in"
 5915 1b2e 01       		.byte	0x1
 5916 1b2f 7B02     		.value	0x27b
 5917 1b31 1F040000 		.long	0x41f
 5918 1b35 02       		.byte	0x2
 5919 1b36 91       		.byte	0x91
 5920 1b37 60       		.sleb128 -32
 5921 1b38 26       		.uleb128 0x26
 5922 1b39 6F757400 		.string	"out"
 5923 1b3d 01       		.byte	0x1
 5924 1b3e 7B02     		.value	0x27b
 5925 1b40 B4000000 		.long	0xb4
 5926 1b44 02       		.byte	0x2
 5927 1b45 91       		.byte	0x91
 5928 1b46 58       		.sleb128 -40
 5929 1b47 25       		.uleb128 0x25
 5930 1b48 00000000 		.long	.LASF369
 5931 1b4c 01       		.byte	0x1
 5932 1b4d 7B02     		.value	0x27b
 5933 1b4f 62000000 		.long	0x62
 5934 1b53 02       		.byte	0x2
 5935 1b54 91       		.byte	0x91
 5936 1b55 54       		.sleb128 -44
 5937 1b56 23       		.uleb128 0x23
 5938 1b57 00000000 		.long	.LASF353
 5939 1b5b 8F1B0000 		.long	0x1b8f
 5940 1b5f 01       		.byte	0x1
 5941 1b60 09       		.byte	0x9
 5942 1b61 03       		.byte	0x3
 5943 1b62 00000000 		.quad	__PRETTY_FUNCTION__.7677
 5943      00000000 
 5944 1b6a 23       		.uleb128 0x23
 5945 1b6b 00000000 		.long	.LASF354
 5946 1b6f 941B0000 		.long	0x1b94
 5947 1b73 01       		.byte	0x1
 5948 1b74 09       		.byte	0x9
 5949 1b75 03       		.byte	0x3
 5950 1b76 00000000 		.quad	__func__.7678
 5950      00000000 
 5951 1b7e 00       		.byte	0x0
 5952 1b7f 1B       		.uleb128 0x1b
GAS LISTING /tmp/ccf9IsGZ.s 			page 134


 5953 1b80 C1000000 		.long	0xc1
 5954 1b84 8F1B0000 		.long	0x1b8f
 5955 1b88 17       		.uleb128 0x17
 5956 1b89 B1000000 		.long	0xb1
 5957 1b8d 19       		.byte	0x19
 5958 1b8e 00       		.byte	0x0
 5959 1b8f 0B       		.uleb128 0xb
 5960 1b90 7F1B0000 		.long	0x1b7f
 5961 1b94 0B       		.uleb128 0xb
 5962 1b95 7F1B0000 		.long	0x1b7f
 5963 1b99 24       		.uleb128 0x24
 5964 1b9a 00000000 		.long	.LASF382
 5965 1b9e 01       		.byte	0x1
 5966 1b9f 8202     		.value	0x282
 5967 1ba1 01       		.byte	0x1
 5968 1ba2 7B000000 		.long	0x7b
 5969 1ba6 00000000 		.quad	.LFB627
 5969      00000000 
 5970 1bae 00000000 		.quad	.LFE627
 5970      00000000 
 5971 1bb6 00000000 		.long	.LLST26
 5972 1bba 221C0000 		.long	0x1c22
 5973 1bbe 25       		.uleb128 0x25
 5974 1bbf 00000000 		.long	.LASF349
 5975 1bc3 01       		.byte	0x1
 5976 1bc4 8202     		.value	0x282
 5977 1bc6 DE030000 		.long	0x3de
 5978 1bca 02       		.byte	0x2
 5979 1bcb 91       		.byte	0x91
 5980 1bcc 68       		.sleb128 -24
 5981 1bcd 26       		.uleb128 0x26
 5982 1bce 696E00   		.string	"in"
 5983 1bd1 01       		.byte	0x1
 5984 1bd2 8202     		.value	0x282
 5985 1bd4 1F040000 		.long	0x41f
 5986 1bd8 02       		.byte	0x2
 5987 1bd9 91       		.byte	0x91
 5988 1bda 60       		.sleb128 -32
 5989 1bdb 26       		.uleb128 0x26
 5990 1bdc 6F757400 		.string	"out"
 5991 1be0 01       		.byte	0x1
 5992 1be1 8202     		.value	0x282
 5993 1be3 B4000000 		.long	0xb4
 5994 1be7 02       		.byte	0x2
 5995 1be8 91       		.byte	0x91
 5996 1be9 58       		.sleb128 -40
 5997 1bea 25       		.uleb128 0x25
 5998 1beb 00000000 		.long	.LASF369
 5999 1bef 01       		.byte	0x1
 6000 1bf0 8202     		.value	0x282
 6001 1bf2 62000000 		.long	0x62
 6002 1bf6 02       		.byte	0x2
 6003 1bf7 91       		.byte	0x91
 6004 1bf8 54       		.sleb128 -44
 6005 1bf9 23       		.uleb128 0x23
 6006 1bfa 00000000 		.long	.LASF353
 6007 1bfe 221C0000 		.long	0x1c22
GAS LISTING /tmp/ccf9IsGZ.s 			page 135


 6008 1c02 01       		.byte	0x1
 6009 1c03 09       		.byte	0x9
 6010 1c04 03       		.byte	0x3
 6011 1c05 00000000 		.quad	__PRETTY_FUNCTION__.7687
 6011      00000000 
 6012 1c0d 23       		.uleb128 0x23
 6013 1c0e 00000000 		.long	.LASF354
 6014 1c12 271C0000 		.long	0x1c27
 6015 1c16 01       		.byte	0x1
 6016 1c17 09       		.byte	0x9
 6017 1c18 03       		.byte	0x3
 6018 1c19 00000000 		.quad	__func__.7688
 6018      00000000 
 6019 1c21 00       		.byte	0x0
 6020 1c22 0B       		.uleb128 0xb
 6021 1c23 7F1B0000 		.long	0x1b7f
 6022 1c27 0B       		.uleb128 0xb
 6023 1c28 7F1B0000 		.long	0x1b7f
 6024 1c2c 24       		.uleb128 0x24
 6025 1c2d 00000000 		.long	.LASF383
 6026 1c31 01       		.byte	0x1
 6027 1c32 A502     		.value	0x2a5
 6028 1c34 01       		.byte	0x1
 6029 1c35 7B000000 		.long	0x7b
 6030 1c39 00000000 		.quad	.LFB628
 6030      00000000 
 6031 1c41 00000000 		.quad	.LFE628
 6031      00000000 
 6032 1c49 00000000 		.long	.LLST27
 6033 1c4d A71C0000 		.long	0x1ca7
 6034 1c51 25       		.uleb128 0x25
 6035 1c52 00000000 		.long	.LASF384
 6036 1c56 01       		.byte	0x1
 6037 1c57 A502     		.value	0x2a5
 6038 1c59 A71C0000 		.long	0x1ca7
 6039 1c5d 02       		.byte	0x2
 6040 1c5e 91       		.byte	0x91
 6041 1c5f 58       		.sleb128 -40
 6042 1c60 25       		.uleb128 0x25
 6043 1c61 00000000 		.long	.LASF46
 6044 1c65 01       		.byte	0x1
 6045 1c66 A602     		.value	0x2a6
 6046 1c68 AD1C0000 		.long	0x1cad
 6047 1c6c 02       		.byte	0x2
 6048 1c6d 91       		.byte	0x91
 6049 1c6e 50       		.sleb128 -48
 6050 1c6f 27       		.uleb128 0x27
 6051 1c70 6F626A00 		.string	"obj"
 6052 1c74 01       		.byte	0x1
 6053 1c75 A802     		.value	0x2a8
 6054 1c77 B81C0000 		.long	0x1cb8
 6055 1c7b 02       		.byte	0x2
 6056 1c7c 91       		.byte	0x91
 6057 1c7d 68       		.sleb128 -24
 6058 1c7e 23       		.uleb128 0x23
 6059 1c7f 00000000 		.long	.LASF353
 6060 1c83 CE1C0000 		.long	0x1cce
GAS LISTING /tmp/ccf9IsGZ.s 			page 136


 6061 1c87 01       		.byte	0x1
 6062 1c88 09       		.byte	0x9
 6063 1c89 03       		.byte	0x3
 6064 1c8a 00000000 		.quad	__PRETTY_FUNCTION__.7697
 6064      00000000 
 6065 1c92 23       		.uleb128 0x23
 6066 1c93 00000000 		.long	.LASF354
 6067 1c97 D31C0000 		.long	0x1cd3
 6068 1c9b 01       		.byte	0x1
 6069 1c9c 09       		.byte	0x9
 6070 1c9d 03       		.byte	0x3
 6071 1c9e 00000000 		.quad	__func__.7698
 6071      00000000 
 6072 1ca6 00       		.byte	0x0
 6073 1ca7 0A       		.uleb128 0xa
 6074 1ca8 08       		.byte	0x8
 6075 1ca9 DE030000 		.long	0x3de
 6076 1cad 0A       		.uleb128 0xa
 6077 1cae 08       		.byte	0x8
 6078 1caf B31C0000 		.long	0x1cb3
 6079 1cb3 0B       		.uleb128 0xb
 6080 1cb4 98080000 		.long	0x898
 6081 1cb8 0A       		.uleb128 0xa
 6082 1cb9 08       		.byte	0x8
 6083 1cba CE070000 		.long	0x7ce
 6084 1cbe 1B       		.uleb128 0x1b
 6085 1cbf C1000000 		.long	0xc1
 6086 1cc3 CE1C0000 		.long	0x1cce
 6087 1cc7 17       		.uleb128 0x17
 6088 1cc8 B1000000 		.long	0xb1
 6089 1ccc 17       		.byte	0x17
 6090 1ccd 00       		.byte	0x0
 6091 1cce 0B       		.uleb128 0xb
 6092 1ccf BE1C0000 		.long	0x1cbe
 6093 1cd3 0B       		.uleb128 0xb
 6094 1cd4 BE1C0000 		.long	0x1cbe
 6095 1cd8 24       		.uleb128 0x24
 6096 1cd9 00000000 		.long	.LASF385
 6097 1cdd 01       		.byte	0x1
 6098 1cde B202     		.value	0x2b2
 6099 1ce0 01       		.byte	0x1
 6100 1ce1 7B000000 		.long	0x7b
 6101 1ce5 00000000 		.quad	.LFB629
 6101      00000000 
 6102 1ced 00000000 		.quad	.LFE629
 6102      00000000 
 6103 1cf5 00000000 		.long	.LLST28
 6104 1cf9 3A1D0000 		.long	0x1d3a
 6105 1cfd 25       		.uleb128 0x25
 6106 1cfe 00000000 		.long	.LASF349
 6107 1d02 01       		.byte	0x1
 6108 1d03 B202     		.value	0x2b2
 6109 1d05 DE030000 		.long	0x3de
 6110 1d09 02       		.byte	0x2
 6111 1d0a 91       		.byte	0x91
 6112 1d0b 58       		.sleb128 -40
 6113 1d0c 25       		.uleb128 0x25
GAS LISTING /tmp/ccf9IsGZ.s 			page 137


 6114 1d0d 00000000 		.long	.LASF46
 6115 1d11 01       		.byte	0x1
 6116 1d12 B302     		.value	0x2b3
 6117 1d14 AD1C0000 		.long	0x1cad
 6118 1d18 02       		.byte	0x2
 6119 1d19 91       		.byte	0x91
 6120 1d1a 50       		.sleb128 -48
 6121 1d1b 27       		.uleb128 0x27
 6122 1d1c 64616400 		.string	"dad"
 6123 1d20 01       		.byte	0x1
 6124 1d21 B502     		.value	0x2b5
 6125 1d23 3A1D0000 		.long	0x1d3a
 6126 1d27 02       		.byte	0x2
 6127 1d28 91       		.byte	0x91
 6128 1d29 60       		.sleb128 -32
 6129 1d2a 27       		.uleb128 0x27
 6130 1d2b 61657300 		.string	"aes"
 6131 1d2f 01       		.byte	0x1
 6132 1d30 B602     		.value	0x2b6
 6133 1d32 B81C0000 		.long	0x1cb8
 6134 1d36 02       		.byte	0x2
 6135 1d37 91       		.byte	0x91
 6136 1d38 68       		.sleb128 -24
 6137 1d39 00       		.byte	0x0
 6138 1d3a 0A       		.uleb128 0xa
 6139 1d3b 08       		.byte	0x8
 6140 1d3c 54010000 		.long	0x154
 6141 1d40 24       		.uleb128 0x24
 6142 1d41 00000000 		.long	.LASF386
 6143 1d45 01       		.byte	0x1
 6144 1d46 C802     		.value	0x2c8
 6145 1d48 01       		.byte	0x1
 6146 1d49 7B000000 		.long	0x7b
 6147 1d4d 00000000 		.quad	.LFB630
 6147      00000000 
 6148 1d55 00000000 		.quad	.LFE630
 6148      00000000 
 6149 1d5d 00000000 		.long	.LLST29
 6150 1d61 BB1D0000 		.long	0x1dbb
 6151 1d65 25       		.uleb128 0x25
 6152 1d66 00000000 		.long	.LASF384
 6153 1d6a 01       		.byte	0x1
 6154 1d6b C802     		.value	0x2c8
 6155 1d6d A71C0000 		.long	0x1ca7
 6156 1d71 02       		.byte	0x2
 6157 1d72 91       		.byte	0x91
 6158 1d73 58       		.sleb128 -40
 6159 1d74 25       		.uleb128 0x25
 6160 1d75 00000000 		.long	.LASF46
 6161 1d79 01       		.byte	0x1
 6162 1d7a C902     		.value	0x2c9
 6163 1d7c AD1C0000 		.long	0x1cad
 6164 1d80 02       		.byte	0x2
 6165 1d81 91       		.byte	0x91
 6166 1d82 50       		.sleb128 -48
 6167 1d83 27       		.uleb128 0x27
 6168 1d84 6F626A00 		.string	"obj"
GAS LISTING /tmp/ccf9IsGZ.s 			page 138


 6169 1d88 01       		.byte	0x1
 6170 1d89 CB02     		.value	0x2cb
 6171 1d8b BB1D0000 		.long	0x1dbb
 6172 1d8f 02       		.byte	0x2
 6173 1d90 91       		.byte	0x91
 6174 1d91 68       		.sleb128 -24
 6175 1d92 23       		.uleb128 0x23
 6176 1d93 00000000 		.long	.LASF353
 6177 1d97 D11D0000 		.long	0x1dd1
 6178 1d9b 01       		.byte	0x1
 6179 1d9c 09       		.byte	0x9
 6180 1d9d 03       		.byte	0x3
 6181 1d9e 00000000 		.quad	__PRETTY_FUNCTION__.7724
 6181      00000000 
 6182 1da6 23       		.uleb128 0x23
 6183 1da7 00000000 		.long	.LASF354
 6184 1dab D61D0000 		.long	0x1dd6
 6185 1daf 01       		.byte	0x1
 6186 1db0 09       		.byte	0x9
 6187 1db1 03       		.byte	0x3
 6188 1db2 00000000 		.quad	__func__.7725
 6188      00000000 
 6189 1dba 00       		.byte	0x0
 6190 1dbb 0A       		.uleb128 0xa
 6191 1dbc 08       		.byte	0x8
 6192 1dbd 30080000 		.long	0x830
 6193 1dc1 1B       		.uleb128 0x1b
 6194 1dc2 C1000000 		.long	0xc1
 6195 1dc6 D11D0000 		.long	0x1dd1
 6196 1dca 17       		.uleb128 0x17
 6197 1dcb B1000000 		.long	0xb1
 6198 1dcf 18       		.byte	0x18
 6199 1dd0 00       		.byte	0x0
 6200 1dd1 0B       		.uleb128 0xb
 6201 1dd2 C11D0000 		.long	0x1dc1
 6202 1dd6 0B       		.uleb128 0xb
 6203 1dd7 C11D0000 		.long	0x1dc1
 6204 1ddb 24       		.uleb128 0x24
 6205 1ddc 00000000 		.long	.LASF387
 6206 1de0 01       		.byte	0x1
 6207 1de1 D502     		.value	0x2d5
 6208 1de3 01       		.byte	0x1
 6209 1de4 7B000000 		.long	0x7b
 6210 1de8 00000000 		.quad	.LFB631
 6210      00000000 
 6211 1df0 00000000 		.quad	.LFE631
 6211      00000000 
 6212 1df8 00000000 		.long	.LLST30
 6213 1dfc 3D1E0000 		.long	0x1e3d
 6214 1e00 25       		.uleb128 0x25
 6215 1e01 00000000 		.long	.LASF349
 6216 1e05 01       		.byte	0x1
 6217 1e06 D502     		.value	0x2d5
 6218 1e08 DE030000 		.long	0x3de
 6219 1e0c 02       		.byte	0x2
 6220 1e0d 91       		.byte	0x91
 6221 1e0e 58       		.sleb128 -40
GAS LISTING /tmp/ccf9IsGZ.s 			page 139


 6222 1e0f 25       		.uleb128 0x25
 6223 1e10 00000000 		.long	.LASF46
 6224 1e14 01       		.byte	0x1
 6225 1e15 D602     		.value	0x2d6
 6226 1e17 AD1C0000 		.long	0x1cad
 6227 1e1b 02       		.byte	0x2
 6228 1e1c 91       		.byte	0x91
 6229 1e1d 50       		.sleb128 -48
 6230 1e1e 27       		.uleb128 0x27
 6231 1e1f 64616400 		.string	"dad"
 6232 1e23 01       		.byte	0x1
 6233 1e24 D802     		.value	0x2d8
 6234 1e26 3A1D0000 		.long	0x1d3a
 6235 1e2a 02       		.byte	0x2
 6236 1e2b 91       		.byte	0x91
 6237 1e2c 60       		.sleb128 -32
 6238 1e2d 28       		.uleb128 0x28
 6239 1e2e 00000000 		.long	.LASF388
 6240 1e32 01       		.byte	0x1
 6241 1e33 D902     		.value	0x2d9
 6242 1e35 BB1D0000 		.long	0x1dbb
 6243 1e39 02       		.byte	0x2
 6244 1e3a 91       		.byte	0x91
 6245 1e3b 68       		.sleb128 -24
 6246 1e3c 00       		.byte	0x0
 6247 1e3d 2A       		.uleb128 0x2a
 6248 1e3e 01       		.byte	0x1
 6249 1e3f 00000000 		.long	.LASF396
 6250 1e43 01       		.byte	0x1
 6251 1e44 EA02     		.value	0x2ea
 6252 1e46 01       		.byte	0x1
 6253 1e47 7B000000 		.long	0x7b
 6254 1e4b 00000000 		.quad	.LFB632
 6254      00000000 
 6255 1e53 00000000 		.quad	.LFE632
 6255      00000000 
 6256 1e5b 00000000 		.long	.LLST31
 6257 1e5f E81E0000 		.long	0x1ee8
 6258 1e63 25       		.uleb128 0x25
 6259 1e64 00000000 		.long	.LASF389
 6260 1e68 01       		.byte	0x1
 6261 1e69 EA02     		.value	0x2ea
 6262 1e6b E81E0000 		.long	0x1ee8
 6263 1e6f 02       		.byte	0x2
 6264 1e70 91       		.byte	0x91
 6265 1e71 48       		.sleb128 -56
 6266 1e72 25       		.uleb128 0x25
 6267 1e73 00000000 		.long	.LASF390
 6268 1e77 01       		.byte	0x1
 6269 1e78 EA02     		.value	0x2ea
 6270 1e7a 72080000 		.long	0x872
 6271 1e7e 02       		.byte	0x2
 6272 1e7f 91       		.byte	0x91
 6273 1e80 44       		.sleb128 -60
 6274 1e81 27       		.uleb128 0x27
 6275 1e82 726300   		.string	"rc"
 6276 1e85 01       		.byte	0x1
GAS LISTING /tmp/ccf9IsGZ.s 			page 140


 6277 1e86 EC02     		.value	0x2ec
 6278 1e88 7B000000 		.long	0x7b
 6279 1e8c 02       		.byte	0x2
 6280 1e8d 91       		.byte	0x91
 6281 1e8e 6C       		.sleb128 -20
 6282 1e8f 28       		.uleb128 0x28
 6283 1e90 00000000 		.long	.LASF46
 6284 1e94 01       		.byte	0x1
 6285 1e95 ED02     		.value	0x2ed
 6286 1e97 EE1E0000 		.long	0x1eee
 6287 1e9b 02       		.byte	0x2
 6288 1e9c 91       		.byte	0x91
 6289 1e9d 60       		.sleb128 -32
 6290 1e9e 23       		.uleb128 0x23
 6291 1e9f 00000000 		.long	.LASF353
 6292 1ea3 041F0000 		.long	0x1f04
 6293 1ea7 01       		.byte	0x1
 6294 1ea8 09       		.byte	0x9
 6295 1ea9 03       		.byte	0x3
 6296 1eaa 00000000 		.quad	__PRETTY_FUNCTION__.7752
 6296      00000000 
 6297 1eb2 23       		.uleb128 0x23
 6298 1eb3 00000000 		.long	.LASF354
 6299 1eb7 091F0000 		.long	0x1f09
 6300 1ebb 01       		.byte	0x1
 6301 1ebc 09       		.byte	0x9
 6302 1ebd 03       		.byte	0x3
 6303 1ebe 00000000 		.quad	__func__.7753
 6303      00000000 
 6304 1ec6 29       		.uleb128 0x29
 6305 1ec7 00000000 		.quad	.LBB5
 6305      00000000 
 6306 1ecf 00000000 		.quad	.LBE5
 6306      00000000 
 6307 1ed7 27       		.uleb128 0x27
 6308 1ed8 6F626A00 		.string	"obj"
 6309 1edc 01       		.byte	0x1
 6310 1edd 0403     		.value	0x304
 6311 1edf DE030000 		.long	0x3de
 6312 1ee3 02       		.byte	0x2
 6313 1ee4 91       		.byte	0x91
 6314 1ee5 58       		.sleb128 -40
 6315 1ee6 00       		.byte	0x0
 6316 1ee7 00       		.byte	0x0
 6317 1ee8 0A       		.uleb128 0xa
 6318 1ee9 08       		.byte	0x8
 6319 1eea 3A1D0000 		.long	0x1d3a
 6320 1eee 0A       		.uleb128 0xa
 6321 1eef 08       		.byte	0x8
 6322 1ef0 98080000 		.long	0x898
 6323 1ef4 1B       		.uleb128 0x1b
 6324 1ef5 C1000000 		.long	0xc1
 6325 1ef9 041F0000 		.long	0x1f04
 6326 1efd 17       		.uleb128 0x17
 6327 1efe B1000000 		.long	0xb1
 6328 1f02 13       		.byte	0x13
 6329 1f03 00       		.byte	0x0
GAS LISTING /tmp/ccf9IsGZ.s 			page 141


 6330 1f04 0B       		.uleb128 0xb
 6331 1f05 F41E0000 		.long	0x1ef4
 6332 1f09 0B       		.uleb128 0xb
 6333 1f0a F41E0000 		.long	0x1ef4
 6334 1f0e 28       		.uleb128 0x28
 6335 1f0f 00000000 		.long	.LASF391
 6336 1f13 01       		.byte	0x1
 6337 1f14 8802     		.value	0x288
 6338 1f16 87020000 		.long	0x287
 6339 1f1a 09       		.byte	0x9
 6340 1f1b 03       		.byte	0x3
 6341 1f1c 00000000 		.quad	KCipherVecAesNi_vt_v1
 6341      00000000 
 6342 1f24 1B       		.uleb128 0x1b
 6343 1f25 C1000000 		.long	0xc1
 6344 1f29 341F0000 		.long	0x1f34
 6345 1f2d 17       		.uleb128 0x17
 6346 1f2e B1000000 		.long	0xb1
 6347 1f32 0B       		.byte	0xb
 6348 1f33 00       		.byte	0x0
 6349 1f34 2B       		.uleb128 0x2b
 6350 1f35 00000000 		.long	.LASF397
 6351 1f39 01       		.byte	0x1
 6352 1f3a 36       		.byte	0x36
 6353 1f3b 4A1F0000 		.long	0x1f4a
 6354 1f3f 01       		.byte	0x1
 6355 1f40 09       		.byte	0x9
 6356 1f41 03       		.byte	0x3
 6357 1f42 00000000 		.quad	KCipherVecAesNiClassName
 6357      00000000 
 6358 1f4a 0B       		.uleb128 0xb
 6359 1f4b 241F0000 		.long	0x1f24
 6360 1f4f 00       		.byte	0x0
 6361              		.section	.debug_abbrev
 6362 0000 01       		.uleb128 0x1
 6363 0001 11       		.uleb128 0x11
 6364 0002 01       		.byte	0x1
 6365 0003 25       		.uleb128 0x25
 6366 0004 0E       		.uleb128 0xe
 6367 0005 13       		.uleb128 0x13
 6368 0006 0B       		.uleb128 0xb
 6369 0007 03       		.uleb128 0x3
 6370 0008 0E       		.uleb128 0xe
 6371 0009 1B       		.uleb128 0x1b
 6372 000a 0E       		.uleb128 0xe
 6373 000b 11       		.uleb128 0x11
 6374 000c 01       		.uleb128 0x1
 6375 000d 12       		.uleb128 0x12
 6376 000e 01       		.uleb128 0x1
 6377 000f 10       		.uleb128 0x10
 6378 0010 06       		.uleb128 0x6
 6379 0011 00       		.byte	0x0
 6380 0012 00       		.byte	0x0
 6381 0013 02       		.uleb128 0x2
 6382 0014 24       		.uleb128 0x24
 6383 0015 00       		.byte	0x0
 6384 0016 0B       		.uleb128 0xb
GAS LISTING /tmp/ccf9IsGZ.s 			page 142


 6385 0017 0B       		.uleb128 0xb
 6386 0018 3E       		.uleb128 0x3e
 6387 0019 0B       		.uleb128 0xb
 6388 001a 03       		.uleb128 0x3
 6389 001b 0E       		.uleb128 0xe
 6390 001c 00       		.byte	0x0
 6391 001d 00       		.byte	0x0
 6392 001e 03       		.uleb128 0x3
 6393 001f 24       		.uleb128 0x24
 6394 0020 00       		.byte	0x0
 6395 0021 0B       		.uleb128 0xb
 6396 0022 0B       		.uleb128 0xb
 6397 0023 3E       		.uleb128 0x3e
 6398 0024 0B       		.uleb128 0xb
 6399 0025 03       		.uleb128 0x3
 6400 0026 08       		.uleb128 0x8
 6401 0027 00       		.byte	0x0
 6402 0028 00       		.byte	0x0
 6403 0029 04       		.uleb128 0x4
 6404 002a 16       		.uleb128 0x16
 6405 002b 00       		.byte	0x0
 6406 002c 03       		.uleb128 0x3
 6407 002d 0E       		.uleb128 0xe
 6408 002e 3A       		.uleb128 0x3a
 6409 002f 0B       		.uleb128 0xb
 6410 0030 3B       		.uleb128 0x3b
 6411 0031 0B       		.uleb128 0xb
 6412 0032 49       		.uleb128 0x49
 6413 0033 13       		.uleb128 0x13
 6414 0034 00       		.byte	0x0
 6415 0035 00       		.byte	0x0
 6416 0036 05       		.uleb128 0x5
 6417 0037 13       		.uleb128 0x13
 6418 0038 01       		.byte	0x1
 6419 0039 03       		.uleb128 0x3
 6420 003a 0E       		.uleb128 0xe
 6421 003b 0B       		.uleb128 0xb
 6422 003c 0B       		.uleb128 0xb
 6423 003d 3A       		.uleb128 0x3a
 6424 003e 0B       		.uleb128 0xb
 6425 003f 3B       		.uleb128 0x3b
 6426 0040 0B       		.uleb128 0xb
 6427 0041 01       		.uleb128 0x1
 6428 0042 13       		.uleb128 0x13
 6429 0043 00       		.byte	0x0
 6430 0044 00       		.byte	0x0
 6431 0045 06       		.uleb128 0x6
 6432 0046 0D       		.uleb128 0xd
 6433 0047 00       		.byte	0x0
 6434 0048 03       		.uleb128 0x3
 6435 0049 0E       		.uleb128 0xe
 6436 004a 3A       		.uleb128 0x3a
 6437 004b 0B       		.uleb128 0xb
 6438 004c 3B       		.uleb128 0x3b
 6439 004d 0B       		.uleb128 0xb
 6440 004e 49       		.uleb128 0x49
 6441 004f 13       		.uleb128 0x13
GAS LISTING /tmp/ccf9IsGZ.s 			page 143


 6442 0050 38       		.uleb128 0x38
 6443 0051 0A       		.uleb128 0xa
 6444 0052 00       		.byte	0x0
 6445 0053 00       		.byte	0x0
 6446 0054 07       		.uleb128 0x7
 6447 0055 35       		.uleb128 0x35
 6448 0056 00       		.byte	0x0
 6449 0057 49       		.uleb128 0x49
 6450 0058 13       		.uleb128 0x13
 6451 0059 00       		.byte	0x0
 6452 005a 00       		.byte	0x0
 6453 005b 08       		.uleb128 0x8
 6454 005c 24       		.uleb128 0x24
 6455 005d 00       		.byte	0x0
 6456 005e 0B       		.uleb128 0xb
 6457 005f 0B       		.uleb128 0xb
 6458 0060 3E       		.uleb128 0x3e
 6459 0061 0B       		.uleb128 0xb
 6460 0062 00       		.byte	0x0
 6461 0063 00       		.byte	0x0
 6462 0064 09       		.uleb128 0x9
 6463 0065 0F       		.uleb128 0xf
 6464 0066 00       		.byte	0x0
 6465 0067 0B       		.uleb128 0xb
 6466 0068 0B       		.uleb128 0xb
 6467 0069 00       		.byte	0x0
 6468 006a 00       		.byte	0x0
 6469 006b 0A       		.uleb128 0xa
 6470 006c 0F       		.uleb128 0xf
 6471 006d 00       		.byte	0x0
 6472 006e 0B       		.uleb128 0xb
 6473 006f 0B       		.uleb128 0xb
 6474 0070 49       		.uleb128 0x49
 6475 0071 13       		.uleb128 0x13
 6476 0072 00       		.byte	0x0
 6477 0073 00       		.byte	0x0
 6478 0074 0B       		.uleb128 0xb
 6479 0075 26       		.uleb128 0x26
 6480 0076 00       		.byte	0x0
 6481 0077 49       		.uleb128 0x49
 6482 0078 13       		.uleb128 0x13
 6483 0079 00       		.byte	0x0
 6484 007a 00       		.byte	0x0
 6485 007b 0C       		.uleb128 0xc
 6486 007c 04       		.uleb128 0x4
 6487 007d 01       		.byte	0x1
 6488 007e 0B       		.uleb128 0xb
 6489 007f 0B       		.uleb128 0xb
 6490 0080 3A       		.uleb128 0x3a
 6491 0081 0B       		.uleb128 0xb
 6492 0082 3B       		.uleb128 0x3b
 6493 0083 0B       		.uleb128 0xb
 6494 0084 01       		.uleb128 0x1
 6495 0085 13       		.uleb128 0x13
 6496 0086 00       		.byte	0x0
 6497 0087 00       		.byte	0x0
 6498 0088 0D       		.uleb128 0xd
GAS LISTING /tmp/ccf9IsGZ.s 			page 144


 6499 0089 28       		.uleb128 0x28
 6500 008a 00       		.byte	0x0
 6501 008b 03       		.uleb128 0x3
 6502 008c 0E       		.uleb128 0xe
 6503 008d 1C       		.uleb128 0x1c
 6504 008e 0D       		.uleb128 0xd
 6505 008f 00       		.byte	0x0
 6506 0090 00       		.byte	0x0
 6507 0091 0E       		.uleb128 0xe
 6508 0092 0D       		.uleb128 0xd
 6509 0093 00       		.byte	0x0
 6510 0094 03       		.uleb128 0x3
 6511 0095 08       		.uleb128 0x8
 6512 0096 3A       		.uleb128 0x3a
 6513 0097 0B       		.uleb128 0xb
 6514 0098 3B       		.uleb128 0x3b
 6515 0099 0B       		.uleb128 0xb
 6516 009a 49       		.uleb128 0x49
 6517 009b 13       		.uleb128 0x13
 6518 009c 38       		.uleb128 0x38
 6519 009d 0A       		.uleb128 0xa
 6520 009e 00       		.byte	0x0
 6521 009f 00       		.byte	0x0
 6522 00a0 0F       		.uleb128 0xf
 6523 00a1 15       		.uleb128 0x15
 6524 00a2 01       		.byte	0x1
 6525 00a3 27       		.uleb128 0x27
 6526 00a4 0C       		.uleb128 0xc
 6527 00a5 01       		.uleb128 0x1
 6528 00a6 13       		.uleb128 0x13
 6529 00a7 00       		.byte	0x0
 6530 00a8 00       		.byte	0x0
 6531 00a9 10       		.uleb128 0x10
 6532 00aa 05       		.uleb128 0x5
 6533 00ab 00       		.byte	0x0
 6534 00ac 49       		.uleb128 0x49
 6535 00ad 13       		.uleb128 0x13
 6536 00ae 00       		.byte	0x0
 6537 00af 00       		.byte	0x0
 6538 00b0 11       		.uleb128 0x11
 6539 00b1 15       		.uleb128 0x15
 6540 00b2 01       		.byte	0x1
 6541 00b3 27       		.uleb128 0x27
 6542 00b4 0C       		.uleb128 0xc
 6543 00b5 49       		.uleb128 0x49
 6544 00b6 13       		.uleb128 0x13
 6545 00b7 01       		.uleb128 0x1
 6546 00b8 13       		.uleb128 0x13
 6547 00b9 00       		.byte	0x0
 6548 00ba 00       		.byte	0x0
 6549 00bb 12       		.uleb128 0x12
 6550 00bc 26       		.uleb128 0x26
 6551 00bd 00       		.byte	0x0
 6552 00be 00       		.byte	0x0
 6553 00bf 00       		.byte	0x0
 6554 00c0 13       		.uleb128 0x13
 6555 00c1 17       		.uleb128 0x17
GAS LISTING /tmp/ccf9IsGZ.s 			page 145


 6556 00c2 01       		.byte	0x1
 6557 00c3 03       		.uleb128 0x3
 6558 00c4 0E       		.uleb128 0xe
 6559 00c5 0B       		.uleb128 0xb
 6560 00c6 0B       		.uleb128 0xb
 6561 00c7 3A       		.uleb128 0x3a
 6562 00c8 0B       		.uleb128 0xb
 6563 00c9 3B       		.uleb128 0x3b
 6564 00ca 0B       		.uleb128 0xb
 6565 00cb 01       		.uleb128 0x1
 6566 00cc 13       		.uleb128 0x13
 6567 00cd 00       		.byte	0x0
 6568 00ce 00       		.byte	0x0
 6569 00cf 14       		.uleb128 0x14
 6570 00d0 0D       		.uleb128 0xd
 6571 00d1 00       		.byte	0x0
 6572 00d2 03       		.uleb128 0x3
 6573 00d3 0E       		.uleb128 0xe
 6574 00d4 3A       		.uleb128 0x3a
 6575 00d5 0B       		.uleb128 0xb
 6576 00d6 3B       		.uleb128 0x3b
 6577 00d7 0B       		.uleb128 0xb
 6578 00d8 49       		.uleb128 0x49
 6579 00d9 13       		.uleb128 0x13
 6580 00da 00       		.byte	0x0
 6581 00db 00       		.byte	0x0
 6582 00dc 15       		.uleb128 0x15
 6583 00dd 0D       		.uleb128 0xd
 6584 00de 00       		.byte	0x0
 6585 00df 03       		.uleb128 0x3
 6586 00e0 08       		.uleb128 0x8
 6587 00e1 3A       		.uleb128 0x3a
 6588 00e2 0B       		.uleb128 0xb
 6589 00e3 3B       		.uleb128 0x3b
 6590 00e4 0B       		.uleb128 0xb
 6591 00e5 49       		.uleb128 0x49
 6592 00e6 13       		.uleb128 0x13
 6593 00e7 00       		.byte	0x0
 6594 00e8 00       		.byte	0x0
 6595 00e9 16       		.uleb128 0x16
 6596 00ea 01       		.uleb128 0x1
 6597 00eb 01       		.byte	0x1
 6598 00ec 8742     		.uleb128 0x2107
 6599 00ee 0C       		.uleb128 0xc
 6600 00ef 49       		.uleb128 0x49
 6601 00f0 13       		.uleb128 0x13
 6602 00f1 01       		.uleb128 0x1
 6603 00f2 13       		.uleb128 0x13
 6604 00f3 00       		.byte	0x0
 6605 00f4 00       		.byte	0x0
 6606 00f5 17       		.uleb128 0x17
 6607 00f6 21       		.uleb128 0x21
 6608 00f7 00       		.byte	0x0
 6609 00f8 49       		.uleb128 0x49
 6610 00f9 13       		.uleb128 0x13
 6611 00fa 2F       		.uleb128 0x2f
 6612 00fb 0B       		.uleb128 0xb
GAS LISTING /tmp/ccf9IsGZ.s 			page 146


 6613 00fc 00       		.byte	0x0
 6614 00fd 00       		.byte	0x0
 6615 00fe 18       		.uleb128 0x18
 6616 00ff 15       		.uleb128 0x15
 6617 0100 01       		.byte	0x1
 6618 0101 49       		.uleb128 0x49
 6619 0102 13       		.uleb128 0x13
 6620 0103 01       		.uleb128 0x1
 6621 0104 13       		.uleb128 0x13
 6622 0105 00       		.byte	0x0
 6623 0106 00       		.byte	0x0
 6624 0107 19       		.uleb128 0x19
 6625 0108 18       		.uleb128 0x18
 6626 0109 00       		.byte	0x0
 6627 010a 00       		.byte	0x0
 6628 010b 00       		.byte	0x0
 6629 010c 1A       		.uleb128 0x1a
 6630 010d 13       		.uleb128 0x13
 6631 010e 01       		.byte	0x1
 6632 010f 03       		.uleb128 0x3
 6633 0110 0E       		.uleb128 0xe
 6634 0111 0B       		.uleb128 0xb
 6635 0112 05       		.uleb128 0x5
 6636 0113 3A       		.uleb128 0x3a
 6637 0114 0B       		.uleb128 0xb
 6638 0115 3B       		.uleb128 0x3b
 6639 0116 0B       		.uleb128 0xb
 6640 0117 01       		.uleb128 0x1
 6641 0118 13       		.uleb128 0x13
 6642 0119 00       		.byte	0x0
 6643 011a 00       		.byte	0x0
 6644 011b 1B       		.uleb128 0x1b
 6645 011c 01       		.uleb128 0x1
 6646 011d 01       		.byte	0x1
 6647 011e 49       		.uleb128 0x49
 6648 011f 13       		.uleb128 0x13
 6649 0120 01       		.uleb128 0x1
 6650 0121 13       		.uleb128 0x13
 6651 0122 00       		.byte	0x0
 6652 0123 00       		.byte	0x0
 6653 0124 1C       		.uleb128 0x1c
 6654 0125 04       		.uleb128 0x4
 6655 0126 01       		.byte	0x1
 6656 0127 03       		.uleb128 0x3
 6657 0128 0E       		.uleb128 0xe
 6658 0129 0B       		.uleb128 0xb
 6659 012a 0B       		.uleb128 0xb
 6660 012b 3A       		.uleb128 0x3a
 6661 012c 0B       		.uleb128 0xb
 6662 012d 3B       		.uleb128 0x3b
 6663 012e 0B       		.uleb128 0xb
 6664 012f 01       		.uleb128 0x1
 6665 0130 13       		.uleb128 0x13
 6666 0131 00       		.byte	0x0
 6667 0132 00       		.byte	0x0
 6668 0133 1D       		.uleb128 0x1d
 6669 0134 04       		.uleb128 0x4
GAS LISTING /tmp/ccf9IsGZ.s 			page 147


 6670 0135 01       		.byte	0x1
 6671 0136 03       		.uleb128 0x3
 6672 0137 0E       		.uleb128 0xe
 6673 0138 0B       		.uleb128 0xb
 6674 0139 0B       		.uleb128 0xb
 6675 013a 3A       		.uleb128 0x3a
 6676 013b 0B       		.uleb128 0xb
 6677 013c 3B       		.uleb128 0x3b
 6678 013d 05       		.uleb128 0x5
 6679 013e 01       		.uleb128 0x1
 6680 013f 13       		.uleb128 0x13
 6681 0140 00       		.byte	0x0
 6682 0141 00       		.byte	0x0
 6683 0142 1E       		.uleb128 0x1e
 6684 0143 2E       		.uleb128 0x2e
 6685 0144 01       		.byte	0x1
 6686 0145 03       		.uleb128 0x3
 6687 0146 0E       		.uleb128 0xe
 6688 0147 3A       		.uleb128 0x3a
 6689 0148 0B       		.uleb128 0xb
 6690 0149 3B       		.uleb128 0x3b
 6691 014a 0B       		.uleb128 0xb
 6692 014b 27       		.uleb128 0x27
 6693 014c 0C       		.uleb128 0xc
 6694 014d 49       		.uleb128 0x49
 6695 014e 13       		.uleb128 0x13
 6696 014f 11       		.uleb128 0x11
 6697 0150 01       		.uleb128 0x1
 6698 0151 12       		.uleb128 0x12
 6699 0152 01       		.uleb128 0x1
 6700 0153 40       		.uleb128 0x40
 6701 0154 06       		.uleb128 0x6
 6702 0155 01       		.uleb128 0x1
 6703 0156 13       		.uleb128 0x13
 6704 0157 00       		.byte	0x0
 6705 0158 00       		.byte	0x0
 6706 0159 1F       		.uleb128 0x1f
 6707 015a 05       		.uleb128 0x5
 6708 015b 00       		.byte	0x0
 6709 015c 03       		.uleb128 0x3
 6710 015d 0E       		.uleb128 0xe
 6711 015e 3A       		.uleb128 0x3a
 6712 015f 0B       		.uleb128 0xb
 6713 0160 3B       		.uleb128 0x3b
 6714 0161 0B       		.uleb128 0xb
 6715 0162 49       		.uleb128 0x49
 6716 0163 13       		.uleb128 0x13
 6717 0164 02       		.uleb128 0x2
 6718 0165 0A       		.uleb128 0xa
 6719 0166 00       		.byte	0x0
 6720 0167 00       		.byte	0x0
 6721 0168 20       		.uleb128 0x20
 6722 0169 34       		.uleb128 0x34
 6723 016a 00       		.byte	0x0
 6724 016b 03       		.uleb128 0x3
 6725 016c 08       		.uleb128 0x8
 6726 016d 3A       		.uleb128 0x3a
GAS LISTING /tmp/ccf9IsGZ.s 			page 148


 6727 016e 0B       		.uleb128 0xb
 6728 016f 3B       		.uleb128 0x3b
 6729 0170 0B       		.uleb128 0xb
 6730 0171 49       		.uleb128 0x49
 6731 0172 13       		.uleb128 0x13
 6732 0173 02       		.uleb128 0x2
 6733 0174 0A       		.uleb128 0xa
 6734 0175 00       		.byte	0x0
 6735 0176 00       		.byte	0x0
 6736 0177 21       		.uleb128 0x21
 6737 0178 2E       		.uleb128 0x2e
 6738 0179 01       		.byte	0x1
 6739 017a 03       		.uleb128 0x3
 6740 017b 0E       		.uleb128 0xe
 6741 017c 3A       		.uleb128 0x3a
 6742 017d 0B       		.uleb128 0xb
 6743 017e 3B       		.uleb128 0x3b
 6744 017f 0B       		.uleb128 0xb
 6745 0180 27       		.uleb128 0x27
 6746 0181 0C       		.uleb128 0xc
 6747 0182 11       		.uleb128 0x11
 6748 0183 01       		.uleb128 0x1
 6749 0184 12       		.uleb128 0x12
 6750 0185 01       		.uleb128 0x1
 6751 0186 40       		.uleb128 0x40
 6752 0187 06       		.uleb128 0x6
 6753 0188 01       		.uleb128 0x1
 6754 0189 13       		.uleb128 0x13
 6755 018a 00       		.byte	0x0
 6756 018b 00       		.byte	0x0
 6757 018c 22       		.uleb128 0x22
 6758 018d 05       		.uleb128 0x5
 6759 018e 00       		.byte	0x0
 6760 018f 03       		.uleb128 0x3
 6761 0190 08       		.uleb128 0x8
 6762 0191 3A       		.uleb128 0x3a
 6763 0192 0B       		.uleb128 0xb
 6764 0193 3B       		.uleb128 0x3b
 6765 0194 0B       		.uleb128 0xb
 6766 0195 49       		.uleb128 0x49
 6767 0196 13       		.uleb128 0x13
 6768 0197 02       		.uleb128 0x2
 6769 0198 0A       		.uleb128 0xa
 6770 0199 00       		.byte	0x0
 6771 019a 00       		.byte	0x0
 6772 019b 23       		.uleb128 0x23
 6773 019c 34       		.uleb128 0x34
 6774 019d 00       		.byte	0x0
 6775 019e 03       		.uleb128 0x3
 6776 019f 0E       		.uleb128 0xe
 6777 01a0 49       		.uleb128 0x49
 6778 01a1 13       		.uleb128 0x13
 6779 01a2 34       		.uleb128 0x34
 6780 01a3 0C       		.uleb128 0xc
 6781 01a4 02       		.uleb128 0x2
 6782 01a5 0A       		.uleb128 0xa
 6783 01a6 00       		.byte	0x0
GAS LISTING /tmp/ccf9IsGZ.s 			page 149


 6784 01a7 00       		.byte	0x0
 6785 01a8 24       		.uleb128 0x24
 6786 01a9 2E       		.uleb128 0x2e
 6787 01aa 01       		.byte	0x1
 6788 01ab 03       		.uleb128 0x3
 6789 01ac 0E       		.uleb128 0xe
 6790 01ad 3A       		.uleb128 0x3a
 6791 01ae 0B       		.uleb128 0xb
 6792 01af 3B       		.uleb128 0x3b
 6793 01b0 05       		.uleb128 0x5
 6794 01b1 27       		.uleb128 0x27
 6795 01b2 0C       		.uleb128 0xc
 6796 01b3 49       		.uleb128 0x49
 6797 01b4 13       		.uleb128 0x13
 6798 01b5 11       		.uleb128 0x11
 6799 01b6 01       		.uleb128 0x1
 6800 01b7 12       		.uleb128 0x12
 6801 01b8 01       		.uleb128 0x1
 6802 01b9 40       		.uleb128 0x40
 6803 01ba 06       		.uleb128 0x6
 6804 01bb 01       		.uleb128 0x1
 6805 01bc 13       		.uleb128 0x13
 6806 01bd 00       		.byte	0x0
 6807 01be 00       		.byte	0x0
 6808 01bf 25       		.uleb128 0x25
 6809 01c0 05       		.uleb128 0x5
 6810 01c1 00       		.byte	0x0
 6811 01c2 03       		.uleb128 0x3
 6812 01c3 0E       		.uleb128 0xe
 6813 01c4 3A       		.uleb128 0x3a
 6814 01c5 0B       		.uleb128 0xb
 6815 01c6 3B       		.uleb128 0x3b
 6816 01c7 05       		.uleb128 0x5
 6817 01c8 49       		.uleb128 0x49
 6818 01c9 13       		.uleb128 0x13
 6819 01ca 02       		.uleb128 0x2
 6820 01cb 0A       		.uleb128 0xa
 6821 01cc 00       		.byte	0x0
 6822 01cd 00       		.byte	0x0
 6823 01ce 26       		.uleb128 0x26
 6824 01cf 05       		.uleb128 0x5
 6825 01d0 00       		.byte	0x0
 6826 01d1 03       		.uleb128 0x3
 6827 01d2 08       		.uleb128 0x8
 6828 01d3 3A       		.uleb128 0x3a
 6829 01d4 0B       		.uleb128 0xb
 6830 01d5 3B       		.uleb128 0x3b
 6831 01d6 05       		.uleb128 0x5
 6832 01d7 49       		.uleb128 0x49
 6833 01d8 13       		.uleb128 0x13
 6834 01d9 02       		.uleb128 0x2
 6835 01da 0A       		.uleb128 0xa
 6836 01db 00       		.byte	0x0
 6837 01dc 00       		.byte	0x0
 6838 01dd 27       		.uleb128 0x27
 6839 01de 34       		.uleb128 0x34
 6840 01df 00       		.byte	0x0
GAS LISTING /tmp/ccf9IsGZ.s 			page 150


 6841 01e0 03       		.uleb128 0x3
 6842 01e1 08       		.uleb128 0x8
 6843 01e2 3A       		.uleb128 0x3a
 6844 01e3 0B       		.uleb128 0xb
 6845 01e4 3B       		.uleb128 0x3b
 6846 01e5 05       		.uleb128 0x5
 6847 01e6 49       		.uleb128 0x49
 6848 01e7 13       		.uleb128 0x13
 6849 01e8 02       		.uleb128 0x2
 6850 01e9 0A       		.uleb128 0xa
 6851 01ea 00       		.byte	0x0
 6852 01eb 00       		.byte	0x0
 6853 01ec 28       		.uleb128 0x28
 6854 01ed 34       		.uleb128 0x34
 6855 01ee 00       		.byte	0x0
 6856 01ef 03       		.uleb128 0x3
 6857 01f0 0E       		.uleb128 0xe
 6858 01f1 3A       		.uleb128 0x3a
 6859 01f2 0B       		.uleb128 0xb
 6860 01f3 3B       		.uleb128 0x3b
 6861 01f4 05       		.uleb128 0x5
 6862 01f5 49       		.uleb128 0x49
 6863 01f6 13       		.uleb128 0x13
 6864 01f7 02       		.uleb128 0x2
 6865 01f8 0A       		.uleb128 0xa
 6866 01f9 00       		.byte	0x0
 6867 01fa 00       		.byte	0x0
 6868 01fb 29       		.uleb128 0x29
 6869 01fc 0B       		.uleb128 0xb
 6870 01fd 01       		.byte	0x1
 6871 01fe 11       		.uleb128 0x11
 6872 01ff 01       		.uleb128 0x1
 6873 0200 12       		.uleb128 0x12
 6874 0201 01       		.uleb128 0x1
 6875 0202 00       		.byte	0x0
 6876 0203 00       		.byte	0x0
 6877 0204 2A       		.uleb128 0x2a
 6878 0205 2E       		.uleb128 0x2e
 6879 0206 01       		.byte	0x1
 6880 0207 3F       		.uleb128 0x3f
 6881 0208 0C       		.uleb128 0xc
 6882 0209 03       		.uleb128 0x3
 6883 020a 0E       		.uleb128 0xe
 6884 020b 3A       		.uleb128 0x3a
 6885 020c 0B       		.uleb128 0xb
 6886 020d 3B       		.uleb128 0x3b
 6887 020e 05       		.uleb128 0x5
 6888 020f 27       		.uleb128 0x27
 6889 0210 0C       		.uleb128 0xc
 6890 0211 49       		.uleb128 0x49
 6891 0212 13       		.uleb128 0x13
 6892 0213 11       		.uleb128 0x11
 6893 0214 01       		.uleb128 0x1
 6894 0215 12       		.uleb128 0x12
 6895 0216 01       		.uleb128 0x1
 6896 0217 40       		.uleb128 0x40
 6897 0218 06       		.uleb128 0x6
GAS LISTING /tmp/ccf9IsGZ.s 			page 151


 6898 0219 01       		.uleb128 0x1
 6899 021a 13       		.uleb128 0x13
 6900 021b 00       		.byte	0x0
 6901 021c 00       		.byte	0x0
 6902 021d 2B       		.uleb128 0x2b
 6903 021e 34       		.uleb128 0x34
 6904 021f 00       		.byte	0x0
 6905 0220 03       		.uleb128 0x3
 6906 0221 0E       		.uleb128 0xe
 6907 0222 3A       		.uleb128 0x3a
 6908 0223 0B       		.uleb128 0xb
 6909 0224 3B       		.uleb128 0x3b
 6910 0225 0B       		.uleb128 0xb
 6911 0226 49       		.uleb128 0x49
 6912 0227 13       		.uleb128 0x13
 6913 0228 3F       		.uleb128 0x3f
 6914 0229 0C       		.uleb128 0xc
 6915 022a 02       		.uleb128 0x2
 6916 022b 0A       		.uleb128 0xa
 6917 022c 00       		.byte	0x0
 6918 022d 00       		.byte	0x0
 6919 022e 00       		.byte	0x0
 6920              		.section	.debug_pubnames,"",@progbits
 6921 0000 43000000 		.long	0x43
 6922 0004 0200     		.value	0x2
 6923 0006 00000000 		.long	.Ldebug_info0
 6924 000a 501F0000 		.long	0x1f50
 6925 000e 3D1E0000 		.long	0x1e3d
 6926 0012 4B436970 		.string	"KCipherVecAesNiMake"
 6926      68657256 
 6926      65634165 
 6926      734E694D 
 6926      616B6500 
 6927 0026 341F0000 		.long	0x1f34
 6928 002a 4B436970 		.string	"KCipherVecAesNiClassName"
 6928      68657256 
 6928      65634165 
 6928      734E6943 
 6928      6C617373 
 6929 0043 00000000 		.long	0x0
 6930              		.section	.debug_aranges,"",@progbits
 6931 0000 2C000000 		.long	0x2c
 6932 0004 0200     		.value	0x2
 6933 0006 00000000 		.long	.Ldebug_info0
 6934 000a 08       		.byte	0x8
 6935 000b 00       		.byte	0x0
 6936 000c 0000     		.value	0x0
 6937 000e 0000     		.value	0x0
 6938 0010 00000000 		.quad	.Ltext0
 6938      00000000 
 6939 0018 64100000 		.quad	.Letext0-.Ltext0
 6939      00000000 
 6940 0020 00000000 		.quad	0x0
 6940      00000000 
 6941 0028 00000000 		.quad	0x0
 6941      00000000 
 6942              		.section	.debug_str,"MS",@progbits,1
GAS LISTING /tmp/ccf9IsGZ.s 			page 152


 6943              	.LASF89:
 6944 0000 645F6B65 		.string	"d_key"
 6944      7900
 6945              	.LASF331:
 6946 0006 72634475 		.string	"rcDuplicate"
 6946      706C6963 
 6946      61746500 
 6947              	.LASF134:
 6948 0012 7263436F 		.string	"rcCondition"
 6948      6E646974 
 6948      696F6E00 
 6949              	.LASF248:
 6950 001e 7263456E 		.string	"rcEncrypting"
 6950      63727970 
 6950      74696E67 
 6950      00
 6951              	.LASF207:
 6952 002b 72634F70 		.string	"rcOpening"
 6952      656E696E 
 6952      6700
 6953              	.LASF378:
 6954 0035 4B436970 		.string	"KCipherVecAesNiDecryptCfb"
 6954      68657256 
 6954      65634165 
 6954      734E6944 
 6954      65637279 
 6955              	.LASF215:
 6956 004f 72635065 		.string	"rcPersisting"
 6956      72736973 
 6956      74696E67 
 6956      00
 6957              	.LASF253:
 6958 005c 72635365 		.string	"rcSending"
 6958      6E64696E 
 6958      6700
 6959              	.LASF363:
 6960 0066 4B436970 		.string	"KCipherVecAesNiDecryptV1"
 6960      68657256 
 6960      65634165 
 6960      734E6944 
 6960      65637279 
 6961              	.LASF247:
 6962 007f 72634170 		.string	"rcAppending"
 6962      70656E64 
 6962      696E6700 
 6963              	.LASF233:
 6964 008b 72635369 		.string	"rcSignaling"
 6964      676E616C 
 6964      696E6700 
 6965              	.LASF14:
 6966 0097 4442475F 		.string	"DBG_BLAST"
 6966      424C4153 
 6966      5400
 6967              	.LASF289:
 6968 00a1 72635369 		.string	"rcSignalSet"
 6968      676E616C 
 6968      53657400 
GAS LISTING /tmp/ccf9IsGZ.s 			page 153


 6969              	.LASF235:
 6970 00ad 72634174 		.string	"rcAttaching"
 6970      74616368 
 6970      696E6700 
 6971              	.LASF167:
 6972 00b9 72635461 		.string	"rcTable"
 6972      626C6500 
 6973              	.LASF66:
 6974 00c1 64656372 		.string	"decrypt_cfb"
 6974      7970745F 
 6974      63666200 
 6975              	.LASF131:
 6976 00cd 72634275 		.string	"rcBuffer"
 6976      66666572 
 6976      00
 6977              	.LASF263:
 6978 00d6 72634D65 		.string	"rcMemory"
 6978      6D6F7279 
 6978      00
 6979              	.LASF196:
 6980 00df 72634C6F 		.string	"rcLocking"
 6980      636B696E 
 6980      6700
 6981              	.LASF231:
 6982 00e9 72635061 		.string	"rcParsing"
 6982      7273696E 
 6982      6700
 6983              	.LASF260:
 6984 00f3 72635365 		.string	"rcSelf"
 6984      6C6600
 6985              	.LASF153:
 6986 00fa 72634D65 		.string	"rcMetadata"
 6986      74616461 
 6986      746100
 6987              	.LASF276:
 6988 0105 72634172 		.string	"rcArcHardLink"
 6988      63486172 
 6988      644C696E 
 6988      6B00
 6989              	.LASF102:
 6990 0113 7263436F 		.string	"rcCont"
 6990      6E7400
 6991              	.LASF284:
 6992 011a 72634368 		.string	"rcChecksum"
 6992      65636B73 
 6992      756D00
 6993              	.LASF354:
 6994 0125 5F5F6675 		.string	"__func__"
 6994      6E635F5F 
 6994      00
 6995              	.LASF328:
 6996 012e 7263546F 		.string	"rcTooShort"
 6996      6F53686F 
 6996      727400
 6997              	.LASF158:
 6998 0139 72635061 		.string	"rcPagemap"
 6998      67656D61 
GAS LISTING /tmp/ccf9IsGZ.s 			page 154


 6998      7000
 6999              	.LASF110:
 7000 0143 72634170 		.string	"rcApp"
 7000      7000
 7001              	.LASF10:
 7002 0149 61746F6D 		.string	"atomic32_t"
 7002      69633332 
 7002      5F7400
 7003              	.LASF56:
 7004 0154 7365745F 		.string	"set_decrypt_ctr_func"
 7004      64656372 
 7004      7970745F 
 7004      6374725F 
 7004      66756E63 
 7005              	.LASF65:
 7006 0169 656E6372 		.string	"encrypt_cfb"
 7006      7970745F 
 7006      63666200 
 7007              	.LASF172:
 7008 0175 72635472 		.string	"rcTrie"
 7008      696500
 7009              	.LASF113:
 7010 017c 72634C61 		.string	"rcLastModule_v1_0"
 7010      73744D6F 
 7010      64756C65 
 7010      5F76315F 
 7010      3000
 7011              	.LASF120:
 7012 018e 72634C61 		.string	"rcLastModule_v1_1"
 7012      73744D6F 
 7012      64756C65 
 7012      5F76315F 
 7012      3100
 7013              	.LASF271:
 7014 01a0 72634279 		.string	"rcByteOrder"
 7014      74654F72 
 7014      64657200 
 7015              	.LASF84:
 7016 01ac 4145534B 		.string	"AESKeySchedule"
 7016      65795363 
 7016      68656475 
 7016      6C6500
 7017              	.LASF359:
 7018 01bb 4B436970 		.string	"KCipherVecAesNiSetEncryptCounterFunc"
 7018      68657256 
 7018      65634165 
 7018      734E6953 
 7018      6574456E 
 7019              	.LASF332:
 7020 01e0 72634F75 		.string	"rcOutOfKDirectory"
 7020      744F664B 
 7020      44697265 
 7020      63746F72 
 7020      7900
 7021              	.LASF85:
 7022 01f2 726F756E 		.string	"round_keys"
 7022      645F6B65 
GAS LISTING /tmp/ccf9IsGZ.s 			page 155


 7022      797300
 7023              	.LASF189:
 7024 01fd 7263436F 		.string	"rcConstructing"
 7024      6E737472 
 7024      75637469 
 7024      6E6700
 7025              	.LASF95:
 7026 020c 6B636970 		.string	"kcipher_AES"
 7026      6865725F 
 7026      41455300 
 7027              	.LASF96:
 7028 0218 6B636970 		.string	"kcipher_count"
 7028      6865725F 
 7028      636F756E 
 7028      7400
 7029              	.LASF390:
 7030 0226 74797065 		.string	"type"
 7030      00
 7031              	.LASF9:
 7032 022b 72635F74 		.string	"rc_t"
 7032      00
 7033              	.LASF265:
 7034 0230 7263466F 		.string	"rcFormat"
 7034      726D6174 
 7034      00
 7035              	.LASF367:
 7036 0239 4B436970 		.string	"KCipherVecAesNiDecrypt"
 7036      68657256 
 7036      65634165 
 7036      734E6944 
 7036      65637279 
 7037              	.LASF323:
 7038 0250 7263556E 		.string	"rcUnauthorized"
 7038      61757468 
 7038      6F72697A 
 7038      656400
 7039              	.LASF355:
 7040 025f 4B436970 		.string	"KCipherVecAesNiSetDecryptKey"
 7040      68657256 
 7040      65634165 
 7040      734E6953 
 7040      65744465 
 7041              	.LASF346:
 7042 027c 63766F75 		.string	"cvout"
 7042      7400
 7043              	.LASF203:
 7044 0282 72635265 		.string	"rcRemoving"
 7044      6D6F7669 
 7044      6E6700
 7045              	.LASF116:
 7046 028d 72634B72 		.string	"rcKrypto"
 7046      7970746F 
 7046      00
 7047              	.LASF379:
 7048 0296 4B436970 		.string	"KCipherVecAesNiEncryptOfb"
 7048      68657256 
 7048      65634165 
GAS LISTING /tmp/ccf9IsGZ.s 			page 156


 7048      734E6945 
 7048      6E637279 
 7049              	.LASF194:
 7050 02b0 72635669 		.string	"rcVisiting"
 7050      73697469 
 7050      6E6700
 7051              	.LASF124:
 7052 02bb 72634172 		.string	"rcArc"
 7052      6300
 7053              	.LASF99:
 7054 02c1 72634578 		.string	"rcExe"
 7054      6500
 7055              	.LASF368:
 7056 02c7 4B436970 		.string	"KCipherVecAesNiEncryptEcb"
 7056      68657256 
 7056      65634165 
 7056      734E6945 
 7056      6E637279 
 7057              	.LASF358:
 7058 02e1 4B436970 		.string	"KCipherVecAesNiSetDecryptIvec"
 7058      68657256 
 7058      65634165 
 7058      734E6953 
 7058      65744465 
 7059              	.LASF329:
 7060 02ff 7263546F 		.string	"rcTooLong"
 7060      6F4C6F6E 
 7060      6700
 7061              	.LASF257:
 7062 0309 52434F62 		.string	"RCObject"
 7062      6A656374 
 7062      00
 7063              	.LASF267:
 7064 0312 7263496E 		.string	"rcInterface"
 7064      74657266 
 7064      61636500 
 7065              	.LASF195:
 7066 031e 72635265 		.string	"rcResolving"
 7066      736F6C76 
 7066      696E6700 
 7067              	.LASF87:
 7068 032a 43697068 		.string	"CipherAes"
 7068      65724165 
 7068      7300
 7069              	.LASF137:
 7070 0334 72634469 		.string	"rcDirectory"
 7070      72656374 
 7070      6F727900 
 7071              	.LASF2:
 7072 0340 6C6F6E67 		.string	"long int"
 7072      20696E74 
 7072      00
 7073              	.LASF225:
 7074 0349 72635661 		.string	"rcValidating"
 7074      6C696461 
 7074      74696E67 
 7074      00
GAS LISTING /tmp/ccf9IsGZ.s 			page 157


 7075              	.LASF44:
 7076 0356 63697068 		.string	"cipher_ctr_func"
 7076      65725F63 
 7076      74725F66 
 7076      756E6300 
 7077              	.LASF127:
 7078 0366 72634172 		.string	"rcArgv"
 7078      677600
 7079              	.LASF103:
 7080 036d 72634353 		.string	"rcCS"
 7080      00
 7081              	.LASF184:
 7082 0372 72635572 		.string	"rcUri"
 7082      6900
 7083              	.LASF206:
 7084 0378 72634372 		.string	"rcCreating"
 7084      65617469 
 7084      6E6700
 7085              	.LASF40:
 7086 0383 656E6372 		.string	"encrypt_ivec"
 7086      7970745F 
 7086      69766563 
 7086      00
 7087              	.LASF57:
 7088 0390 656E6372 		.string	"encrypt"
 7088      79707400 
 7089              	.LASF76:
 7090 0398 76313238 		.string	"v128_u8_t"
 7090      5F75385F 
 7090      7400
 7091              	.LASF19:
 7092 03a2 4442475F 		.string	"DBG_XML"
 7092      584D4C00 
 7093              	.LASF31:
 7094 03aa 4442475F 		.string	"DBG_MOD_COUNT"
 7094      4D4F445F 
 7094      434F554E 
 7094      5400
 7095              	.LASF396:
 7096 03b8 4B436970 		.string	"KCipherVecAesNiMake"
 7096      68657256 
 7096      65634165 
 7096      734E694D 
 7096      616B6500 
 7097              	.LASF352:
 7098 03cc 75736572 		.string	"user_key_bits"
 7098      5F6B6579 
 7098      5F626974 
 7098      7300
 7099              	.LASF108:
 7100 03da 72634442 		.string	"rcDB"
 7100      00
 7101              	.LASF348:
 7102 03df 4B436970 		.string	"KCipherVecAesNiDestroy"
 7102      68657256 
 7102      65634165 
 7102      734E6944 
GAS LISTING /tmp/ccf9IsGZ.s 			page 158


 7102      65737472 
 7103              	.LASF286:
 7104 03f6 7263436F 		.string	"rcConnection"
 7104      6E6E6563 
 7104      74696F6E 
 7104      00
 7105              	.LASF154:
 7106 0403 72634D67 		.string	"rcMgr"
 7106      7200
 7107              	.LASF316:
 7108 0409 72635669 		.string	"rcViolated"
 7108      6F6C6174 
 7108      656400
 7109              	.LASF249:
 7110 0414 72634465 		.string	"rcDecrypting"
 7110      63727970 
 7110      74696E67 
 7110      00
 7111              	.LASF0:
 7112 0421 7369676E 		.string	"signed char"
 7112      65642063 
 7112      68617200 
 7113              	.LASF5:
 7114 042d 75696E74 		.string	"uint8_t"
 7114      385F7400 
 7115              	.LASF132:
 7116 0435 72634368 		.string	"rcChar"
 7116      617200
 7117              	.LASF117:
 7118 043c 72635244 		.string	"rcRDBMS"
 7118      424D5300 
 7119              	.LASF161:
 7120 0444 72635175 		.string	"rcQueue"
 7120      65756500 
 7121              	.LASF353:
 7122 044c 5F5F5052 		.string	"__PRETTY_FUNCTION__"
 7122      45545459 
 7122      5F46554E 
 7122      4354494F 
 7122      4E5F5F00 
 7123              	.LASF12:
 7124 0460 4442475F 		.string	"DBG_MOD_NOT_FOUND"
 7124      4D4F445F 
 7124      4E4F545F 
 7124      464F554E 
 7124      4400
 7125              	.LASF213:
 7126 0472 72635265 		.string	"rcReverting"
 7126      76657274 
 7126      696E6700 
 7127              	.LASF129:
 7128 047e 72634261 		.string	"rcBarrier"
 7128      72726965 
 7128      7200
 7129              	.LASF313:
 7130 0488 72634578 		.string	"rcExhausted"
 7130      68617573 
GAS LISTING /tmp/ccf9IsGZ.s 			page 159


 7130      74656400 
 7131              	.LASF3:
 7132 0494 756E7369 		.string	"unsigned char"
 7132      676E6564 
 7132      20636861 
 7132      7200
 7133              	.LASF186:
 7134 04a2 5243436F 		.string	"RCContext"
 7134      6E746578 
 7134      7400
 7135              	.LASF149:
 7136 04ac 72634C6F 		.string	"rcLock"
 7136      636B00
 7137              	.LASF302:
 7138 04b3 72634261 		.string	"rcBadVersion"
 7138      64566572 
 7138      73696F6E 
 7138      00
 7139              	.LASF303:
 7140 04c0 72634465 		.string	"rcDestroyed"
 7140      7374726F 
 7140      79656400 
 7141              	.LASF166:
 7142 04cc 72635374 		.string	"rcString"
 7142      72696E67 
 7142      00
 7143              	.LASF128:
 7144 04d5 72634174 		.string	"rcAttr"
 7144      747200
 7145              	.LASF150:
 7146 04dc 72634C6F 		.string	"rcLog"
 7146      6700
 7147              	.LASF389:
 7148 04e2 6E65775F 		.string	"new_obj"
 7148      6F626A00 
 7149              	.LASF15:
 7150 04ea 4442475F 		.string	"DBG_KDB"
 7150      4B444200 
 7151              	.LASF254:
 7152 04f2 72635072 		.string	"rcProcessing"
 7152      6F636573 
 7152      73696E67 
 7152      00
 7153              	.LASF104:
 7154 04ff 72634646 		.string	"rcFF"
 7154      00
 7155              	.LASF105:
 7156 0504 72634653 		.string	"rcFS"
 7156      00
 7157              	.LASF347:
 7158 0509 43697068 		.string	"CipherVecIn"
 7158      65725665 
 7158      63496E00 
 7159              	.LASF192:
 7160 0515 72634163 		.string	"rcAccessing"
 7160      63657373 
 7160      696E6700 
GAS LISTING /tmp/ccf9IsGZ.s 			page 160


 7161              	.LASF310:
 7162 0521 7263496E 		.string	"rcInterrupted"
 7162      74657272 
 7162      75707465 
 7162      6400
 7163              	.LASF318:
 7164 052f 72634E6F 		.string	"rcNotFound"
 7164      74466F75 
 7164      6E6400
 7165              	.LASF11:
 7166 053a 63686172 		.string	"char"
 7166      00
 7167              	.LASF156:
 7168 053f 72634E6F 		.string	"rcNode"
 7168      646500
 7169              	.LASF29:
 7170 0546 4442475F 		.string	"DBG_AES"
 7170      41455300 
 7171              	.LASF287:
 7172 054e 72634572 		.string	"rcError"
 7172      726F7200 
 7173              	.LASF384:
 7174 0556 706F626A 		.string	"pobj"
 7174      00
 7175              	.LASF204:
 7176 055b 7263436C 		.string	"rcClearing"
 7176      65617269 
 7176      6E6700
 7177              	.LASF262:
 7178 0566 72634F66 		.string	"rcOffset"
 7178      66736574 
 7178      00
 7179              	.LASF208:
 7180 056f 7263436C 		.string	"rcClosing"
 7180      6F73696E 
 7180      6700
 7181              	.LASF140:
 7182 0579 72634669 		.string	"rcFile"
 7182      6C6500
 7183              	.LASF376:
 7184 0580 4B436970 		.string	"KCipherVecAesNiDecryptPcbc"
 7184      68657256 
 7184      65634165 
 7184      734E6944 
 7184      65637279 
 7185              	.LASF169:
 7186 059b 72635469 		.string	"rcTimeout"
 7186      6D656F75 
 7186      7400
 7187              	.LASF385:
 7188 05a5 4B436970 		.string	"KCipherVecAesNiInitAes"
 7188      68657256 
 7188      65634165 
 7188      734E6949 
 7188      6E697441 
 7189              	.LASF157:
 7190 05bc 72634E75 		.string	"rcNumeral"
GAS LISTING /tmp/ccf9IsGZ.s 			page 161


 7190      6D657261 
 7190      6C00
 7191              	.LASF234:
 7192 05c6 72635761 		.string	"rcWaiting"
 7192      6974696E 
 7192      6700
 7193              	.LASF381:
 7194 05d0 4B436970 		.string	"KCipherVecAesNiEncryptCtr"
 7194      68657256 
 7194      65634165 
 7194      734E6945 
 7194      6E637279 
 7195              	.LASF362:
 7196 05ea 4B436970 		.string	"KCipherVecAesNiEncryptV1"
 7196      68657256 
 7196      65634165 
 7196      734E6945 
 7196      6E637279 
 7197              	.LASF238:
 7198 0603 72634650 		.string	"rcFPCoding"
 7198      436F6469 
 7198      6E6700
 7199              	.LASF290:
 7200 060e 72635369 		.string	"rcSize"
 7200      7A6500
 7201              	.LASF275:
 7202 0615 72634469 		.string	"rcDirEntry"
 7202      72456E74 
 7202      727900
 7203              	.LASF227:
 7204 0620 72634875 		.string	"rcHuffmanCoding"
 7204      66666D61 
 7204      6E436F64 
 7204      696E6700 
 7205              	.LASF24:
 7206 0630 4442475F 		.string	"DBG_KFG"
 7206      4B464700 
 7207              	.LASF308:
 7208 0638 72634275 		.string	"rcBusy"
 7208      737900
 7209              	.LASF21:
 7210 063f 4442475F 		.string	"DBG_SRA"
 7210      53524100 
 7211              	.LASF371:
 7212 0647 4B436970 		.string	"KCipherVecAesNiDecryptEcb"
 7212      68657256 
 7212      65634165 
 7212      734E6944 
 7212      65637279 
 7213              	.LASF266:
 7214 0661 72635472 		.string	"rcTransfer"
 7214      616E7366 
 7214      657200
 7215              	.LASF18:
 7216 066c 4442475F 		.string	"DBG_KFS"
 7216      4B465300 
 7217              	.LASF221:
GAS LISTING /tmp/ccf9IsGZ.s 			page 162


 7218 0674 72635061 		.string	"rcPacking"
 7218      636B696E 
 7218      6700
 7219              	.LASF217:
 7220 067e 7263436F 		.string	"rcCopying"
 7220      7079696E 
 7220      6700
 7221              	.LASF255:
 7222 0688 72634964 		.string	"rcIdentifying"
 7222      656E7469 
 7222      6679696E 
 7222      6700
 7223              	.LASF394:
 7224 0696 2F686F6D 		.string	"/home/rodarmer/sra_sdk-2.3.1/linux/gcc/dyn/x86_64/dbg/obj/libs/krypto"
 7224      652F726F 
 7224      6461726D 
 7224      65722F73 
 7224      72615F73 
 7225              	.LASF391:
 7226 06dc 4B436970 		.string	"KCipherVecAesNi_vt_v1"
 7226      68657256 
 7226      65634165 
 7226      734E695F 
 7226      76745F76 
 7227              	.LASF60:
 7228 06f2 64656372 		.string	"decrypt_ecb"
 7228      7970745F 
 7228      65636200 
 7229              	.LASF224:
 7230 06fe 72634465 		.string	"rcDecoding"
 7230      636F6469 
 7230      6E6700
 7231              	.LASF152:
 7232 0709 72634D65 		.string	"rcMemMap"
 7232      6D4D6170 
 7232      00
 7233              	.LASF197:
 7234 0712 7263556E 		.string	"rcUnlocking"
 7234      6C6F636B 
 7234      696E6700 
 7235              	.LASF280:
 7236 071e 72634974 		.string	"rcItem"
 7236      656D00
 7237              	.LASF82:
 7238 0725 4B426C6F 		.string	"KBlockCipherVec_vt_v1"
 7238      636B4369 
 7238      70686572 
 7238      5665635F 
 7238      76745F76 
 7239              	.LASF17:
 7240 073b 4442475F 		.string	"DBG_LEGREF"
 7240      4C454752 
 7240      454600
 7241              	.LASF345:
 7242 0746 6376696E 		.string	"cvin"
 7242      00
 7243              	.LASF198:
GAS LISTING /tmp/ccf9IsGZ.s 			page 163


 7244 074b 72635265 		.string	"rcRenaming"
 7244      6E616D69 
 7244      6E6700
 7245              	.LASF351:
 7246 0756 75736572 		.string	"user_key"
 7246      5F6B6579 
 7246      00
 7247              	.LASF268:
 7248 075f 72634964 		.string	"rcId"
 7248      00
 7249              	.LASF181:
 7250 0764 7263436D 		.string	"rcCmd"
 7250      6400
 7251              	.LASF395:
 7252 076a 43697068 		.string	"CipherVecOut"
 7252      65725665 
 7252      634F7574 
 7252      00
 7253              	.LASF27:
 7254 0777 4442475F 		.string	"DBG_LOADLIB"
 7254      4C4F4144 
 7254      4C494200 
 7255              	.LASF320:
 7256 0783 7263556E 		.string	"rcUnlocked"
 7256      6C6F636B 
 7256      656400
 7257              	.LASF121:
 7258 078e 52434D6F 		.string	"RCModule"
 7258      64756C65 
 7258      00
 7259              	.LASF282:
 7260 0797 7263456E 		.string	"rcEncryption"
 7260      63727970 
 7260      74696F6E 
 7260      00
 7261              	.LASF317:
 7262 07a4 72634578 		.string	"rcExists"
 7262      69737473 
 7262      00
 7263              	.LASF77:
 7264 07ad 43697068 		.string	"CipherVec"
 7264      65725665 
 7264      6300
 7265              	.LASF59:
 7266 07b7 656E6372 		.string	"encrypt_ecb"
 7266      7970745F 
 7266      65636200 
 7267              	.LASF336:
 7268 07c3 72634F70 		.string	"rcOpen"
 7268      656E00
 7269              	.LASF322:
 7270 07ca 72634465 		.string	"rcDeadlock"
 7270      61646C6F 
 7270      636B00
 7271              	.LASF259:
 7272 07d5 72634C69 		.string	"rcLink"
 7272      6E6B00
GAS LISTING /tmp/ccf9IsGZ.s 			page 164


 7273              	.LASF246:
 7274 07dc 7263466C 		.string	"rcFlushing"
 7274      75736869 
 7274      6E6700
 7275              	.LASF294:
 7276 07e7 72634E6F 		.string	"rcNoErr"
 7276      45727200 
 7277              	.LASF273:
 7278 07ef 72635461 		.string	"rcTag"
 7278      6700
 7279              	.LASF23:
 7280 07f5 4442475F 		.string	"DBG_ALIGN"
 7280      414C4947 
 7280      4E00
 7281              	.LASF237:
 7282 07ff 72634C6F 		.string	"rcLogging"
 7282      6767696E 
 7282      6700
 7283              	.LASF364:
 7284 0809 4B436970 		.string	"KCipherVecAesNiEncryptV1Int"
 7284      68657256 
 7284      65634165 
 7284      734E6945 
 7284      6E637279 
 7285              	.LASF330:
 7286 0825 7263546F 		.string	"rcTooBig"
 7286      6F426967 
 7286      00
 7287              	.LASF174:
 7288 082e 72635665 		.string	"rcVector"
 7288      63746F72 
 7288      00
 7289              	.LASF209:
 7290 0837 72635265 		.string	"rcResizing"
 7290      73697A69 
 7290      6E6700
 7291              	.LASF183:
 7292 0842 72635175 		.string	"rcQuery"
 7292      65727900 
 7293              	.LASF8:
 7294 084a 6C6F6E67 		.string	"long unsigned int"
 7294      20756E73 
 7294      69676E65 
 7294      6420696E 
 7294      7400
 7295              	.LASF315:
 7296 085c 72634578 		.string	"rcExcessive"
 7296      63657373 
 7296      69766500 
 7297              	.LASF243:
 7298 0868 72634576 		.string	"rcEvaluating"
 7298      616C7561 
 7298      74696E67 
 7298      00
 7299              	.LASF180:
 7300 0875 7263526E 		.string	"rcRng"
 7300      6700
GAS LISTING /tmp/ccf9IsGZ.s 			page 165


 7301              	.LASF188:
 7302 087b 72634361 		.string	"rcCasting"
 7302      7374696E 
 7302      6700
 7303              	.LASF349:
 7304 0885 73656C66 		.string	"self"
 7304      00
 7305              	.LASF148:
 7306 088a 72634974 		.string	"rcIterator"
 7306      65726174 
 7306      6F7200
 7307              	.LASF83:
 7308 0895 4B426C6F 		.string	"KBlockCipherVec"
 7308      636B4369 
 7308      70686572 
 7308      56656300 
 7309              	.LASF380:
 7310 08a5 4B436970 		.string	"KCipherVecAesNiDecryptOfb"
 7310      68657256 
 7310      65634165 
 7310      734E6944 
 7310      65637279 
 7311              	.LASF387:
 7312 08bf 4B436970 		.string	"KCipherVecAesNiInitNull"
 7312      68657256 
 7312      65634165 
 7312      734E6949 
 7312      6E69744E 
 7313              	.LASF165:
 7314 08d7 72635374 		.string	"rcStorage"
 7314      6F726167 
 7314      6500
 7315              	.LASF393:
 7316 08e1 2F686F6D 		.string	"/home/rodarmer/sra_sdk-2.3.1/libs/krypto/cipher-vec.c"
 7316      652F726F 
 7316      6461726D 
 7316      65722F73 
 7316      72615F73 
 7317              	.LASF383:
 7318 0917 4B436970 		.string	"KCipherVecAesNiAllocAes"
 7318      68657256 
 7318      65634165 
 7318      734E6941 
 7318      6C6C6F63 
 7319              	.LASF68:
 7320 092f 64656372 		.string	"decrypt_ofb"
 7320      7970745F 
 7320      6F666200 
 7321              	.LASF46:
 7322 093b 626C6F63 		.string	"block_cipher"
 7322      6B5F6369 
 7322      70686572 
 7322      00
 7323              	.LASF369:
 7324 0948 626C6F63 		.string	"block_count"
 7324      6B5F636F 
 7324      756E7400 
GAS LISTING /tmp/ccf9IsGZ.s 			page 166


 7325              	.LASF277:
 7326 0954 7263526F 		.string	"rcRow"
 7326      7700
 7327              	.LASF20:
 7328 095a 4442475F 		.string	"DBG_VDB"
 7328      56444200 
 7329              	.LASF93:
 7330 0962 6B636970 		.string	"kcipher_type"
 7330      6865725F 
 7330      74797065 
 7330      00
 7331              	.LASF177:
 7332 096f 72634C61 		.string	"rcLastTarget_v1_0"
 7332      73745461 
 7332      72676574 
 7332      5F76315F 
 7332      3000
 7333              	.LASF185:
 7334 0981 72634C61 		.string	"rcLastTarget_v1_1"
 7334      73745461 
 7334      72676574 
 7334      5F76315F 
 7334      3100
 7335              	.LASF164:
 7336 0993 72635365 		.string	"rcSemaphore"
 7336      6D617068 
 7336      6F726500 
 7337              	.LASF218:
 7338 099f 7263436F 		.string	"rcConcatenating"
 7338      6E636174 
 7338      656E6174 
 7338      696E6700 
 7339              	.LASF309:
 7340 09af 7263496E 		.string	"rcIncomplete"
 7340      636F6D70 
 7340      6C657465 
 7340      00
 7341              	.LASF338:
 7342 09bc 72634E6F 		.string	"rcNotOpen"
 7342      744F7065 
 7342      6E00
 7343              	.LASF382:
 7344 09c6 4B436970 		.string	"KCipherVecAesNiDecryptCtr"
 7344      68657256 
 7344      65634165 
 7344      734E6944 
 7344      65637279 
 7345              	.LASF147:
 7346 09e0 7263496E 		.string	"rcIndex"
 7346      64657800 
 7347              	.LASF67:
 7348 09e8 656E6372 		.string	"encrypt_ofb"
 7348      7970745F 
 7348      6F666200 
 7349              	.LASF55:
 7350 09f4 7365745F 		.string	"set_encrypt_ctr_func"
 7350      656E6372 
GAS LISTING /tmp/ccf9IsGZ.s 			page 167


 7350      7970745F 
 7350      6374725F 
 7350      66756E63 
 7351              	.LASF356:
 7352 0a09 4B436970 		.string	"KCipherVecAesNiSetEncryptIvec"
 7352      68657256 
 7352      65634165 
 7352      734E6953 
 7352      6574456E 
 7353              	.LASF22:
 7354 0a27 4442475F 		.string	"DBG_XARC"
 7354      58415243 
 7354      00
 7355              	.LASF392:
 7356 0a30 474E5520 		.string	"GNU C 4.4.2"
 7356      4320342E 
 7356      342E3200 
 7357              	.LASF357:
 7358 0a3c 69766563 		.string	"ivec"
 7358      00
 7359              	.LASF100:
 7360 0a41 72635275 		.string	"rcRuntime"
 7360      6E74696D 
 7360      6500
 7361              	.LASF139:
 7362 0a4b 7263586D 		.string	"rcXmlDoc"
 7362      6C446F63 
 7362      00
 7363              	.LASF72:
 7364 0a54 6C6F6E67 		.string	"long long int"
 7364      206C6F6E 
 7364      6720696E 
 7364      7400
 7365              	.LASF220:
 7366 0a62 7263506F 		.string	"rcPositioning"
 7366      73697469 
 7366      6F6E696E 
 7366      6700
 7367              	.LASF34:
 7368 0a70 636F756E 		.string	"counter"
 7368      74657200 
 7369              	.LASF70:
 7370 0a78 64656372 		.string	"decrypt_ctr"
 7370      7970745F 
 7370      63747200 
 7371              	.LASF94:
 7372 0a84 6B636970 		.string	"kcipher_null"
 7372      6865725F 
 7372      6E756C6C 
 7372      00
 7373              	.LASF151:
 7374 0a91 72634D44 		.string	"rcMD5SumFmt"
 7374      3553756D 
 7374      466D7400 
 7375              	.LASF365:
 7376 0a9d 4B436970 		.string	"KCipherVecAesNiDecryptV1Int"
 7376      68657256 
GAS LISTING /tmp/ccf9IsGZ.s 			page 168


 7376      65634165 
 7376      734E6944 
 7376      65637279 
 7377              	.LASF202:
 7378 0ab9 7263496E 		.string	"rcInserting"
 7378      73657274 
 7378      696E6700 
 7379              	.LASF250:
 7380 0ac5 7263436F 		.string	"rcComparing"
 7380      6D706172 
 7380      696E6700 
 7381              	.LASF312:
 7382 0ad1 7263456D 		.string	"rcEmpty"
 7382      70747900 
 7383              	.LASF144:
 7384 0ad9 7263466F 		.string	"rcFormatter"
 7384      726D6174 
 7384      74657200 
 7385              	.LASF75:
 7386 0ae5 646F7562 		.string	"double"
 7386      6C6500
 7387              	.LASF229:
 7388 0aec 72635265 		.string	"rcRegistering"
 7388      67697374 
 7388      6572696E 
 7388      6700
 7389              	.LASF35:
 7390 0afa 72656663 		.string	"refcount"
 7390      6F756E74 
 7390      00
 7391              	.LASF118:
 7392 0b03 72634E53 		.string	"rcNS"
 7392      00
 7393              	.LASF261:
 7394 0b08 72635061 		.string	"rcParam"
 7394      72616D00 
 7395              	.LASF226:
 7396 0b10 72634578 		.string	"rcExecuting"
 7396      65637574 
 7396      696E6700 
 7397              	.LASF122:
 7398 0b1c 52435461 		.string	"RCTarget"
 7398      72676574 
 7398      00
 7399              	.LASF283:
 7400 0b25 72634372 		.string	"rcCrc"
 7400      6300
 7401              	.LASF26:
 7402 0b2b 4442475F 		.string	"DBG_SEARCH"
 7402      53454152 
 7402      434800
 7403              	.LASF111:
 7404 0b36 7263584D 		.string	"rcXML"
 7404      4C00
 7405              	.LASF69:
 7406 0b3c 656E6372 		.string	"encrypt_ctr"
 7406      7970745F 
GAS LISTING /tmp/ccf9IsGZ.s 			page 169


 7406      63747200 
 7407              	.LASF28:
 7408 0b48 4442475F 		.string	"DBG_VFS"
 7408      56465300 
 7409              	.LASF73:
 7410 0b50 666C6F61 		.string	"float"
 7410      7400
 7411              	.LASF205:
 7412 0b56 72635570 		.string	"rcUpdating"
 7412      64617469 
 7412      6E6700
 7413              	.LASF232:
 7414 0b61 7263436F 		.string	"rcConverting"
 7414      6E766572 
 7414      74696E67 
 7414      00
 7415              	.LASF64:
 7416 0b6e 64656372 		.string	"decrypt_pcbc"
 7416      7970745F 
 7416      70636263 
 7416      00
 7417              	.LASF97:
 7418 0b7b 4B426C6F 		.string	"KBlockCipher"
 7418      636B4369 
 7418      70686572 
 7418      00
 7419              	.LASF175:
 7420 0b88 72634479 		.string	"rcDylib"
 7420      6C696200 
 7421              	.LASF324:
 7422 0b90 72635265 		.string	"rcReadonly"
 7422      61646F6E 
 7422      6C7900
 7423              	.LASF7:
 7424 0b9b 756E7369 		.string	"unsigned int"
 7424      676E6564 
 7424      20696E74 
 7424      00
 7425              	.LASF325:
 7426 0ba8 72635772 		.string	"rcWriteonly"
 7426      6974656F 
 7426      6E6C7900 
 7427              	.LASF47:
 7428 0bb4 4B436970 		.string	"KCipher_vt"
 7428      6865725F 
 7428      767400
 7429              	.LASF319:
 7430 0bbf 72634C6F 		.string	"rcLocked"
 7430      636B6564 
 7430      00
 7431              	.LASF201:
 7432 0bc8 72635072 		.string	"rcProjecting"
 7432      6F6A6563 
 7432      74696E67 
 7432      00
 7433              	.LASF106:
 7434 0bd5 72635053 		.string	"rcPS"
GAS LISTING /tmp/ccf9IsGZ.s 			page 170


 7434      00
 7435              	.LASF291:
 7436 0bda 72635265 		.string	"rcRefcount"
 7436      66636F75 
 7436      6E7400
 7437              	.LASF126:
 7438 0be5 7263546F 		.string	"rcTocEntry"
 7438      63456E74 
 7438      727900
 7439              	.LASF281:
 7440 0bf0 72634D6F 		.string	"rcMode"
 7440      646500
 7441              	.LASF350:
 7442 0bf7 4B436970 		.string	"KCipherVecAesNiSetEncryptKey"
 7442      68657256 
 7442      65634165 
 7442      734E6953 
 7442      6574456E 
 7443              	.LASF340:
 7444 0c14 7263556E 		.string	"rcUnequal"
 7444      65717561 
 7444      6C00
 7445              	.LASF321:
 7446 0c1e 72634465 		.string	"rcDetached"
 7446      74616368 
 7446      656400
 7447              	.LASF327:
 7448 0c29 7263496E 		.string	"rcInPlaceNotAllowed"
 7448      506C6163 
 7448      654E6F74 
 7448      416C6C6F 
 7448      77656400 
 7449              	.LASF269:
 7450 0c3d 72635261 		.string	"rcRange"
 7450      6E676500 
 7451              	.LASF58:
 7452 0c45 64656372 		.string	"decrypt"
 7452      79707400 
 7453              	.LASF279:
 7454 0c4d 72634C61 		.string	"rcLastObject_v1_0"
 7454      73744F62 
 7454      6A656374 
 7454      5F76315F 
 7454      3000
 7455              	.LASF292:
 7456 0c5f 72634C61 		.string	"rcLastObject_v1_1"
 7456      73744F62 
 7456      6A656374 
 7456      5F76315F 
 7456      3100
 7457              	.LASF386:
 7458 0c71 4B436970 		.string	"KCipherVecAesNiAllocNull"
 7458      68657256 
 7458      65634165 
 7458      734E6941 
 7458      6C6C6F63 
 7459              	.LASF98:
GAS LISTING /tmp/ccf9IsGZ.s 			page 171


 7460 0c8a 62797465 		.string	"byte"
 7460      00
 7461              	.LASF314:
 7462 0c8f 7263496E 		.string	"rcInsufficient"
 7462      73756666 
 7462      69636965 
 7462      6E7400
 7463              	.LASF245:
 7464 0c9e 72634C61 		.string	"rcLastContext_v1_0"
 7464      7374436F 
 7464      6E746578 
 7464      745F7631 
 7464      5F3000
 7465              	.LASF256:
 7466 0cb1 72634C61 		.string	"rcLastContext_v1_1"
 7466      7374436F 
 7466      6E746578 
 7466      745F7631 
 7466      5F3100
 7467              	.LASF39:
 7468 0cc4 64656372 		.string	"decrypt_key"
 7468      7970745F 
 7468      6B657900 
 7469              	.LASF176:
 7470 0cd0 72634578 		.string	"rcExpression"
 7470      70726573 
 7470      73696F6E 
 7470      00
 7471              	.LASF222:
 7472 0cdd 7263556E 		.string	"rcUnpacking"
 7472      7061636B 
 7472      696E6700 
 7473              	.LASF138:
 7474 0ce9 7263446F 		.string	"rcDoc"
 7474      6300
 7475              	.LASF13:
 7476 0cef 4442475F 		.string	"DBG_APP"
 7476      41505000 
 7477              	.LASF239:
 7478 0cf7 72634D75 		.string	"rcMultiplexing"
 7478      6C746970 
 7478      6C657869 
 7478      6E6700
 7479              	.LASF241:
 7480 0d06 72635365 		.string	"rcSearching"
 7480      61726368 
 7480      696E6700 
 7481              	.LASF341:
 7482 0d12 72634661 		.string	"rcFailed"
 7482      696C6564 
 7482      00
 7483              	.LASF48:
 7484 0d1b 4B436970 		.string	"KCipher_vt_v1"
 7484      6865725F 
 7484      76745F76 
 7484      3100
 7485              	.LASF306:
GAS LISTING /tmp/ccf9IsGZ.s 			page 172


 7486 0d29 7263496E 		.string	"rcIncorrect"
 7486      636F7272 
 7486      65637400 
 7487              	.LASF145:
 7488 0d35 72634675 		.string	"rcFunctParam"
 7488      6E637450 
 7488      6172616D 
 7488      00
 7489              	.LASF366:
 7490 0d42 4B436970 		.string	"KCipherVecAesNiEncrypt"
 7490      68657256 
 7490      65634165 
 7490      734E6945 
 7490      6E637279 
 7491              	.LASF38:
 7492 0d59 656E6372 		.string	"encrypt_key"
 7492      7970745F 
 7492      6B657900 
 7493              	.LASF270:
 7494 0d65 7263436F 		.string	"rcConstraint"
 7494      6E737472 
 7494      61696E74 
 7494      00
 7495              	.LASF216:
 7496 0d72 72634672 		.string	"rcFreezing"
 7496      65657A69 
 7496      6E6700
 7497              	.LASF296:
 7498 0d7d 7263556E 		.string	"rcUnknown"
 7498      6B6E6F77 
 7498      6E00
 7499              	.LASF135:
 7500 0d87 72634375 		.string	"rcCursor"
 7500      72736F72 
 7500      00
 7501              	.LASF293:
 7502 0d90 52435374 		.string	"RCState"
 7502      61746500 
 7503              	.LASF81:
 7504 0d98 4B426C6F 		.string	"KBlockCipherByte"
 7504      636B4369 
 7504      70686572 
 7504      42797465 
 7504      00
 7505              	.LASF141:
 7506 0da9 72634669 		.string	"rcFileDesc"
 7506      6C654465 
 7506      736300
 7507              	.LASF79:
 7508 0db4 4B426C6F 		.string	"KBlockCipherByte_vt_v1"
 7508      636B4369 
 7508      70686572 
 7508      42797465 
 7508      5F76745F 
 7509              	.LASF333:
 7510 0dcb 72634967 		.string	"rcIgnored"
 7510      6E6F7265 
GAS LISTING /tmp/ccf9IsGZ.s 			page 173


 7510      6400
 7511              	.LASF90:
 7512 0dd5 655F6976 		.string	"e_ivec"
 7512      656300
 7513              	.LASF191:
 7514 0ddc 72635265 		.string	"rcReleasing"
 7514      6C656173 
 7514      696E6700 
 7515              	.LASF114:
 7516 0de8 72634B46 		.string	"rcKFG"
 7516      4700
 7517              	.LASF272:
 7518 0dee 72634D65 		.string	"rcMessage"
 7518      73736167 
 7518      6500
 7519              	.LASF219:
 7520 0df8 7263466F 		.string	"rcFormatting"
 7520      726D6174 
 7520      74696E67 
 7520      00
 7521              	.LASF112:
 7522 0e05 72635352 		.string	"rcSRA"
 7522      4100
 7523              	.LASF288:
 7524 0e0b 7263456E 		.string	"rcEnvironment"
 7524      7669726F 
 7524      6E6D656E 
 7524      7400
 7525              	.LASF74:
 7526 0e19 6C6F6E67 		.string	"long long unsigned int"
 7526      206C6F6E 
 7526      6720756E 
 7526      7369676E 
 7526      65642069 
 7527              	.LASF50:
 7528 0e30 64657374 		.string	"destroy"
 7528      726F7900 
 7529              	.LASF170:
 7530 0e38 7263546F 		.string	"rcToken"
 7530      6B656E00 
 7531              	.LASF230:
 7532 0e40 7263546F 		.string	"rcTokenizing"
 7532      6B656E69 
 7532      7A696E67 
 7532      00
 7533              	.LASF16:
 7534 0e4d 4442475F 		.string	"DBG_REF"
 7534      52454600 
 7535              	.LASF372:
 7536 0e55 4B436970 		.string	"KCipherVecAesNiEncryptCbc"
 7536      68657256 
 7536      65634165 
 7536      734E6945 
 7536      6E637279 
 7537              	.LASF211:
 7538 0e6f 72635772 		.string	"rcWriting"
 7538      6974696E 
GAS LISTING /tmp/ccf9IsGZ.s 			page 174


 7538      6700
 7539              	.LASF187:
 7540 0e79 7263416C 		.string	"rcAllocating"
 7540      6C6F6361 
 7540      74696E67 
 7540      00
 7541              	.LASF173:
 7542 0e86 72635479 		.string	"rcType"
 7542      706500
 7543              	.LASF274:
 7544 0e8d 72635265 		.string	"rcResources"
 7544      736F7572 
 7544      63657300 
 7545              	.LASF155:
 7546 0e99 72634E61 		.string	"rcNamelist"
 7546      6D656C69 
 7546      737400
 7547              	.LASF339:
 7548 0ea4 7263556E 		.string	"rcUndefined"
 7548      64656669 
 7548      6E656400 
 7549              	.LASF91:
 7550 0eb0 645F6976 		.string	"d_ivec"
 7550      656300
 7551              	.LASF307:
 7552 0eb7 7263496E 		.string	"rcInconsistent"
 7552      636F6E73 
 7552      69737465 
 7552      6E7400
 7553              	.LASF252:
 7554 0ec6 72635265 		.string	"rcRetrieving"
 7554      74726965 
 7554      76696E67 
 7554      00
 7555              	.LASF49:
 7556 0ed3 76657273 		.string	"version"
 7556      696F6E00 
 7557              	.LASF264:
 7558 0edb 72634E61 		.string	"rcName"
 7558      6D6500
 7559              	.LASF54:
 7560 0ee2 7365745F 		.string	"set_decrypt_ivec"
 7560      64656372 
 7560      7970745F 
 7560      69766563 
 7560      00
 7561              	.LASF301:
 7562 0ef3 72634E75 		.string	"rcNull"
 7562      6C6C00
 7563              	.LASF223:
 7564 0efa 7263456E 		.string	"rcEncoding"
 7564      636F6469 
 7564      6E6700
 7565              	.LASF142:
 7566 0f05 72634669 		.string	"rcFileFormat"
 7566      6C65466F 
 7566      726D6174 
GAS LISTING /tmp/ccf9IsGZ.s 			page 175


 7566      00
 7567              	.LASF179:
 7568 0f12 7263456E 		.string	"rcEncryptionKey"
 7568      63727970 
 7568      74696F6E 
 7568      4B657900 
 7569              	.LASF244:
 7570 0f22 7263496E 		.string	"rcInflating"
 7570      666C6174 
 7570      696E6700 
 7571              	.LASF326:
 7572 0f2e 72634E6F 		.string	"rcNoPerm"
 7572      5065726D 
 7572      00
 7573              	.LASF214:
 7574 0f37 72635265 		.string	"rcResetting"
 7574      73657474 
 7574      696E6700 
 7575              	.LASF36:
 7576 0f43 626C6F63 		.string	"block_size"
 7576      6B5F7369 
 7576      7A6500
 7577              	.LASF162:
 7578 0f4e 72635257 		.string	"rcRWLock"
 7578      4C6F636B 
 7578      00
 7579              	.LASF193:
 7580 0f57 72634C69 		.string	"rcListing"
 7580      7374696E 
 7580      6700
 7581              	.LASF63:
 7582 0f61 656E6372 		.string	"encrypt_pcbc"
 7582      7970745F 
 7582      70636263 
 7582      00
 7583              	.LASF32:
 7584 0f6e 4B526566 		.string	"KRefcount"
 7584      636F756E 
 7584      7400
 7585              	.LASF143:
 7586 0f78 72634675 		.string	"rcFunction"
 7586      6E637469 
 7586      6F6E00
 7587              	.LASF88:
 7588 0f83 655F6B65 		.string	"e_key"
 7588      7900
 7589              	.LASF299:
 7590 0f89 7263556E 		.string	"rcUnrecognized"
 7590      7265636F 
 7590      676E697A 
 7590      656400
 7591              	.LASF86:
 7592 0f98 6E756D62 		.string	"number_of_rounds"
 7592      65725F6F 
 7592      665F726F 
 7592      756E6473 
 7592      00
GAS LISTING /tmp/ccf9IsGZ.s 			page 176


 7593              	.LASF115:
 7594 0fa9 7263416C 		.string	"rcAlign"
 7594      69676E00 
 7595              	.LASF178:
 7596 0fb1 72635072 		.string	"rcProduction"
 7596      6F647563 
 7596      74696F6E 
 7596      00
 7597              	.LASF168:
 7598 0fbe 72635468 		.string	"rcThread"
 7598      72656164 
 7598      00
 7599              	.LASF37:
 7600 0fc7 6E616D65 		.string	"name"
 7600      00
 7601              	.LASF397:
 7602 0fcc 4B436970 		.string	"KCipherVecAesNiClassName"
 7602      68657256 
 7602      65634165 
 7602      734E6943 
 7602      6C617373 
 7603              	.LASF388:
 7604 0fe5 6E756C6C 		.string	"null"
 7604      00
 7605              	.LASF52:
 7606 0fea 7365745F 		.string	"set_decrypt_key"
 7606      64656372 
 7606      7970745F 
 7606      6B657900 
 7607              	.LASF370:
 7608 0ffa 706F7574 		.string	"pout"
 7608      00
 7609              	.LASF33:
 7610 0fff 4B436970 		.string	"KCipher"
 7610      68657200 
 7611              	.LASF78:
 7612 1007 4B426C6F 		.string	"KBlockCipher_vt"
 7612      636B4369 
 7612      70686572 
 7612      5F767400 
 7613              	.LASF285:
 7614 1017 72635365 		.string	"rcSeed"
 7614      656400
 7615              	.LASF242:
 7616 101e 72634C6F 		.string	"rcLoading"
 7616      6164696E 
 7616      6700
 7617              	.LASF1:
 7618 1028 73686F72 		.string	"short int"
 7618      7420696E 
 7618      7400
 7619              	.LASF360:
 7620 1032 66756E63 		.string	"func"
 7620      00
 7621              	.LASF377:
 7622 1037 4B436970 		.string	"KCipherVecAesNiEncryptCfb"
 7622      68657256 
GAS LISTING /tmp/ccf9IsGZ.s 			page 177


 7622      65634165 
 7622      734E6945 
 7622      6E637279 
 7623              	.LASF335:
 7624 1051 72634C61 		.string	"rcLastState_v1_0"
 7624      73745374 
 7624      6174655F 
 7624      76315F30 
 7624      00
 7625              	.LASF344:
 7626 1062 72634C61 		.string	"rcLastState_v1_1"
 7626      73745374 
 7626      6174655F 
 7626      76315F31 
 7626      00
 7627              	.LASF109:
 7628 1073 72635644 		.string	"rcVDB"
 7628      4200
 7629              	.LASF92:
 7630 1079 43697068 		.string	"CipherNull"
 7630      65724E75 
 7630      6C6C00
 7631              	.LASF51:
 7632 1084 7365745F 		.string	"set_encrypt_key"
 7632      656E6372 
 7632      7970745F 
 7632      6B657900 
 7633              	.LASF107:
 7634 1094 72635846 		.string	"rcXF"
 7634      00
 7635              	.LASF71:
 7636 1099 4B436970 		.string	"KCipher_ptr"
 7636      6865725F 
 7636      70747200 
 7637              	.LASF45:
 7638 10a5 4B436970 		.string	"KCipherVecAesNi"
 7638      68657256 
 7638      65634165 
 7638      734E6900 
 7639              	.LASF190:
 7640 10b5 72634465 		.string	"rcDestroying"
 7640      7374726F 
 7640      79696E67 
 7640      00
 7641              	.LASF295:
 7642 10c2 7263446F 		.string	"rcDone"
 7642      6E6500
 7643              	.LASF125:
 7644 10c9 7263546F 		.string	"rcToc"
 7644      6300
 7645              	.LASF43:
 7646 10cf 64656372 		.string	"decrypt_counter_func"
 7646      7970745F 
 7646      636F756E 
 7646      7465725F 
 7646      66756E63 
 7647              	.LASF199:
GAS LISTING /tmp/ccf9IsGZ.s 			page 178


 7648 10e4 7263416C 		.string	"rcAliasing"
 7648      69617369 
 7648      6E6700
 7649              	.LASF160:
 7650 10ef 72635072 		.string	"rcProcess"
 7650      6F636573 
 7650      7300
 7651              	.LASF258:
 7652 10f9 72634E6F 		.string	"rcNoObj"
 7652      4F626A00 
 7653              	.LASF297:
 7654 1101 7263556E 		.string	"rcUnsupported"
 7654      73757070 
 7654      6F727465 
 7654      6400
 7655              	.LASF373:
 7656 110f 4B436970 		.string	"KCipherVecAesNiDecryptCbc"
 7656      68657256 
 7656      65634165 
 7656      734E6944 
 7656      65637279 
 7657              	.LASF361:
 7658 1129 4B436970 		.string	"KCipherVecAesNiSetDecryptCounterFunc"
 7658      68657256 
 7658      65634165 
 7658      734E6953 
 7658      65744465 
 7659              	.LASF236:
 7660 114e 72634465 		.string	"rcDetaching"
 7660      74616368 
 7660      696E6700 
 7661              	.LASF133:
 7662 115a 7263436F 		.string	"rcColumn"
 7662      6C756D6E 
 7662      00
 7663              	.LASF42:
 7664 1163 656E6372 		.string	"encrypt_counter_func"
 7664      7970745F 
 7664      636F756E 
 7664      7465725F 
 7664      66756E63 
 7665              	.LASF298:
 7666 1178 7263556E 		.string	"rcUnexpected"
 7666      65787065 
 7666      63746564 
 7666      00
 7667              	.LASF62:
 7668 1185 64656372 		.string	"decrypt_cbc"
 7668      7970745F 
 7668      63626300 
 7669              	.LASF6:
 7670 1191 75696E74 		.string	"uint32_t"
 7670      33325F74 
 7670      00
 7671              	.LASF119:
 7672 119a 72635646 		.string	"rcVFS"
 7672      5300
GAS LISTING /tmp/ccf9IsGZ.s 			page 179


 7673              	.LASF25:
 7674 11a0 4442475F 		.string	"DBG_KRYPTO"
 7674      4B525950 
 7674      544F00
 7675              	.LASF343:
 7676 11ab 72635772 		.string	"rcWrongType"
 7676      6F6E6754 
 7676      79706500 
 7677              	.LASF278:
 7678 11b7 72634C69 		.string	"rcLibrary"
 7678      62726172 
 7678      7900
 7679              	.LASF311:
 7680 11c1 72634361 		.string	"rcCanceled"
 7680      6E63656C 
 7680      656400
 7681              	.LASF182:
 7682 11cc 72634461 		.string	"rcData"
 7682      746100
 7683              	.LASF146:
 7684 11d3 72634865 		.string	"rcHeader"
 7684      61646572 
 7684      00
 7685              	.LASF4:
 7686 11dc 73686F72 		.string	"short unsigned int"
 7686      7420756E 
 7686      7369676E 
 7686      65642069 
 7686      6E7400
 7687              	.LASF136:
 7688 11ef 72634461 		.string	"rcDatabase"
 7688      74616261 
 7688      736500
 7689              	.LASF61:
 7690 11fa 656E6372 		.string	"encrypt_cbc"
 7690      7970745F 
 7690      63626300 
 7691              	.LASF212:
 7692 1206 7263436F 		.string	"rcCommitting"
 7692      6D6D6974 
 7692      74696E67 
 7692      00
 7693              	.LASF240:
 7694 1213 7263436C 		.string	"rcClassifying"
 7694      61737369 
 7694      6679696E 
 7694      6700
 7695              	.LASF171:
 7696 1221 72635472 		.string	"rcTree"
 7696      656500
 7697              	.LASF41:
 7698 1228 64656372 		.string	"decrypt_ivec"
 7698      7970745F 
 7698      69766563 
 7698      00
 7699              	.LASF30:
 7700 1235 4442475F 		.string	"DBG_ARGS"
GAS LISTING /tmp/ccf9IsGZ.s 			page 180


 7700      41524753 
 7700      00
 7701              	.LASF200:
 7702 123e 72635365 		.string	"rcSelecting"
 7702      6C656374 
 7702      696E6700 
 7703              	.LASF101:
 7704 124a 72635465 		.string	"rcText"
 7704      787400
 7705              	.LASF337:
 7706 1251 72634F75 		.string	"rcOutoforder"
 7706      746F666F 
 7706      72646572 
 7706      00
 7707              	.LASF304:
 7708 125e 7263496E 		.string	"rcInvalid"
 7708      76616C69 
 7708      6400
 7709              	.LASF251:
 7710 1268 7263496E 		.string	"rcInitializing"
 7710      69746961 
 7710      6C697A69 
 7710      6E6700
 7711              	.LASF130:
 7712 1277 7263426C 		.string	"rcBlob"
 7712      6F6200
 7713              	.LASF53:
 7714 127e 7365745F 		.string	"set_encrypt_ivec"
 7714      656E6372 
 7714      7970745F 
 7714      69766563 
 7714      00
 7715              	.LASF374:
 7716 128f 74656D70 		.string	"temp"
 7716      00
 7717              	.LASF228:
 7718 1294 72635265 		.string	"rcReindexing"
 7718      696E6465 
 7718      78696E67 
 7718      00
 7719              	.LASF123:
 7720 12a1 72634E6F 		.string	"rcNoTarg"
 7720      54617267 
 7720      00
 7721              	.LASF305:
 7722 12aa 7263436F 		.string	"rcCorrupt"
 7722      72727570 
 7722      7400
 7723              	.LASF334:
 7724 12b4 72634F75 		.string	"rcOutofrange"
 7724      746F6672 
 7724      616E6765 
 7724      00
 7725              	.LASF163:
 7726 12c1 72635363 		.string	"rcSchema"
 7726      68656D61 
 7726      00
GAS LISTING /tmp/ccf9IsGZ.s 			page 181


 7727              	.LASF159:
 7728 12ca 72635061 		.string	"rcPath"
 7728      746800
 7729              	.LASF210:
 7730 12d1 72635265 		.string	"rcReading"
 7730      6164696E 
 7730      6700
 7731              	.LASF80:
 7732 12db 6B65795F 		.string	"key_size"
 7732      73697A65 
 7732      00
 7733              	.LASF342:
 7734 12e4 72634E6F 		.string	"rcNotAvailable"
 7734      74417661 
 7734      696C6162 
 7734      6C6500
 7735              	.LASF375:
 7736 12f3 4B436970 		.string	"KCipherVecAesNiEncryptPcbc"
 7736      68657256 
 7736      65634165 
 7736      734E6945 
 7736      6E637279 
 7737              	.LASF300:
 7738 130e 7263416D 		.string	"rcAmbiguous"
 7738      62696775 
 7738      6F757300 
 7739              		.ident	"GCC: (GNU) 4.4.2"
 7740              		.section	.note.GNU-stack,"",@progbits
GAS LISTING /tmp/ccf9IsGZ.s 			page 182


DEFINED SYMBOLS
                            *ABS*:0000000000000000 cipher-vec.c
     /tmp/ccf9IsGZ.s:14     .rodata:0000000000000000 KCipherVecAesNiClassName
     /tmp/ccf9IsGZ.s:18     .text:0000000000000000 CipherVecIn
     /tmp/ccf9IsGZ.s:49     .text:000000000000001f CipherVecOut
     /tmp/ccf9IsGZ.s:81     .text:0000000000000048 KCipherVecAesNiDestroy
     /tmp/ccf9IsGZ.s:129    .text:0000000000000082 KCipherVecAesNiSetEncryptKey
     /tmp/ccf9IsGZ.s:2006   .rodata:0000000000000330 __PRETTY_FUNCTION__.7296
     /tmp/ccf9IsGZ.s:2011   .rodata:0000000000000350 __func__.7298
     /tmp/ccf9IsGZ.s:214    .text:000000000000016c KCipherVecAesNiSetDecryptKey
     /tmp/ccf9IsGZ.s:1996   .rodata:00000000000002f0 __PRETTY_FUNCTION__.7320
     /tmp/ccf9IsGZ.s:2001   .rodata:0000000000000310 __func__.7322
     /tmp/ccf9IsGZ.s:303    .text:0000000000000256 KCipherVecAesNiSetEncryptIvec
     /tmp/ccf9IsGZ.s:1991   .rodata:00000000000002d0 __PRETTY_FUNCTION__.7342
     /tmp/ccf9IsGZ.s:354    .text:00000000000002d9 KCipherVecAesNiSetDecryptIvec
     /tmp/ccf9IsGZ.s:1986   .rodata:00000000000002b0 __PRETTY_FUNCTION__.7355
     /tmp/ccf9IsGZ.s:409    .text:000000000000035c KCipherVecAesNiSetEncryptCounterFunc
     /tmp/ccf9IsGZ.s:1981   .rodata:0000000000000280 __PRETTY_FUNCTION__.7368
     /tmp/ccf9IsGZ.s:454    .text:00000000000003cb KCipherVecAesNiSetDecryptCounterFunc
     /tmp/ccf9IsGZ.s:1976   .rodata:0000000000000240 __PRETTY_FUNCTION__.7378
     /tmp/ccf9IsGZ.s:499    .text:000000000000043a KCipherVecAesNiEncryptV1
     /tmp/ccf9IsGZ.s:527    .text:0000000000000461 KCipherVecAesNiDecryptV1
     /tmp/ccf9IsGZ.s:555    .text:0000000000000488 KCipherVecAesNiEncryptV1Int
     /tmp/ccf9IsGZ.s:595    .text:00000000000004db KCipherVecAesNiDecryptV1Int
     /tmp/ccf9IsGZ.s:635    .text:000000000000052e KCipherVecAesNiEncrypt
     /tmp/ccf9IsGZ.s:1966   .rodata:00000000000001f0 __func__.7428
     /tmp/ccf9IsGZ.s:684    .text:0000000000000592 KCipherVecAesNiDecrypt
     /tmp/ccf9IsGZ.s:1956   .rodata:00000000000001b0 __func__.7444
     /tmp/ccf9IsGZ.s:735    .text:00000000000005fd KCipherVecAesNiEncryptEcb
     /tmp/ccf9IsGZ.s:791    .text:000000000000066d KCipherVecAesNiDecryptEcb
     /tmp/ccf9IsGZ.s:847    .text:00000000000006dd KCipherVecAesNiEncryptCbc
     /tmp/ccf9IsGZ.s:929    .text:00000000000007ab KCipherVecAesNiDecryptCbc
     /tmp/ccf9IsGZ.s:1015   .text:000000000000087f KCipherVecAesNiEncryptPcbc
     /tmp/ccf9IsGZ.s:1102   .text:000000000000095c KCipherVecAesNiDecryptPcbc
     /tmp/ccf9IsGZ.s:1184   .text:0000000000000a22 KCipherVecAesNiEncryptCfb
     /tmp/ccf9IsGZ.s:1264   .text:0000000000000ae8 KCipherVecAesNiDecryptCfb
     /tmp/ccf9IsGZ.s:1344   .text:0000000000000bae KCipherVecAesNiEncryptOfb
     /tmp/ccf9IsGZ.s:1424   .text:0000000000000c74 KCipherVecAesNiDecryptOfb
     /tmp/ccf9IsGZ.s:1459   .text:0000000000000cad KCipherVecAesNiEncryptCtr
     /tmp/ccf9IsGZ.s:1946   .rodata:0000000000000170 __func__.7678
     /tmp/ccf9IsGZ.s:1488   .text:0000000000000ce3 KCipherVecAesNiDecryptCtr
     /tmp/ccf9IsGZ.s:1936   .rodata:0000000000000130 __func__.7688
     /tmp/ccf9IsGZ.s:1520   .data.rel.local:0000000000000000 KCipherVecAesNi_vt_v1
     /tmp/ccf9IsGZ.s:1546   .text:0000000000000d19 KCipherVecAesNiAllocAes
     /tmp/ccf9IsGZ.s:1926   .rodata:00000000000000f0 __func__.7698
     /tmp/ccf9IsGZ.s:1588   .text:0000000000000d74 KCipherVecAesNiInitAes
     /tmp/ccf9IsGZ.s:1649   .text:0000000000000e12 KCipherVecAesNiAllocNull
     /tmp/ccf9IsGZ.s:1916   .rodata:00000000000000b0 __func__.7725
     /tmp/ccf9IsGZ.s:1691   .text:0000000000000e6d KCipherVecAesNiInitNull
     /tmp/ccf9IsGZ.s:1753   .text:0000000000000f02 KCipherVecAesNiMake
     /tmp/ccf9IsGZ.s:1906   .rodata:0000000000000070 __func__.7753
     /tmp/ccf9IsGZ.s:1911   .rodata:0000000000000090 __PRETTY_FUNCTION__.7752
     /tmp/ccf9IsGZ.s:1921   .rodata:00000000000000d0 __PRETTY_FUNCTION__.7724
     /tmp/ccf9IsGZ.s:1931   .rodata:0000000000000110 __PRETTY_FUNCTION__.7697
     /tmp/ccf9IsGZ.s:1941   .rodata:0000000000000150 __PRETTY_FUNCTION__.7687
     /tmp/ccf9IsGZ.s:1951   .rodata:0000000000000190 __PRETTY_FUNCTION__.7677
     /tmp/ccf9IsGZ.s:1961   .rodata:00000000000001d0 __PRETTY_FUNCTION__.7443
GAS LISTING /tmp/ccf9IsGZ.s 			page 183


     /tmp/ccf9IsGZ.s:1971   .rodata:0000000000000210 __PRETTY_FUNCTION__.7427

UNDEFINED SYMBOLS
_GLOBAL_OFFSET_TABLE_
KCipherDestroy
free
__assert_fail
SetRCFileFuncLine
memcpy
calloc
KCipherInit
KNullBlockCipherVecAesNiMake
KAESBlockCipherVecAesNiMake
