GAS LISTING /tmp/cccESBBm.s 			page 1


   1              		.file	"no-null-ncbi.c"
   2              		.section	.debug_abbrev,"",@progbits
   3              	.Ldebug_abbrev0:
   4              		.section	.debug_info,"",@progbits
   5              	.Ldebug_info0:
   6              		.section	.debug_line,"",@progbits
   7              	.Ldebug_line0:
   8 0000 C8000000 		.text
   8      0200A600 
   8      00000101 
   8      FB0E0D00 
   8      01010101 
   9              	.Ltext0:
  10              		.section	.rodata
  11              		.align 8
  12              	.LC0:
  13 0000 2F686F6D 		.string	"/home/rodarmer/sra_sdk-2.3.1/libs/krypto/no-null-ncbi.c"
  13      652F726F 
  13      6461726D 
  13      65722F73 
  13      72615F73 
  14              		.text
  15              	.globl KNullBlockCipherVecAesNiMake
  16              		.type	KNullBlockCipherVecAesNiMake, @function
  17              	KNullBlockCipherVecAesNiMake:
  18              	.LFB15:
  19              		.file 1 "/home/rodarmer/sra_sdk-2.3.1/libs/krypto/no-null-ncbi.c"
   1:/home/rodarmer/sra_sdk-2.3.1/libs/krypto/no-null-ncbi.c **** /*===========================================================================
   2:/home/rodarmer/sra_sdk-2.3.1/libs/krypto/no-null-ncbi.c ****  *
   3:/home/rodarmer/sra_sdk-2.3.1/libs/krypto/no-null-ncbi.c ****  *                            PUBLIC DOMAIN NOTICE
   4:/home/rodarmer/sra_sdk-2.3.1/libs/krypto/no-null-ncbi.c ****  *               National Center for Biotechnology Information
   5:/home/rodarmer/sra_sdk-2.3.1/libs/krypto/no-null-ncbi.c ****  *
   6:/home/rodarmer/sra_sdk-2.3.1/libs/krypto/no-null-ncbi.c ****  *  This software/database is a "United States Government Work" under the
   7:/home/rodarmer/sra_sdk-2.3.1/libs/krypto/no-null-ncbi.c ****  *  terms of the United States Copyright Act.  It was written as part of
   8:/home/rodarmer/sra_sdk-2.3.1/libs/krypto/no-null-ncbi.c ****  *  the author's official duties as a United States Government employee and
   9:/home/rodarmer/sra_sdk-2.3.1/libs/krypto/no-null-ncbi.c ****  *  thus cannot be copyrighted.  This software/database is freely available
  10:/home/rodarmer/sra_sdk-2.3.1/libs/krypto/no-null-ncbi.c ****  *  to the public for use. The National Library of Medicine and the U.S.
  11:/home/rodarmer/sra_sdk-2.3.1/libs/krypto/no-null-ncbi.c ****  *  Government have not placed any restriction on its use or reproduction.
  12:/home/rodarmer/sra_sdk-2.3.1/libs/krypto/no-null-ncbi.c ****  *
  13:/home/rodarmer/sra_sdk-2.3.1/libs/krypto/no-null-ncbi.c ****  *  Although all reasonable efforts have been taken to ensure the accuracy
  14:/home/rodarmer/sra_sdk-2.3.1/libs/krypto/no-null-ncbi.c ****  *  and reliability of the software and data, the NLM and the U.S.
  15:/home/rodarmer/sra_sdk-2.3.1/libs/krypto/no-null-ncbi.c ****  *  Government do not and cannot warrant the performance or results that
  16:/home/rodarmer/sra_sdk-2.3.1/libs/krypto/no-null-ncbi.c ****  *  may be obtained by using this software or data. The NLM and the U.S.
  17:/home/rodarmer/sra_sdk-2.3.1/libs/krypto/no-null-ncbi.c ****  *  Government disclaim all warranties, express or implied, including
  18:/home/rodarmer/sra_sdk-2.3.1/libs/krypto/no-null-ncbi.c ****  *  warranties of performance, merchantability or fitness for any particular
  19:/home/rodarmer/sra_sdk-2.3.1/libs/krypto/no-null-ncbi.c ****  *  purpose.
  20:/home/rodarmer/sra_sdk-2.3.1/libs/krypto/no-null-ncbi.c ****  *
  21:/home/rodarmer/sra_sdk-2.3.1/libs/krypto/no-null-ncbi.c ****  *  Please cite the author in any work or product based on this material.
  22:/home/rodarmer/sra_sdk-2.3.1/libs/krypto/no-null-ncbi.c ****  *
  23:/home/rodarmer/sra_sdk-2.3.1/libs/krypto/no-null-ncbi.c ****  * ===========================================================================
  24:/home/rodarmer/sra_sdk-2.3.1/libs/krypto/no-null-ncbi.c ****  */
  25:/home/rodarmer/sra_sdk-2.3.1/libs/krypto/no-null-ncbi.c **** 
  26:/home/rodarmer/sra_sdk-2.3.1/libs/krypto/no-null-ncbi.c **** #include <krypto/extern.h>
  27:/home/rodarmer/sra_sdk-2.3.1/libs/krypto/no-null-ncbi.c **** 
  28:/home/rodarmer/sra_sdk-2.3.1/libs/krypto/no-null-ncbi.c **** #include "ncbi-priv.h"
  29:/home/rodarmer/sra_sdk-2.3.1/libs/krypto/no-null-ncbi.c **** #include "cipher-priv.h"
  30:/home/rodarmer/sra_sdk-2.3.1/libs/krypto/no-null-ncbi.c **** /* #include "blockcipher-priv.h" */
GAS LISTING /tmp/cccESBBm.s 			page 2


  31:/home/rodarmer/sra_sdk-2.3.1/libs/krypto/no-null-ncbi.c **** 
  32:/home/rodarmer/sra_sdk-2.3.1/libs/krypto/no-null-ncbi.c **** #include <klib/rc.h>
  33:/home/rodarmer/sra_sdk-2.3.1/libs/krypto/no-null-ncbi.c **** 
  34:/home/rodarmer/sra_sdk-2.3.1/libs/krypto/no-null-ncbi.c **** /* ----------------------------------------------------------------------
  35:/home/rodarmer/sra_sdk-2.3.1/libs/krypto/no-null-ncbi.c ****  * Make
  36:/home/rodarmer/sra_sdk-2.3.1/libs/krypto/no-null-ncbi.c ****  *
  37:/home/rodarmer/sra_sdk-2.3.1/libs/krypto/no-null-ncbi.c ****  * Create a new Null Block Cipher object.
  38:/home/rodarmer/sra_sdk-2.3.1/libs/krypto/no-null-ncbi.c ****  * The processor is checked to see if this particular version is supported on
  39:/home/rodarmer/sra_sdk-2.3.1/libs/krypto/no-null-ncbi.c ****  * this particular CPU.
  40:/home/rodarmer/sra_sdk-2.3.1/libs/krypto/no-null-ncbi.c ****  */
  41:/home/rodarmer/sra_sdk-2.3.1/libs/krypto/no-null-ncbi.c **** struct KBlockCipher;
  42:/home/rodarmer/sra_sdk-2.3.1/libs/krypto/no-null-ncbi.c **** rc_t NULLBCMEMBER(Make) (struct KBlockCipher ** new_obj)
  43:/home/rodarmer/sra_sdk-2.3.1/libs/krypto/no-null-ncbi.c **** {
  20              		.loc 1 43 0
  21              		.cfi_startproc
  22 0000 55       		pushq	%rbp
  23              	.LCFI0:
  24              		.cfi_def_cfa_offset 16
  25 0001 4889E5   		movq	%rsp, %rbp
  26              		.cfi_offset 6, -16
  27              	.LCFI1:
  28              		.cfi_def_cfa_register 6
  29 0004 4883EC20 		subq	$32, %rsp
  30 0008 48897DE8 		movq	%rdi, -24(%rbp)
  44:/home/rodarmer/sra_sdk-2.3.1/libs/krypto/no-null-ncbi.c ****     rc_t rc;
  45:/home/rodarmer/sra_sdk-2.3.1/libs/krypto/no-null-ncbi.c **** 
  46:/home/rodarmer/sra_sdk-2.3.1/libs/krypto/no-null-ncbi.c ****     /* Check parameter first */
  47:/home/rodarmer/sra_sdk-2.3.1/libs/krypto/no-null-ncbi.c ****     if (new_obj == NULL)
  31              		.loc 1 47 0
  32 000c 48837DE8 		cmpq	$0, -24(%rbp)
  32      00
  33 0011 7522     		jne	.L2
  48:/home/rodarmer/sra_sdk-2.3.1/libs/krypto/no-null-ncbi.c ****         rc = RC (rcKrypto, rcBlockCipher, rcConstructing, rcSelf, rcNull);
  34              		.loc 1 48 0
  35 0013 B9300000 		movl	$48, %ecx
  35      00
  36 0018 488D1500 		leaq	__func__.2445(%rip), %rdx
  36      000000
  37 001f 488D3500 		leaq	.LC0(%rip), %rsi
  37      000000
  38 0026 BF878F00 		movl	$-2030006393, %edi
  38      87
  39 002b E8000000 		call	SetRCFileFuncLine@PLT
  39      00
  40 0030 8945FC   		movl	%eax, -4(%rbp)
  41 0033 EB2B     		jmp	.L3
  42              	.L2:
  49:/home/rodarmer/sra_sdk-2.3.1/libs/krypto/no-null-ncbi.c **** 
  50:/home/rodarmer/sra_sdk-2.3.1/libs/krypto/no-null-ncbi.c ****     else
  51:/home/rodarmer/sra_sdk-2.3.1/libs/krypto/no-null-ncbi.c ****     {
  52:/home/rodarmer/sra_sdk-2.3.1/libs/krypto/no-null-ncbi.c ****         *new_obj = NULL;
  43              		.loc 1 52 0
  44 0035 488B45E8 		movq	-24(%rbp), %rax
  45 0039 48C70000 		movq	$0, (%rax)
  45      000000
  53:/home/rodarmer/sra_sdk-2.3.1/libs/krypto/no-null-ncbi.c **** 
  54:/home/rodarmer/sra_sdk-2.3.1/libs/krypto/no-null-ncbi.c ****         rc = RC (rcKrypto, rcBlockCipher, rcConstructing, rcFunction, rcUnsupported);
GAS LISTING /tmp/cccESBBm.s 			page 3


  46              		.loc 1 54 0
  47 0040 B9360000 		movl	$54, %ecx
  47      00
  48 0045 488D1500 		leaq	__func__.2445(%rip), %rdx
  48      000000
  49 004c 488D3500 		leaq	.LC0(%rip), %rsi
  49      000000
  50 0053 BF038500 		movl	$-2030009085, %edi
  50      87
  51 0058 E8000000 		call	SetRCFileFuncLine@PLT
  51      00
  52 005d 8945FC   		movl	%eax, -4(%rbp)
  53              	.L3:
  55:/home/rodarmer/sra_sdk-2.3.1/libs/krypto/no-null-ncbi.c ****     }
  56:/home/rodarmer/sra_sdk-2.3.1/libs/krypto/no-null-ncbi.c ****     return rc;
  54              		.loc 1 56 0
  55 0060 8B45FC   		movl	-4(%rbp), %eax
  57:/home/rodarmer/sra_sdk-2.3.1/libs/krypto/no-null-ncbi.c **** }
  56              		.loc 1 57 0
  57 0063 C9       		leave
  58 0064 C3       		ret
  59              		.cfi_endproc
  60              	.LFE15:
  61              		.size	KNullBlockCipherVecAesNiMake, .-KNullBlockCipherVecAesNiMake
  62              		.section	.rodata
  63 0038 00000000 		.align 16
  63      00000000 
  64              		.type	__func__.2445, @object
  65              		.size	__func__.2445, 29
  66              	__func__.2445:
  67 0040 4B4E756C 		.string	"KNullBlockCipherVecAesNiMake"
  67      6C426C6F 
  67      636B4369 
  67      70686572 
  67      56656341 
  68 005d 000000   		.align 16
  69              		.type	__PRETTY_FUNCTION__.2444, @object
  70              		.size	__PRETTY_FUNCTION__.2444, 29
  71              	__PRETTY_FUNCTION__.2444:
  72 0060 4B4E756C 		.string	"KNullBlockCipherVecAesNiMake"
  72      6C426C6F 
  72      636B4369 
  72      70686572 
  72      56656341 
  73              		.text
  74              	.Letext0:
  75              		.section	.debug_loc,"",@progbits
  76              	.Ldebug_loc0:
  77              	.LLST0:
  78 0000 00000000 		.quad	.LFB15-.Ltext0
  78      00000000 
  79 0008 01000000 		.quad	.LCFI0-.Ltext0
  79      00000000 
  80 0010 0200     		.value	0x2
  81 0012 77       		.byte	0x77
  82 0013 08       		.sleb128 8
  83 0014 01000000 		.quad	.LCFI0-.Ltext0
GAS LISTING /tmp/cccESBBm.s 			page 4


  83      00000000 
  84 001c 04000000 		.quad	.LCFI1-.Ltext0
  84      00000000 
  85 0024 0200     		.value	0x2
  86 0026 77       		.byte	0x77
  87 0027 10       		.sleb128 16
  88 0028 04000000 		.quad	.LCFI1-.Ltext0
  88      00000000 
  89 0030 65000000 		.quad	.LFE15-.Ltext0
  89      00000000 
  90 0038 0200     		.value	0x2
  91 003a 76       		.byte	0x76
  92 003b 10       		.sleb128 16
  93 003c 00000000 		.quad	0x0
  93      00000000 
  94 0044 00000000 		.quad	0x0
  94      00000000 
  95              		.file 2 "/usr/include/stdint.h"
  96              		.file 3 "/home/rodarmer/sra_sdk-2.3.1/interfaces/klib/defs.h"
  97              		.file 4 "/home/rodarmer/sra_sdk-2.3.1/interfaces/klib/rc.h"
  98              		.section	.debug_info
  99 0000 24070000 		.long	0x724
 100 0004 0200     		.value	0x2
 101 0006 00000000 		.long	.Ldebug_abbrev0
 102 000a 08       		.byte	0x8
 103 000b 01       		.uleb128 0x1
 104 000c 00000000 		.long	.LASF258
 105 0010 01       		.byte	0x1
 106 0011 00000000 		.long	.LASF259
 107 0015 00000000 		.long	.LASF260
 108 0019 00000000 		.quad	.Ltext0
 108      00000000 
 109 0021 00000000 		.quad	.Letext0
 109      00000000 
 110 0029 00000000 		.long	.Ldebug_line0
 111 002d 02       		.uleb128 0x2
 112 002e 01       		.byte	0x1
 113 002f 06       		.byte	0x6
 114 0030 00000000 		.long	.LASF0
 115 0034 02       		.uleb128 0x2
 116 0035 02       		.byte	0x2
 117 0036 05       		.byte	0x5
 118 0037 00000000 		.long	.LASF1
 119 003b 03       		.uleb128 0x3
 120 003c 04       		.byte	0x4
 121 003d 05       		.byte	0x5
 122 003e 696E7400 		.string	"int"
 123 0042 02       		.uleb128 0x2
 124 0043 08       		.byte	0x8
 125 0044 05       		.byte	0x5
 126 0045 00000000 		.long	.LASF2
 127 0049 02       		.uleb128 0x2
 128 004a 01       		.byte	0x1
 129 004b 08       		.byte	0x8
 130 004c 00000000 		.long	.LASF3
 131 0050 02       		.uleb128 0x2
 132 0051 02       		.byte	0x2
GAS LISTING /tmp/cccESBBm.s 			page 5


 133 0052 07       		.byte	0x7
 134 0053 00000000 		.long	.LASF4
 135 0057 04       		.uleb128 0x4
 136 0058 00000000 		.long	.LASF7
 137 005c 02       		.byte	0x2
 138 005d 34       		.byte	0x34
 139 005e 62000000 		.long	0x62
 140 0062 02       		.uleb128 0x2
 141 0063 04       		.byte	0x4
 142 0064 07       		.byte	0x7
 143 0065 00000000 		.long	.LASF5
 144 0069 02       		.uleb128 0x2
 145 006a 08       		.byte	0x8
 146 006b 07       		.byte	0x7
 147 006c 00000000 		.long	.LASF6
 148 0070 04       		.uleb128 0x4
 149 0071 00000000 		.long	.LASF8
 150 0075 03       		.byte	0x3
 151 0076 30       		.byte	0x30
 152 0077 57000000 		.long	0x57
 153 007b 05       		.uleb128 0x5
 154 007c 08       		.byte	0x8
 155 007d 07       		.byte	0x7
 156 007e 02       		.uleb128 0x2
 157 007f 01       		.byte	0x1
 158 0080 06       		.byte	0x6
 159 0081 00000000 		.long	.LASF9
 160 0085 06       		.uleb128 0x6
 161 0086 00000000 		.long	.LASF32
 162 008a 04       		.byte	0x4
 163 008b 04       		.byte	0x4
 164 008c 5A       		.byte	0x5a
 165 008d 16010000 		.long	0x116
 166 0091 07       		.uleb128 0x7
 167 0092 00000000 		.long	.LASF10
 168 0096 00       		.sleb128 0
 169 0097 07       		.uleb128 0x7
 170 0098 00000000 		.long	.LASF11
 171 009c 01       		.sleb128 1
 172 009d 07       		.uleb128 0x7
 173 009e 00000000 		.long	.LASF12
 174 00a2 02       		.sleb128 2
 175 00a3 07       		.uleb128 0x7
 176 00a4 00000000 		.long	.LASF13
 177 00a8 03       		.sleb128 3
 178 00a9 07       		.uleb128 0x7
 179 00aa 00000000 		.long	.LASF14
 180 00ae 04       		.sleb128 4
 181 00af 07       		.uleb128 0x7
 182 00b0 00000000 		.long	.LASF15
 183 00b4 05       		.sleb128 5
 184 00b5 07       		.uleb128 0x7
 185 00b6 00000000 		.long	.LASF16
 186 00ba 06       		.sleb128 6
 187 00bb 07       		.uleb128 0x7
 188 00bc 00000000 		.long	.LASF17
 189 00c0 07       		.sleb128 7
GAS LISTING /tmp/cccESBBm.s 			page 6


 190 00c1 07       		.uleb128 0x7
 191 00c2 00000000 		.long	.LASF18
 192 00c6 08       		.sleb128 8
 193 00c7 07       		.uleb128 0x7
 194 00c8 00000000 		.long	.LASF19
 195 00cc 09       		.sleb128 9
 196 00cd 07       		.uleb128 0x7
 197 00ce 00000000 		.long	.LASF20
 198 00d2 0A       		.sleb128 10
 199 00d3 07       		.uleb128 0x7
 200 00d4 00000000 		.long	.LASF21
 201 00d8 0B       		.sleb128 11
 202 00d9 07       		.uleb128 0x7
 203 00da 00000000 		.long	.LASF22
 204 00de 0C       		.sleb128 12
 205 00df 07       		.uleb128 0x7
 206 00e0 00000000 		.long	.LASF23
 207 00e4 0D       		.sleb128 13
 208 00e5 07       		.uleb128 0x7
 209 00e6 00000000 		.long	.LASF24
 210 00ea 0E       		.sleb128 14
 211 00eb 07       		.uleb128 0x7
 212 00ec 00000000 		.long	.LASF25
 213 00f0 0E       		.sleb128 14
 214 00f1 07       		.uleb128 0x7
 215 00f2 00000000 		.long	.LASF26
 216 00f6 0F       		.sleb128 15
 217 00f7 07       		.uleb128 0x7
 218 00f8 00000000 		.long	.LASF27
 219 00fc 10       		.sleb128 16
 220 00fd 07       		.uleb128 0x7
 221 00fe 00000000 		.long	.LASF28
 222 0102 11       		.sleb128 17
 223 0103 07       		.uleb128 0x7
 224 0104 00000000 		.long	.LASF29
 225 0108 12       		.sleb128 18
 226 0109 07       		.uleb128 0x7
 227 010a 00000000 		.long	.LASF30
 228 010e 13       		.sleb128 19
 229 010f 07       		.uleb128 0x7
 230 0110 00000000 		.long	.LASF31
 231 0114 14       		.sleb128 20
 232 0115 00       		.byte	0x0
 233 0116 06       		.uleb128 0x6
 234 0117 00000000 		.long	.LASF33
 235 011b 04       		.byte	0x4
 236 011c 04       		.byte	0x4
 237 011d 77       		.byte	0x77
 238 011e 9D020000 		.long	0x29d
 239 0122 07       		.uleb128 0x7
 240 0123 00000000 		.long	.LASF34
 241 0127 00       		.sleb128 0
 242 0128 07       		.uleb128 0x7
 243 0129 00000000 		.long	.LASF35
 244 012d 01       		.sleb128 1
 245 012e 07       		.uleb128 0x7
 246 012f 00000000 		.long	.LASF36
GAS LISTING /tmp/cccESBBm.s 			page 7


 247 0133 02       		.sleb128 2
 248 0134 07       		.uleb128 0x7
 249 0135 00000000 		.long	.LASF37
 250 0139 03       		.sleb128 3
 251 013a 07       		.uleb128 0x7
 252 013b 00000000 		.long	.LASF38
 253 013f 04       		.sleb128 4
 254 0140 07       		.uleb128 0x7
 255 0141 00000000 		.long	.LASF39
 256 0145 05       		.sleb128 5
 257 0146 07       		.uleb128 0x7
 258 0147 00000000 		.long	.LASF40
 259 014b 06       		.sleb128 6
 260 014c 07       		.uleb128 0x7
 261 014d 00000000 		.long	.LASF41
 262 0151 07       		.sleb128 7
 263 0152 07       		.uleb128 0x7
 264 0153 00000000 		.long	.LASF42
 265 0157 08       		.sleb128 8
 266 0158 07       		.uleb128 0x7
 267 0159 00000000 		.long	.LASF43
 268 015d 09       		.sleb128 9
 269 015e 07       		.uleb128 0x7
 270 015f 00000000 		.long	.LASF44
 271 0163 0A       		.sleb128 10
 272 0164 07       		.uleb128 0x7
 273 0165 00000000 		.long	.LASF45
 274 0169 0B       		.sleb128 11
 275 016a 07       		.uleb128 0x7
 276 016b 00000000 		.long	.LASF46
 277 016f 0C       		.sleb128 12
 278 0170 07       		.uleb128 0x7
 279 0171 00000000 		.long	.LASF47
 280 0175 0D       		.sleb128 13
 281 0176 07       		.uleb128 0x7
 282 0177 00000000 		.long	.LASF48
 283 017b 0E       		.sleb128 14
 284 017c 07       		.uleb128 0x7
 285 017d 00000000 		.long	.LASF49
 286 0181 0F       		.sleb128 15
 287 0182 07       		.uleb128 0x7
 288 0183 00000000 		.long	.LASF50
 289 0187 10       		.sleb128 16
 290 0188 07       		.uleb128 0x7
 291 0189 00000000 		.long	.LASF51
 292 018d 11       		.sleb128 17
 293 018e 07       		.uleb128 0x7
 294 018f 00000000 		.long	.LASF52
 295 0193 12       		.sleb128 18
 296 0194 07       		.uleb128 0x7
 297 0195 00000000 		.long	.LASF53
 298 0199 13       		.sleb128 19
 299 019a 07       		.uleb128 0x7
 300 019b 00000000 		.long	.LASF54
 301 019f 14       		.sleb128 20
 302 01a0 07       		.uleb128 0x7
 303 01a1 00000000 		.long	.LASF55
GAS LISTING /tmp/cccESBBm.s 			page 8


 304 01a5 15       		.sleb128 21
 305 01a6 07       		.uleb128 0x7
 306 01a7 00000000 		.long	.LASF56
 307 01ab 16       		.sleb128 22
 308 01ac 07       		.uleb128 0x7
 309 01ad 00000000 		.long	.LASF57
 310 01b1 17       		.sleb128 23
 311 01b2 07       		.uleb128 0x7
 312 01b3 00000000 		.long	.LASF58
 313 01b7 18       		.sleb128 24
 314 01b8 07       		.uleb128 0x7
 315 01b9 00000000 		.long	.LASF59
 316 01bd 19       		.sleb128 25
 317 01be 07       		.uleb128 0x7
 318 01bf 00000000 		.long	.LASF60
 319 01c3 1A       		.sleb128 26
 320 01c4 07       		.uleb128 0x7
 321 01c5 00000000 		.long	.LASF61
 322 01c9 1B       		.sleb128 27
 323 01ca 07       		.uleb128 0x7
 324 01cb 00000000 		.long	.LASF62
 325 01cf 1C       		.sleb128 28
 326 01d0 07       		.uleb128 0x7
 327 01d1 00000000 		.long	.LASF63
 328 01d5 1D       		.sleb128 29
 329 01d6 07       		.uleb128 0x7
 330 01d7 00000000 		.long	.LASF64
 331 01db 1E       		.sleb128 30
 332 01dc 07       		.uleb128 0x7
 333 01dd 00000000 		.long	.LASF65
 334 01e1 1F       		.sleb128 31
 335 01e2 07       		.uleb128 0x7
 336 01e3 00000000 		.long	.LASF66
 337 01e7 20       		.sleb128 32
 338 01e8 07       		.uleb128 0x7
 339 01e9 00000000 		.long	.LASF67
 340 01ed 21       		.sleb128 33
 341 01ee 07       		.uleb128 0x7
 342 01ef 00000000 		.long	.LASF68
 343 01f3 22       		.sleb128 34
 344 01f4 07       		.uleb128 0x7
 345 01f5 00000000 		.long	.LASF69
 346 01f9 23       		.sleb128 35
 347 01fa 07       		.uleb128 0x7
 348 01fb 00000000 		.long	.LASF70
 349 01ff 24       		.sleb128 36
 350 0200 07       		.uleb128 0x7
 351 0201 00000000 		.long	.LASF71
 352 0205 25       		.sleb128 37
 353 0206 07       		.uleb128 0x7
 354 0207 00000000 		.long	.LASF72
 355 020b 26       		.sleb128 38
 356 020c 07       		.uleb128 0x7
 357 020d 00000000 		.long	.LASF73
 358 0211 27       		.sleb128 39
 359 0212 07       		.uleb128 0x7
 360 0213 00000000 		.long	.LASF74
GAS LISTING /tmp/cccESBBm.s 			page 9


 361 0217 28       		.sleb128 40
 362 0218 07       		.uleb128 0x7
 363 0219 00000000 		.long	.LASF75
 364 021d 29       		.sleb128 41
 365 021e 07       		.uleb128 0x7
 366 021f 00000000 		.long	.LASF76
 367 0223 2A       		.sleb128 42
 368 0224 07       		.uleb128 0x7
 369 0225 00000000 		.long	.LASF77
 370 0229 2B       		.sleb128 43
 371 022a 07       		.uleb128 0x7
 372 022b 00000000 		.long	.LASF78
 373 022f 2C       		.sleb128 44
 374 0230 07       		.uleb128 0x7
 375 0231 00000000 		.long	.LASF79
 376 0235 2D       		.sleb128 45
 377 0236 07       		.uleb128 0x7
 378 0237 00000000 		.long	.LASF80
 379 023b 2E       		.sleb128 46
 380 023c 07       		.uleb128 0x7
 381 023d 00000000 		.long	.LASF81
 382 0241 2F       		.sleb128 47
 383 0242 07       		.uleb128 0x7
 384 0243 00000000 		.long	.LASF82
 385 0247 30       		.sleb128 48
 386 0248 07       		.uleb128 0x7
 387 0249 00000000 		.long	.LASF83
 388 024d 31       		.sleb128 49
 389 024e 07       		.uleb128 0x7
 390 024f 00000000 		.long	.LASF84
 391 0253 32       		.sleb128 50
 392 0254 07       		.uleb128 0x7
 393 0255 00000000 		.long	.LASF85
 394 0259 33       		.sleb128 51
 395 025a 07       		.uleb128 0x7
 396 025b 00000000 		.long	.LASF86
 397 025f 34       		.sleb128 52
 398 0260 07       		.uleb128 0x7
 399 0261 00000000 		.long	.LASF87
 400 0265 35       		.sleb128 53
 401 0266 07       		.uleb128 0x7
 402 0267 00000000 		.long	.LASF88
 403 026b 36       		.sleb128 54
 404 026c 07       		.uleb128 0x7
 405 026d 00000000 		.long	.LASF89
 406 0271 36       		.sleb128 54
 407 0272 07       		.uleb128 0x7
 408 0273 00000000 		.long	.LASF90
 409 0277 37       		.sleb128 55
 410 0278 07       		.uleb128 0x7
 411 0279 00000000 		.long	.LASF91
 412 027d 38       		.sleb128 56
 413 027e 07       		.uleb128 0x7
 414 027f 00000000 		.long	.LASF92
 415 0283 39       		.sleb128 57
 416 0284 07       		.uleb128 0x7
 417 0285 00000000 		.long	.LASF93
GAS LISTING /tmp/cccESBBm.s 			page 10


 418 0289 3A       		.sleb128 58
 419 028a 07       		.uleb128 0x7
 420 028b 00000000 		.long	.LASF94
 421 028f 3B       		.sleb128 59
 422 0290 07       		.uleb128 0x7
 423 0291 00000000 		.long	.LASF95
 424 0295 3C       		.sleb128 60
 425 0296 07       		.uleb128 0x7
 426 0297 00000000 		.long	.LASF96
 427 029b 3D       		.sleb128 61
 428 029c 00       		.byte	0x0
 429 029d 06       		.uleb128 0x6
 430 029e 00000000 		.long	.LASF97
 431 02a2 04       		.byte	0x4
 432 02a3 04       		.byte	0x4
 433 02a4 BD       		.byte	0xbd
 434 02a5 53040000 		.long	0x453
 435 02a9 07       		.uleb128 0x7
 436 02aa 00000000 		.long	.LASF98
 437 02ae 00       		.sleb128 0
 438 02af 07       		.uleb128 0x7
 439 02b0 00000000 		.long	.LASF99
 440 02b4 01       		.sleb128 1
 441 02b5 07       		.uleb128 0x7
 442 02b6 00000000 		.long	.LASF100
 443 02ba 02       		.sleb128 2
 444 02bb 07       		.uleb128 0x7
 445 02bc 00000000 		.long	.LASF101
 446 02c0 03       		.sleb128 3
 447 02c1 07       		.uleb128 0x7
 448 02c2 00000000 		.long	.LASF102
 449 02c6 04       		.sleb128 4
 450 02c7 07       		.uleb128 0x7
 451 02c8 00000000 		.long	.LASF103
 452 02cc 05       		.sleb128 5
 453 02cd 07       		.uleb128 0x7
 454 02ce 00000000 		.long	.LASF104
 455 02d2 06       		.sleb128 6
 456 02d3 07       		.uleb128 0x7
 457 02d4 00000000 		.long	.LASF105
 458 02d8 07       		.sleb128 7
 459 02d9 07       		.uleb128 0x7
 460 02da 00000000 		.long	.LASF106
 461 02de 08       		.sleb128 8
 462 02df 07       		.uleb128 0x7
 463 02e0 00000000 		.long	.LASF107
 464 02e4 09       		.sleb128 9
 465 02e5 07       		.uleb128 0x7
 466 02e6 00000000 		.long	.LASF108
 467 02ea 0A       		.sleb128 10
 468 02eb 07       		.uleb128 0x7
 469 02ec 00000000 		.long	.LASF109
 470 02f0 0B       		.sleb128 11
 471 02f1 07       		.uleb128 0x7
 472 02f2 00000000 		.long	.LASF110
 473 02f6 0C       		.sleb128 12
 474 02f7 07       		.uleb128 0x7
GAS LISTING /tmp/cccESBBm.s 			page 11


 475 02f8 00000000 		.long	.LASF111
 476 02fc 0D       		.sleb128 13
 477 02fd 07       		.uleb128 0x7
 478 02fe 00000000 		.long	.LASF112
 479 0302 0E       		.sleb128 14
 480 0303 07       		.uleb128 0x7
 481 0304 00000000 		.long	.LASF113
 482 0308 0F       		.sleb128 15
 483 0309 07       		.uleb128 0x7
 484 030a 00000000 		.long	.LASF114
 485 030e 10       		.sleb128 16
 486 030f 07       		.uleb128 0x7
 487 0310 00000000 		.long	.LASF115
 488 0314 11       		.sleb128 17
 489 0315 07       		.uleb128 0x7
 490 0316 00000000 		.long	.LASF116
 491 031a 12       		.sleb128 18
 492 031b 07       		.uleb128 0x7
 493 031c 00000000 		.long	.LASF117
 494 0320 13       		.sleb128 19
 495 0321 07       		.uleb128 0x7
 496 0322 00000000 		.long	.LASF118
 497 0326 14       		.sleb128 20
 498 0327 07       		.uleb128 0x7
 499 0328 00000000 		.long	.LASF119
 500 032c 15       		.sleb128 21
 501 032d 07       		.uleb128 0x7
 502 032e 00000000 		.long	.LASF120
 503 0332 16       		.sleb128 22
 504 0333 07       		.uleb128 0x7
 505 0334 00000000 		.long	.LASF121
 506 0338 17       		.sleb128 23
 507 0339 07       		.uleb128 0x7
 508 033a 00000000 		.long	.LASF122
 509 033e 18       		.sleb128 24
 510 033f 07       		.uleb128 0x7
 511 0340 00000000 		.long	.LASF123
 512 0344 19       		.sleb128 25
 513 0345 07       		.uleb128 0x7
 514 0346 00000000 		.long	.LASF124
 515 034a 1A       		.sleb128 26
 516 034b 07       		.uleb128 0x7
 517 034c 00000000 		.long	.LASF125
 518 0350 1B       		.sleb128 27
 519 0351 07       		.uleb128 0x7
 520 0352 00000000 		.long	.LASF126
 521 0356 1C       		.sleb128 28
 522 0357 07       		.uleb128 0x7
 523 0358 00000000 		.long	.LASF127
 524 035c 1D       		.sleb128 29
 525 035d 07       		.uleb128 0x7
 526 035e 00000000 		.long	.LASF128
 527 0362 1E       		.sleb128 30
 528 0363 07       		.uleb128 0x7
 529 0364 00000000 		.long	.LASF129
 530 0368 1F       		.sleb128 31
 531 0369 07       		.uleb128 0x7
GAS LISTING /tmp/cccESBBm.s 			page 12


 532 036a 00000000 		.long	.LASF130
 533 036e 20       		.sleb128 32
 534 036f 07       		.uleb128 0x7
 535 0370 00000000 		.long	.LASF131
 536 0374 21       		.sleb128 33
 537 0375 07       		.uleb128 0x7
 538 0376 00000000 		.long	.LASF132
 539 037a 22       		.sleb128 34
 540 037b 07       		.uleb128 0x7
 541 037c 00000000 		.long	.LASF133
 542 0380 23       		.sleb128 35
 543 0381 07       		.uleb128 0x7
 544 0382 00000000 		.long	.LASF134
 545 0386 24       		.sleb128 36
 546 0387 07       		.uleb128 0x7
 547 0388 00000000 		.long	.LASF135
 548 038c 25       		.sleb128 37
 549 038d 07       		.uleb128 0x7
 550 038e 00000000 		.long	.LASF136
 551 0392 26       		.sleb128 38
 552 0393 07       		.uleb128 0x7
 553 0394 00000000 		.long	.LASF137
 554 0398 27       		.sleb128 39
 555 0399 07       		.uleb128 0x7
 556 039a 00000000 		.long	.LASF138
 557 039e 28       		.sleb128 40
 558 039f 07       		.uleb128 0x7
 559 03a0 00000000 		.long	.LASF139
 560 03a4 29       		.sleb128 41
 561 03a5 07       		.uleb128 0x7
 562 03a6 00000000 		.long	.LASF140
 563 03aa 2A       		.sleb128 42
 564 03ab 07       		.uleb128 0x7
 565 03ac 00000000 		.long	.LASF141
 566 03b0 2B       		.sleb128 43
 567 03b1 07       		.uleb128 0x7
 568 03b2 00000000 		.long	.LASF142
 569 03b6 2C       		.sleb128 44
 570 03b7 07       		.uleb128 0x7
 571 03b8 00000000 		.long	.LASF143
 572 03bc 2D       		.sleb128 45
 573 03bd 07       		.uleb128 0x7
 574 03be 00000000 		.long	.LASF144
 575 03c2 2E       		.sleb128 46
 576 03c3 07       		.uleb128 0x7
 577 03c4 00000000 		.long	.LASF145
 578 03c8 2F       		.sleb128 47
 579 03c9 07       		.uleb128 0x7
 580 03ca 00000000 		.long	.LASF146
 581 03ce 30       		.sleb128 48
 582 03cf 07       		.uleb128 0x7
 583 03d0 00000000 		.long	.LASF147
 584 03d4 31       		.sleb128 49
 585 03d5 07       		.uleb128 0x7
 586 03d6 00000000 		.long	.LASF148
 587 03da 32       		.sleb128 50
 588 03db 07       		.uleb128 0x7
GAS LISTING /tmp/cccESBBm.s 			page 13


 589 03dc 00000000 		.long	.LASF149
 590 03e0 33       		.sleb128 51
 591 03e1 07       		.uleb128 0x7
 592 03e2 00000000 		.long	.LASF150
 593 03e6 34       		.sleb128 52
 594 03e7 07       		.uleb128 0x7
 595 03e8 00000000 		.long	.LASF151
 596 03ec 35       		.sleb128 53
 597 03ed 07       		.uleb128 0x7
 598 03ee 00000000 		.long	.LASF152
 599 03f2 36       		.sleb128 54
 600 03f3 07       		.uleb128 0x7
 601 03f4 00000000 		.long	.LASF153
 602 03f8 37       		.sleb128 55
 603 03f9 07       		.uleb128 0x7
 604 03fa 00000000 		.long	.LASF154
 605 03fe 38       		.sleb128 56
 606 03ff 07       		.uleb128 0x7
 607 0400 00000000 		.long	.LASF155
 608 0404 39       		.sleb128 57
 609 0405 07       		.uleb128 0x7
 610 0406 00000000 		.long	.LASF156
 611 040a 3A       		.sleb128 58
 612 040b 07       		.uleb128 0x7
 613 040c 00000000 		.long	.LASF157
 614 0410 3A       		.sleb128 58
 615 0411 07       		.uleb128 0x7
 616 0412 00000000 		.long	.LASF158
 617 0416 3B       		.sleb128 59
 618 0417 07       		.uleb128 0x7
 619 0418 00000000 		.long	.LASF159
 620 041c 3C       		.sleb128 60
 621 041d 07       		.uleb128 0x7
 622 041e 00000000 		.long	.LASF160
 623 0422 3D       		.sleb128 61
 624 0423 07       		.uleb128 0x7
 625 0424 00000000 		.long	.LASF161
 626 0428 3E       		.sleb128 62
 627 0429 07       		.uleb128 0x7
 628 042a 00000000 		.long	.LASF162
 629 042e 3F       		.sleb128 63
 630 042f 07       		.uleb128 0x7
 631 0430 00000000 		.long	.LASF163
 632 0434 C000     		.sleb128 64
 633 0436 07       		.uleb128 0x7
 634 0437 00000000 		.long	.LASF164
 635 043b C100     		.sleb128 65
 636 043d 07       		.uleb128 0x7
 637 043e 00000000 		.long	.LASF165
 638 0442 C200     		.sleb128 66
 639 0444 07       		.uleb128 0x7
 640 0445 00000000 		.long	.LASF166
 641 0449 C300     		.sleb128 67
 642 044b 07       		.uleb128 0x7
 643 044c 00000000 		.long	.LASF167
 644 0450 C400     		.sleb128 68
 645 0452 00       		.byte	0x0
GAS LISTING /tmp/cccESBBm.s 			page 14


 646 0453 08       		.uleb128 0x8
 647 0454 00000000 		.long	.LASF168
 648 0458 04       		.byte	0x4
 649 0459 04       		.byte	0x4
 650 045a 0A01     		.value	0x10a
 651 045c 52050000 		.long	0x552
 652 0460 07       		.uleb128 0x7
 653 0461 00000000 		.long	.LASF169
 654 0465 00       		.sleb128 0
 655 0466 07       		.uleb128 0x7
 656 0467 00000000 		.long	.LASF170
 657 046b 3D       		.sleb128 61
 658 046c 07       		.uleb128 0x7
 659 046d 00000000 		.long	.LASF171
 660 0471 3E       		.sleb128 62
 661 0472 07       		.uleb128 0x7
 662 0473 00000000 		.long	.LASF172
 663 0477 3F       		.sleb128 63
 664 0478 07       		.uleb128 0x7
 665 0479 00000000 		.long	.LASF173
 666 047d C000     		.sleb128 64
 667 047f 07       		.uleb128 0x7
 668 0480 00000000 		.long	.LASF174
 669 0484 C100     		.sleb128 65
 670 0486 07       		.uleb128 0x7
 671 0487 00000000 		.long	.LASF175
 672 048b C200     		.sleb128 66
 673 048d 07       		.uleb128 0x7
 674 048e 00000000 		.long	.LASF176
 675 0492 C300     		.sleb128 67
 676 0494 07       		.uleb128 0x7
 677 0495 00000000 		.long	.LASF177
 678 0499 C400     		.sleb128 68
 679 049b 07       		.uleb128 0x7
 680 049c 00000000 		.long	.LASF178
 681 04a0 C500     		.sleb128 69
 682 04a2 07       		.uleb128 0x7
 683 04a3 00000000 		.long	.LASF179
 684 04a7 C600     		.sleb128 70
 685 04a9 07       		.uleb128 0x7
 686 04aa 00000000 		.long	.LASF180
 687 04ae C700     		.sleb128 71
 688 04b0 07       		.uleb128 0x7
 689 04b1 00000000 		.long	.LASF181
 690 04b5 C800     		.sleb128 72
 691 04b7 07       		.uleb128 0x7
 692 04b8 00000000 		.long	.LASF182
 693 04bc C900     		.sleb128 73
 694 04be 07       		.uleb128 0x7
 695 04bf 00000000 		.long	.LASF183
 696 04c3 CA00     		.sleb128 74
 697 04c5 07       		.uleb128 0x7
 698 04c6 00000000 		.long	.LASF184
 699 04ca CB00     		.sleb128 75
 700 04cc 07       		.uleb128 0x7
 701 04cd 00000000 		.long	.LASF185
 702 04d1 CC00     		.sleb128 76
GAS LISTING /tmp/cccESBBm.s 			page 15


 703 04d3 07       		.uleb128 0x7
 704 04d4 00000000 		.long	.LASF186
 705 04d8 CD00     		.sleb128 77
 706 04da 07       		.uleb128 0x7
 707 04db 00000000 		.long	.LASF187
 708 04df CE00     		.sleb128 78
 709 04e1 07       		.uleb128 0x7
 710 04e2 00000000 		.long	.LASF188
 711 04e6 CF00     		.sleb128 79
 712 04e8 07       		.uleb128 0x7
 713 04e9 00000000 		.long	.LASF189
 714 04ed D000     		.sleb128 80
 715 04ef 07       		.uleb128 0x7
 716 04f0 00000000 		.long	.LASF190
 717 04f4 D100     		.sleb128 81
 718 04f6 07       		.uleb128 0x7
 719 04f7 00000000 		.long	.LASF191
 720 04fb D100     		.sleb128 81
 721 04fd 07       		.uleb128 0x7
 722 04fe 00000000 		.long	.LASF192
 723 0502 D200     		.sleb128 82
 724 0504 07       		.uleb128 0x7
 725 0505 00000000 		.long	.LASF193
 726 0509 D300     		.sleb128 83
 727 050b 07       		.uleb128 0x7
 728 050c 00000000 		.long	.LASF194
 729 0510 D400     		.sleb128 84
 730 0512 07       		.uleb128 0x7
 731 0513 00000000 		.long	.LASF195
 732 0517 D500     		.sleb128 85
 733 0519 07       		.uleb128 0x7
 734 051a 00000000 		.long	.LASF196
 735 051e D600     		.sleb128 86
 736 0520 07       		.uleb128 0x7
 737 0521 00000000 		.long	.LASF197
 738 0525 D700     		.sleb128 87
 739 0527 07       		.uleb128 0x7
 740 0528 00000000 		.long	.LASF198
 741 052c D800     		.sleb128 88
 742 052e 07       		.uleb128 0x7
 743 052f 00000000 		.long	.LASF199
 744 0533 D900     		.sleb128 89
 745 0535 07       		.uleb128 0x7
 746 0536 00000000 		.long	.LASF200
 747 053a DA00     		.sleb128 90
 748 053c 07       		.uleb128 0x7
 749 053d 00000000 		.long	.LASF201
 750 0541 DB00     		.sleb128 91
 751 0543 07       		.uleb128 0x7
 752 0544 00000000 		.long	.LASF202
 753 0548 DC00     		.sleb128 92
 754 054a 07       		.uleb128 0x7
 755 054b 00000000 		.long	.LASF203
 756 054f DD00     		.sleb128 93
 757 0551 00       		.byte	0x0
 758 0552 08       		.uleb128 0x8
 759 0553 00000000 		.long	.LASF204
GAS LISTING /tmp/cccESBBm.s 			page 16


 760 0557 04       		.byte	0x4
 761 0558 04       		.byte	0x4
 762 0559 3401     		.value	0x134
 763 055b 92060000 		.long	0x692
 764 055f 07       		.uleb128 0x7
 765 0560 00000000 		.long	.LASF205
 766 0564 00       		.sleb128 0
 767 0565 07       		.uleb128 0x7
 768 0566 00000000 		.long	.LASF206
 769 056a 01       		.sleb128 1
 770 056b 07       		.uleb128 0x7
 771 056c 00000000 		.long	.LASF207
 772 0570 02       		.sleb128 2
 773 0571 07       		.uleb128 0x7
 774 0572 00000000 		.long	.LASF208
 775 0576 03       		.sleb128 3
 776 0577 07       		.uleb128 0x7
 777 0578 00000000 		.long	.LASF209
 778 057c 04       		.sleb128 4
 779 057d 07       		.uleb128 0x7
 780 057e 00000000 		.long	.LASF210
 781 0582 05       		.sleb128 5
 782 0583 07       		.uleb128 0x7
 783 0584 00000000 		.long	.LASF211
 784 0588 06       		.sleb128 6
 785 0589 07       		.uleb128 0x7
 786 058a 00000000 		.long	.LASF212
 787 058e 07       		.sleb128 7
 788 058f 07       		.uleb128 0x7
 789 0590 00000000 		.long	.LASF213
 790 0594 08       		.sleb128 8
 791 0595 07       		.uleb128 0x7
 792 0596 00000000 		.long	.LASF214
 793 059a 09       		.sleb128 9
 794 059b 07       		.uleb128 0x7
 795 059c 00000000 		.long	.LASF215
 796 05a0 0A       		.sleb128 10
 797 05a1 07       		.uleb128 0x7
 798 05a2 00000000 		.long	.LASF216
 799 05a6 0B       		.sleb128 11
 800 05a7 07       		.uleb128 0x7
 801 05a8 00000000 		.long	.LASF217
 802 05ac 0C       		.sleb128 12
 803 05ad 07       		.uleb128 0x7
 804 05ae 00000000 		.long	.LASF218
 805 05b2 0D       		.sleb128 13
 806 05b3 07       		.uleb128 0x7
 807 05b4 00000000 		.long	.LASF219
 808 05b8 0E       		.sleb128 14
 809 05b9 07       		.uleb128 0x7
 810 05ba 00000000 		.long	.LASF220
 811 05be 0F       		.sleb128 15
 812 05bf 07       		.uleb128 0x7
 813 05c0 00000000 		.long	.LASF221
 814 05c4 10       		.sleb128 16
 815 05c5 07       		.uleb128 0x7
 816 05c6 00000000 		.long	.LASF222
GAS LISTING /tmp/cccESBBm.s 			page 17


 817 05ca 11       		.sleb128 17
 818 05cb 07       		.uleb128 0x7
 819 05cc 00000000 		.long	.LASF223
 820 05d0 12       		.sleb128 18
 821 05d1 07       		.uleb128 0x7
 822 05d2 00000000 		.long	.LASF224
 823 05d6 13       		.sleb128 19
 824 05d7 07       		.uleb128 0x7
 825 05d8 00000000 		.long	.LASF225
 826 05dc 14       		.sleb128 20
 827 05dd 07       		.uleb128 0x7
 828 05de 00000000 		.long	.LASF226
 829 05e2 15       		.sleb128 21
 830 05e3 07       		.uleb128 0x7
 831 05e4 00000000 		.long	.LASF227
 832 05e8 16       		.sleb128 22
 833 05e9 07       		.uleb128 0x7
 834 05ea 00000000 		.long	.LASF228
 835 05ee 17       		.sleb128 23
 836 05ef 07       		.uleb128 0x7
 837 05f0 00000000 		.long	.LASF229
 838 05f4 18       		.sleb128 24
 839 05f5 07       		.uleb128 0x7
 840 05f6 00000000 		.long	.LASF230
 841 05fa 19       		.sleb128 25
 842 05fb 07       		.uleb128 0x7
 843 05fc 00000000 		.long	.LASF231
 844 0600 1A       		.sleb128 26
 845 0601 07       		.uleb128 0x7
 846 0602 00000000 		.long	.LASF232
 847 0606 1B       		.sleb128 27
 848 0607 07       		.uleb128 0x7
 849 0608 00000000 		.long	.LASF233
 850 060c 1C       		.sleb128 28
 851 060d 07       		.uleb128 0x7
 852 060e 00000000 		.long	.LASF234
 853 0612 1D       		.sleb128 29
 854 0613 07       		.uleb128 0x7
 855 0614 00000000 		.long	.LASF235
 856 0618 1E       		.sleb128 30
 857 0619 07       		.uleb128 0x7
 858 061a 00000000 		.long	.LASF236
 859 061e 1F       		.sleb128 31
 860 061f 07       		.uleb128 0x7
 861 0620 00000000 		.long	.LASF237
 862 0624 20       		.sleb128 32
 863 0625 07       		.uleb128 0x7
 864 0626 00000000 		.long	.LASF238
 865 062a 21       		.sleb128 33
 866 062b 07       		.uleb128 0x7
 867 062c 00000000 		.long	.LASF239
 868 0630 22       		.sleb128 34
 869 0631 07       		.uleb128 0x7
 870 0632 00000000 		.long	.LASF240
 871 0636 23       		.sleb128 35
 872 0637 07       		.uleb128 0x7
 873 0638 00000000 		.long	.LASF241
GAS LISTING /tmp/cccESBBm.s 			page 18


 874 063c 24       		.sleb128 36
 875 063d 07       		.uleb128 0x7
 876 063e 00000000 		.long	.LASF242
 877 0642 25       		.sleb128 37
 878 0643 07       		.uleb128 0x7
 879 0644 00000000 		.long	.LASF243
 880 0648 26       		.sleb128 38
 881 0649 07       		.uleb128 0x7
 882 064a 00000000 		.long	.LASF244
 883 064e 27       		.sleb128 39
 884 064f 07       		.uleb128 0x7
 885 0650 00000000 		.long	.LASF245
 886 0654 28       		.sleb128 40
 887 0655 07       		.uleb128 0x7
 888 0656 00000000 		.long	.LASF246
 889 065a 29       		.sleb128 41
 890 065b 07       		.uleb128 0x7
 891 065c 00000000 		.long	.LASF247
 892 0660 29       		.sleb128 41
 893 0661 07       		.uleb128 0x7
 894 0662 00000000 		.long	.LASF248
 895 0666 2A       		.sleb128 42
 896 0667 07       		.uleb128 0x7
 897 0668 00000000 		.long	.LASF249
 898 066c 2B       		.sleb128 43
 899 066d 07       		.uleb128 0x7
 900 066e 00000000 		.long	.LASF250
 901 0672 2C       		.sleb128 44
 902 0673 07       		.uleb128 0x7
 903 0674 00000000 		.long	.LASF251
 904 0678 2D       		.sleb128 45
 905 0679 07       		.uleb128 0x7
 906 067a 00000000 		.long	.LASF252
 907 067e 2E       		.sleb128 46
 908 067f 07       		.uleb128 0x7
 909 0680 00000000 		.long	.LASF253
 910 0684 2F       		.sleb128 47
 911 0685 07       		.uleb128 0x7
 912 0686 00000000 		.long	.LASF254
 913 068a 30       		.sleb128 48
 914 068b 07       		.uleb128 0x7
 915 068c 00000000 		.long	.LASF255
 916 0690 31       		.sleb128 49
 917 0691 00       		.byte	0x0
 918 0692 09       		.uleb128 0x9
 919 0693 01       		.byte	0x1
 920 0694 00000000 		.long	.LASF261
 921 0698 01       		.byte	0x1
 922 0699 2A       		.byte	0x2a
 923 069a 01       		.byte	0x1
 924 069b 70000000 		.long	0x70
 925 069f 00000000 		.quad	.LFB15
 925      00000000 
 926 06a7 00000000 		.quad	.LFE15
 926      00000000 
 927 06af 00000000 		.long	.LLST0
 928 06b3 01070000 		.long	0x701
GAS LISTING /tmp/cccESBBm.s 			page 19


 929 06b7 0A       		.uleb128 0xa
 930 06b8 00000000 		.long	.LASF262
 931 06bc 01       		.byte	0x1
 932 06bd 0B       		.uleb128 0xb
 933 06be 00000000 		.long	.LASF263
 934 06c2 01       		.byte	0x1
 935 06c3 2A       		.byte	0x2a
 936 06c4 01070000 		.long	0x701
 937 06c8 02       		.byte	0x2
 938 06c9 91       		.byte	0x91
 939 06ca 58       		.sleb128 -40
 940 06cb 0C       		.uleb128 0xc
 941 06cc 726300   		.string	"rc"
 942 06cf 01       		.byte	0x1
 943 06d0 2C       		.byte	0x2c
 944 06d1 70000000 		.long	0x70
 945 06d5 02       		.byte	0x2
 946 06d6 91       		.byte	0x91
 947 06d7 6C       		.sleb128 -20
 948 06d8 0D       		.uleb128 0xd
 949 06d9 00000000 		.long	.LASF256
 950 06dd 1D070000 		.long	0x71d
 951 06e1 01       		.byte	0x1
 952 06e2 09       		.byte	0x9
 953 06e3 03       		.byte	0x3
 954 06e4 00000000 		.quad	__PRETTY_FUNCTION__.2444
 954      00000000 
 955 06ec 0D       		.uleb128 0xd
 956 06ed 00000000 		.long	.LASF257
 957 06f1 22070000 		.long	0x722
 958 06f5 01       		.byte	0x1
 959 06f6 09       		.byte	0x9
 960 06f7 03       		.byte	0x3
 961 06f8 00000000 		.quad	__func__.2445
 961      00000000 
 962 0700 00       		.byte	0x0
 963 0701 0E       		.uleb128 0xe
 964 0702 08       		.byte	0x8
 965 0703 07070000 		.long	0x707
 966 0707 0E       		.uleb128 0xe
 967 0708 08       		.byte	0x8
 968 0709 B7060000 		.long	0x6b7
 969 070d 0F       		.uleb128 0xf
 970 070e 7E000000 		.long	0x7e
 971 0712 1D070000 		.long	0x71d
 972 0716 10       		.uleb128 0x10
 973 0717 7B000000 		.long	0x7b
 974 071b 1C       		.byte	0x1c
 975 071c 00       		.byte	0x0
 976 071d 11       		.uleb128 0x11
 977 071e 0D070000 		.long	0x70d
 978 0722 11       		.uleb128 0x11
 979 0723 0D070000 		.long	0x70d
 980 0727 00       		.byte	0x0
 981              		.section	.debug_abbrev
 982 0000 01       		.uleb128 0x1
 983 0001 11       		.uleb128 0x11
GAS LISTING /tmp/cccESBBm.s 			page 20


 984 0002 01       		.byte	0x1
 985 0003 25       		.uleb128 0x25
 986 0004 0E       		.uleb128 0xe
 987 0005 13       		.uleb128 0x13
 988 0006 0B       		.uleb128 0xb
 989 0007 03       		.uleb128 0x3
 990 0008 0E       		.uleb128 0xe
 991 0009 1B       		.uleb128 0x1b
 992 000a 0E       		.uleb128 0xe
 993 000b 11       		.uleb128 0x11
 994 000c 01       		.uleb128 0x1
 995 000d 12       		.uleb128 0x12
 996 000e 01       		.uleb128 0x1
 997 000f 10       		.uleb128 0x10
 998 0010 06       		.uleb128 0x6
 999 0011 00       		.byte	0x0
 1000 0012 00       		.byte	0x0
 1001 0013 02       		.uleb128 0x2
 1002 0014 24       		.uleb128 0x24
 1003 0015 00       		.byte	0x0
 1004 0016 0B       		.uleb128 0xb
 1005 0017 0B       		.uleb128 0xb
 1006 0018 3E       		.uleb128 0x3e
 1007 0019 0B       		.uleb128 0xb
 1008 001a 03       		.uleb128 0x3
 1009 001b 0E       		.uleb128 0xe
 1010 001c 00       		.byte	0x0
 1011 001d 00       		.byte	0x0
 1012 001e 03       		.uleb128 0x3
 1013 001f 24       		.uleb128 0x24
 1014 0020 00       		.byte	0x0
 1015 0021 0B       		.uleb128 0xb
 1016 0022 0B       		.uleb128 0xb
 1017 0023 3E       		.uleb128 0x3e
 1018 0024 0B       		.uleb128 0xb
 1019 0025 03       		.uleb128 0x3
 1020 0026 08       		.uleb128 0x8
 1021 0027 00       		.byte	0x0
 1022 0028 00       		.byte	0x0
 1023 0029 04       		.uleb128 0x4
 1024 002a 16       		.uleb128 0x16
 1025 002b 00       		.byte	0x0
 1026 002c 03       		.uleb128 0x3
 1027 002d 0E       		.uleb128 0xe
 1028 002e 3A       		.uleb128 0x3a
 1029 002f 0B       		.uleb128 0xb
 1030 0030 3B       		.uleb128 0x3b
 1031 0031 0B       		.uleb128 0xb
 1032 0032 49       		.uleb128 0x49
 1033 0033 13       		.uleb128 0x13
 1034 0034 00       		.byte	0x0
 1035 0035 00       		.byte	0x0
 1036 0036 05       		.uleb128 0x5
 1037 0037 24       		.uleb128 0x24
 1038 0038 00       		.byte	0x0
 1039 0039 0B       		.uleb128 0xb
 1040 003a 0B       		.uleb128 0xb
GAS LISTING /tmp/cccESBBm.s 			page 21


 1041 003b 3E       		.uleb128 0x3e
 1042 003c 0B       		.uleb128 0xb
 1043 003d 00       		.byte	0x0
 1044 003e 00       		.byte	0x0
 1045 003f 06       		.uleb128 0x6
 1046 0040 04       		.uleb128 0x4
 1047 0041 01       		.byte	0x1
 1048 0042 03       		.uleb128 0x3
 1049 0043 0E       		.uleb128 0xe
 1050 0044 0B       		.uleb128 0xb
 1051 0045 0B       		.uleb128 0xb
 1052 0046 3A       		.uleb128 0x3a
 1053 0047 0B       		.uleb128 0xb
 1054 0048 3B       		.uleb128 0x3b
 1055 0049 0B       		.uleb128 0xb
 1056 004a 01       		.uleb128 0x1
 1057 004b 13       		.uleb128 0x13
 1058 004c 00       		.byte	0x0
 1059 004d 00       		.byte	0x0
 1060 004e 07       		.uleb128 0x7
 1061 004f 28       		.uleb128 0x28
 1062 0050 00       		.byte	0x0
 1063 0051 03       		.uleb128 0x3
 1064 0052 0E       		.uleb128 0xe
 1065 0053 1C       		.uleb128 0x1c
 1066 0054 0D       		.uleb128 0xd
 1067 0055 00       		.byte	0x0
 1068 0056 00       		.byte	0x0
 1069 0057 08       		.uleb128 0x8
 1070 0058 04       		.uleb128 0x4
 1071 0059 01       		.byte	0x1
 1072 005a 03       		.uleb128 0x3
 1073 005b 0E       		.uleb128 0xe
 1074 005c 0B       		.uleb128 0xb
 1075 005d 0B       		.uleb128 0xb
 1076 005e 3A       		.uleb128 0x3a
 1077 005f 0B       		.uleb128 0xb
 1078 0060 3B       		.uleb128 0x3b
 1079 0061 05       		.uleb128 0x5
 1080 0062 01       		.uleb128 0x1
 1081 0063 13       		.uleb128 0x13
 1082 0064 00       		.byte	0x0
 1083 0065 00       		.byte	0x0
 1084 0066 09       		.uleb128 0x9
 1085 0067 2E       		.uleb128 0x2e
 1086 0068 01       		.byte	0x1
 1087 0069 3F       		.uleb128 0x3f
 1088 006a 0C       		.uleb128 0xc
 1089 006b 03       		.uleb128 0x3
 1090 006c 0E       		.uleb128 0xe
 1091 006d 3A       		.uleb128 0x3a
 1092 006e 0B       		.uleb128 0xb
 1093 006f 3B       		.uleb128 0x3b
 1094 0070 0B       		.uleb128 0xb
 1095 0071 27       		.uleb128 0x27
 1096 0072 0C       		.uleb128 0xc
 1097 0073 49       		.uleb128 0x49
GAS LISTING /tmp/cccESBBm.s 			page 22


 1098 0074 13       		.uleb128 0x13
 1099 0075 11       		.uleb128 0x11
 1100 0076 01       		.uleb128 0x1
 1101 0077 12       		.uleb128 0x12
 1102 0078 01       		.uleb128 0x1
 1103 0079 40       		.uleb128 0x40
 1104 007a 06       		.uleb128 0x6
 1105 007b 01       		.uleb128 0x1
 1106 007c 13       		.uleb128 0x13
 1107 007d 00       		.byte	0x0
 1108 007e 00       		.byte	0x0
 1109 007f 0A       		.uleb128 0xa
 1110 0080 13       		.uleb128 0x13
 1111 0081 00       		.byte	0x0
 1112 0082 03       		.uleb128 0x3
 1113 0083 0E       		.uleb128 0xe
 1114 0084 3C       		.uleb128 0x3c
 1115 0085 0C       		.uleb128 0xc
 1116 0086 00       		.byte	0x0
 1117 0087 00       		.byte	0x0
 1118 0088 0B       		.uleb128 0xb
 1119 0089 05       		.uleb128 0x5
 1120 008a 00       		.byte	0x0
 1121 008b 03       		.uleb128 0x3
 1122 008c 0E       		.uleb128 0xe
 1123 008d 3A       		.uleb128 0x3a
 1124 008e 0B       		.uleb128 0xb
 1125 008f 3B       		.uleb128 0x3b
 1126 0090 0B       		.uleb128 0xb
 1127 0091 49       		.uleb128 0x49
 1128 0092 13       		.uleb128 0x13
 1129 0093 02       		.uleb128 0x2
 1130 0094 0A       		.uleb128 0xa
 1131 0095 00       		.byte	0x0
 1132 0096 00       		.byte	0x0
 1133 0097 0C       		.uleb128 0xc
 1134 0098 34       		.uleb128 0x34
 1135 0099 00       		.byte	0x0
 1136 009a 03       		.uleb128 0x3
 1137 009b 08       		.uleb128 0x8
 1138 009c 3A       		.uleb128 0x3a
 1139 009d 0B       		.uleb128 0xb
 1140 009e 3B       		.uleb128 0x3b
 1141 009f 0B       		.uleb128 0xb
 1142 00a0 49       		.uleb128 0x49
 1143 00a1 13       		.uleb128 0x13
 1144 00a2 02       		.uleb128 0x2
 1145 00a3 0A       		.uleb128 0xa
 1146 00a4 00       		.byte	0x0
 1147 00a5 00       		.byte	0x0
 1148 00a6 0D       		.uleb128 0xd
 1149 00a7 34       		.uleb128 0x34
 1150 00a8 00       		.byte	0x0
 1151 00a9 03       		.uleb128 0x3
 1152 00aa 0E       		.uleb128 0xe
 1153 00ab 49       		.uleb128 0x49
 1154 00ac 13       		.uleb128 0x13
GAS LISTING /tmp/cccESBBm.s 			page 23


 1155 00ad 34       		.uleb128 0x34
 1156 00ae 0C       		.uleb128 0xc
 1157 00af 02       		.uleb128 0x2
 1158 00b0 0A       		.uleb128 0xa
 1159 00b1 00       		.byte	0x0
 1160 00b2 00       		.byte	0x0
 1161 00b3 0E       		.uleb128 0xe
 1162 00b4 0F       		.uleb128 0xf
 1163 00b5 00       		.byte	0x0
 1164 00b6 0B       		.uleb128 0xb
 1165 00b7 0B       		.uleb128 0xb
 1166 00b8 49       		.uleb128 0x49
 1167 00b9 13       		.uleb128 0x13
 1168 00ba 00       		.byte	0x0
 1169 00bb 00       		.byte	0x0
 1170 00bc 0F       		.uleb128 0xf
 1171 00bd 01       		.uleb128 0x1
 1172 00be 01       		.byte	0x1
 1173 00bf 49       		.uleb128 0x49
 1174 00c0 13       		.uleb128 0x13
 1175 00c1 01       		.uleb128 0x1
 1176 00c2 13       		.uleb128 0x13
 1177 00c3 00       		.byte	0x0
 1178 00c4 00       		.byte	0x0
 1179 00c5 10       		.uleb128 0x10
 1180 00c6 21       		.uleb128 0x21
 1181 00c7 00       		.byte	0x0
 1182 00c8 49       		.uleb128 0x49
 1183 00c9 13       		.uleb128 0x13
 1184 00ca 2F       		.uleb128 0x2f
 1185 00cb 0B       		.uleb128 0xb
 1186 00cc 00       		.byte	0x0
 1187 00cd 00       		.byte	0x0
 1188 00ce 11       		.uleb128 0x11
 1189 00cf 26       		.uleb128 0x26
 1190 00d0 00       		.byte	0x0
 1191 00d1 49       		.uleb128 0x49
 1192 00d2 13       		.uleb128 0x13
 1193 00d3 00       		.byte	0x0
 1194 00d4 00       		.byte	0x0
 1195 00d5 00       		.byte	0x0
 1196              		.section	.debug_pubnames,"",@progbits
 1197 0000 2F000000 		.long	0x2f
 1198 0004 0200     		.value	0x2
 1199 0006 00000000 		.long	.Ldebug_info0
 1200 000a 28070000 		.long	0x728
 1201 000e 92060000 		.long	0x692
 1202 0012 4B4E756C 		.string	"KNullBlockCipherVecAesNiMake"
 1202      6C426C6F 
 1202      636B4369 
 1202      70686572 
 1202      56656341 
 1203 002f 00000000 		.long	0x0
 1204              		.section	.debug_aranges,"",@progbits
 1205 0000 2C000000 		.long	0x2c
 1206 0004 0200     		.value	0x2
 1207 0006 00000000 		.long	.Ldebug_info0
GAS LISTING /tmp/cccESBBm.s 			page 24


 1208 000a 08       		.byte	0x8
 1209 000b 00       		.byte	0x0
 1210 000c 0000     		.value	0x0
 1211 000e 0000     		.value	0x0
 1212 0010 00000000 		.quad	.Ltext0
 1212      00000000 
 1213 0018 65000000 		.quad	.Letext0-.Ltext0
 1213      00000000 
 1214 0020 00000000 		.quad	0x0
 1214      00000000 
 1215 0028 00000000 		.quad	0x0
 1215      00000000 
 1216              		.section	.debug_str,"MS",@progbits,1
 1217              	.LASF184:
 1218 0000 72635461 		.string	"rcTag"
 1218      6700
 1219              	.LASF30:
 1220 0006 72635646 		.string	"rcVFS"
 1220      5300
 1221              	.LASF234:
 1222 000c 7263556E 		.string	"rcUnauthorized"
 1222      61757468 
 1222      6F72697A 
 1222      656400
 1223              	.LASF258:
 1224 001b 474E5520 		.string	"GNU C 4.4.2"
 1224      4320342E 
 1224      342E3200 
 1225              	.LASF218:
 1226 0027 7263496E 		.string	"rcInconsistent"
 1226      636F6E73 
 1226      69737465 
 1226      6E7400
 1227              	.LASF19:
 1228 0036 72634442 		.string	"rcDB"
 1228      00
 1229              	.LASF128:
 1230 003b 7263436F 		.string	"rcCopying"
 1230      7079696E 
 1230      6700
 1231              	.LASF131:
 1232 0045 7263506F 		.string	"rcPositioning"
 1232      73697469 
 1232      6F6E696E 
 1232      6700
 1233              	.LASF226:
 1234 0053 72634578 		.string	"rcExcessive"
 1234      63657373 
 1234      69766500 
 1235              	.LASF222:
 1236 005f 72634361 		.string	"rcCanceled"
 1236      6E63656C 
 1236      656400
 1237              	.LASF156:
 1238 006a 72634C61 		.string	"rcLastContext_v1_0"
 1238      7374436F 
 1238      6E746578 
GAS LISTING /tmp/cccESBBm.s 			page 25


 1238      745F7631 
 1238      5F3000
 1239              	.LASF167:
 1240 007d 72634C61 		.string	"rcLastContext_v1_1"
 1240      7374436F 
 1240      6E746578 
 1240      745F7631 
 1240      5F3100
 1241              	.LASF90:
 1242 0090 7263456E 		.string	"rcEncryptionKey"
 1242      63727970 
 1242      74696F6E 
 1242      4B657900 
 1243              	.LASF97:
 1244 00a0 5243436F 		.string	"RCContext"
 1244      6E746578 
 1244      7400
 1245              	.LASF92:
 1246 00aa 7263436D 		.string	"rcCmd"
 1246      6400
 1247              	.LASF242:
 1248 00b0 72634475 		.string	"rcDuplicate"
 1248      706C6963 
 1248      61746500 
 1249              	.LASF202:
 1250 00bc 72635265 		.string	"rcRefcount"
 1250      66636F75 
 1250      6E7400
 1251              	.LASF91:
 1252 00c7 7263526E 		.string	"rcRng"
 1252      6700
 1253              	.LASF34:
 1254 00cd 72634E6F 		.string	"rcNoTarg"
 1254      54617267 
 1254      00
 1255              	.LASF204:
 1256 00d6 52435374 		.string	"RCState"
 1256      61746500 
 1257              	.LASF5:
 1258 00de 756E7369 		.string	"unsigned int"
 1258      676E6564 
 1258      20696E74 
 1258      00
 1259              	.LASF89:
 1260 00eb 72635072 		.string	"rcProduction"
 1260      6F647563 
 1260      74696F6E 
 1260      00
 1261              	.LASF69:
 1262 00f8 72635061 		.string	"rcPagemap"
 1262      67656D61 
 1262      7000
 1263              	.LASF185:
 1264 0102 72635265 		.string	"rcResources"
 1264      736F7572 
 1264      63657300 
 1265              	.LASF50:
GAS LISTING /tmp/cccESBBm.s 			page 26


 1266 010e 7263586D 		.string	"rcXmlDoc"
 1266      6C446F63 
 1266      00
 1267              	.LASF37:
 1268 0117 7263546F 		.string	"rcTocEntry"
 1268      63456E74 
 1268      727900
 1269              	.LASF114:
 1270 0122 72635265 		.string	"rcRemoving"
 1270      6D6F7669 
 1270      6E6700
 1271              	.LASF192:
 1272 012d 72634D6F 		.string	"rcMode"
 1272      646500
 1273              	.LASF119:
 1274 0134 7263436C 		.string	"rcClosing"
 1274      6F73696E 
 1274      6700
 1275              	.LASF72:
 1276 013e 72635175 		.string	"rcQueue"
 1276      65756500 
 1277              	.LASF120:
 1278 0146 72635265 		.string	"rcResizing"
 1278      73697A69 
 1278      6E6700
 1279              	.LASF171:
 1280 0151 72635365 		.string	"rcSelf"
 1280      6C6600
 1281              	.LASF214:
 1282 0158 72634465 		.string	"rcDestroyed"
 1282      7374726F 
 1282      79656400 
 1283              	.LASF162:
 1284 0164 7263496E 		.string	"rcInitializing"
 1284      69746961 
 1284      6C697A69 
 1284      6E6700
 1285              	.LASF168:
 1286 0173 52434F62 		.string	"RCObject"
 1286      6A656374 
 1286      00
 1287              	.LASF146:
 1288 017c 72634174 		.string	"rcAttaching"
 1288      74616368 
 1288      696E6700 
 1289              	.LASF219:
 1290 0188 72634275 		.string	"rcBusy"
 1290      737900
 1291              	.LASF74:
 1292 018f 72635363 		.string	"rcSchema"
 1292      68656D61 
 1292      00
 1293              	.LASF138:
 1294 0198 72634875 		.string	"rcHuffmanCoding"
 1294      66666D61 
 1294      6E436F64 
 1294      696E6700 
GAS LISTING /tmp/cccESBBm.s 			page 27


 1295              	.LASF123:
 1296 01a8 7263436F 		.string	"rcCommitting"
 1296      6D6D6974 
 1296      74696E67 
 1296      00
 1297              	.LASF75:
 1298 01b5 72635365 		.string	"rcSemaphore"
 1298      6D617068 
 1298      6F726500 
 1299              	.LASF232:
 1300 01c1 72634465 		.string	"rcDetached"
 1300      74616368 
 1300      656400
 1301              	.LASF188:
 1302 01cc 7263526F 		.string	"rcRow"
 1302      7700
 1303              	.LASF239:
 1304 01d2 7263546F 		.string	"rcTooShort"
 1304      6F53686F 
 1304      727400
 1305              	.LASF15:
 1306 01dd 72634646 		.string	"rcFF"
 1306      00
 1307              	.LASF16:
 1308 01e2 72634653 		.string	"rcFS"
 1308      00
 1309              	.LASF250:
 1310 01e7 7263556E 		.string	"rcUndefined"
 1310      64656669 
 1310      6E656400 
 1311              	.LASF132:
 1312 01f3 72635061 		.string	"rcPacking"
 1312      636B696E 
 1312      6700
 1313              	.LASF33:
 1314 01fd 52435461 		.string	"RCTarget"
 1314      72676574 
 1314      00
 1315              	.LASF7:
 1316 0206 75696E74 		.string	"uint32_t"
 1316      33325F74 
 1316      00
 1317              	.LASF133:
 1318 020f 7263556E 		.string	"rcUnpacking"
 1318      7061636B 
 1318      696E6700 
 1319              	.LASF51:
 1320 021b 72634669 		.string	"rcFile"
 1320      6C6500
 1321              	.LASF39:
 1322 0222 72634174 		.string	"rcAttr"
 1322      747200
 1323              	.LASF199:
 1324 0229 7263456E 		.string	"rcEnvironment"
 1324      7669726F 
 1324      6E6D656E 
 1324      7400
GAS LISTING /tmp/cccESBBm.s 			page 28


 1325              	.LASF149:
 1326 0237 72634650 		.string	"rcFPCoding"
 1326      436F6469 
 1326      6E6700
 1327              	.LASF80:
 1328 0242 72635469 		.string	"rcTimeout"
 1328      6D656F75 
 1328      7400
 1329              	.LASF62:
 1330 024c 72634D44 		.string	"rcMD5SumFmt"
 1330      3553756D 
 1330      466D7400 
 1331              	.LASF137:
 1332 0258 72634578 		.string	"rcExecuting"
 1332      65637574 
 1332      696E6700 
 1333              	.LASF145:
 1334 0264 72635761 		.string	"rcWaiting"
 1334      6974696E 
 1334      6700
 1335              	.LASF176:
 1336 026e 7263466F 		.string	"rcFormat"
 1336      726D6174 
 1336      00
 1337              	.LASF181:
 1338 0277 7263436F 		.string	"rcConstraint"
 1338      6E737472 
 1338      61696E74 
 1338      00
 1339              	.LASF22:
 1340 0284 7263584D 		.string	"rcXML"
 1340      4C00
 1341              	.LASF45:
 1342 028a 7263436F 		.string	"rcCondition"
 1342      6E646974 
 1342      696F6E00 
 1343              	.LASF205:
 1344 0296 72634E6F 		.string	"rcNoErr"
 1344      45727200 
 1345              	.LASF42:
 1346 029e 72634275 		.string	"rcBuffer"
 1346      66666572 
 1346      00
 1347              	.LASF216:
 1348 02a7 7263436F 		.string	"rcCorrupt"
 1348      72727570 
 1348      7400
 1349              	.LASF142:
 1350 02b1 72635061 		.string	"rcParsing"
 1350      7273696E 
 1350      6700
 1351              	.LASF41:
 1352 02bb 7263426C 		.string	"rcBlob"
 1352      6F6200
 1353              	.LASF240:
 1354 02c2 7263546F 		.string	"rcTooLong"
 1354      6F4C6F6E 
GAS LISTING /tmp/cccESBBm.s 			page 29


 1354      6700
 1355              	.LASF24:
 1356 02cc 72634C61 		.string	"rcLastModule_v1_0"
 1356      73744D6F 
 1356      64756C65 
 1356      5F76315F 
 1356      3000
 1357              	.LASF31:
 1358 02de 72634C61 		.string	"rcLastModule_v1_1"
 1358      73744D6F 
 1358      64756C65 
 1358      5F76315F 
 1358      3100
 1359              	.LASF64:
 1360 02f0 72634D65 		.string	"rcMetadata"
 1360      74616461 
 1360      746100
 1361              	.LASF261:
 1362 02fb 4B4E756C 		.string	"KNullBlockCipherVecAesNiMake"
 1362      6C426C6F 
 1362      636B4369 
 1362      70686572 
 1362      56656341 
 1363              	.LASF236:
 1364 0318 72635772 		.string	"rcWriteonly"
 1364      6974656F 
 1364      6E6C7900 
 1365              	.LASF115:
 1366 0324 7263436C 		.string	"rcClearing"
 1366      65617269 
 1366      6E6700
 1367              	.LASF55:
 1368 032f 7263466F 		.string	"rcFormatter"
 1368      726D6174 
 1368      74657200 
 1369              	.LASF248:
 1370 033b 72634F75 		.string	"rcOutoforder"
 1370      746F666F 
 1370      72646572 
 1370      00
 1371              	.LASF70:
 1372 0348 72635061 		.string	"rcPath"
 1372      746800
 1373              	.LASF189:
 1374 034f 72634C69 		.string	"rcLibrary"
 1374      62726172 
 1374      7900
 1375              	.LASF141:
 1376 0359 7263546F 		.string	"rcTokenizing"
 1376      6B656E69 
 1376      7A696E67 
 1376      00
 1377              	.LASF198:
 1378 0366 72634572 		.string	"rcError"
 1378      726F7200 
 1379              	.LASF18:
 1380 036e 72635846 		.string	"rcXF"
GAS LISTING /tmp/cccESBBm.s 			page 30


 1380      00
 1381              	.LASF183:
 1382 0373 72634D65 		.string	"rcMessage"
 1382      73736167 
 1382      6500
 1383              	.LASF237:
 1384 037d 72634E6F 		.string	"rcNoPerm"
 1384      5065726D 
 1384      00
 1385              	.LASF54:
 1386 0386 72634675 		.string	"rcFunction"
 1386      6E637469 
 1386      6F6E00
 1387              	.LASF208:
 1388 0391 7263556E 		.string	"rcUnsupported"
 1388      73757070 
 1388      6F727465 
 1388      6400
 1389              	.LASF43:
 1390 039f 72634368 		.string	"rcChar"
 1390      617200
 1391              	.LASF174:
 1392 03a6 72634D65 		.string	"rcMemory"
 1392      6D6F7279 
 1392      00
 1393              	.LASF194:
 1394 03af 72634372 		.string	"rcCrc"
 1394      6300
 1395              	.LASF241:
 1396 03b5 7263546F 		.string	"rcTooBig"
 1396      6F426967 
 1396      00
 1397              	.LASF179:
 1398 03be 72634964 		.string	"rcId"
 1398      00
 1399              	.LASF82:
 1400 03c3 72635472 		.string	"rcTree"
 1400      656500
 1401              	.LASF253:
 1402 03ca 72634E6F 		.string	"rcNotAvailable"
 1402      74417661 
 1402      696C6162 
 1402      6C6500
 1403              	.LASF93:
 1404 03d9 72634461 		.string	"rcData"
 1404      746100
 1405              	.LASF257:
 1406 03e0 5F5F6675 		.string	"__func__"
 1406      6E635F5F 
 1406      00
 1407              	.LASF254:
 1408 03e9 72635772 		.string	"rcWrongType"
 1408      6F6E6754 
 1408      79706500 
 1409              	.LASF56:
 1410 03f5 72634675 		.string	"rcFunctParam"
 1410      6E637450 
GAS LISTING /tmp/cccESBBm.s 			page 31


 1410      6172616D 
 1410      00
 1411              	.LASF63:
 1412 0402 72634D65 		.string	"rcMemMap"
 1412      6D4D6170 
 1412      00
 1413              	.LASF9:
 1414 040b 63686172 		.string	"char"
 1414      00
 1415              	.LASF211:
 1416 0410 7263416D 		.string	"rcAmbiguous"
 1416      62696775 
 1416      6F757300 
 1417              	.LASF244:
 1418 041c 72634967 		.string	"rcIgnored"
 1418      6E6F7265 
 1418      6400
 1419              	.LASF109:
 1420 0426 72635265 		.string	"rcRenaming"
 1420      6E616D69 
 1420      6E6700
 1421              	.LASF121:
 1422 0431 72635265 		.string	"rcReading"
 1422      6164696E 
 1422      6700
 1423              	.LASF58:
 1424 043b 7263496E 		.string	"rcIndex"
 1424      64657800 
 1425              	.LASF104:
 1426 0443 72634C69 		.string	"rcListing"
 1426      7374696E 
 1426      6700
 1427              	.LASF178:
 1428 044d 7263496E 		.string	"rcInterface"
 1428      74657266 
 1428      61636500 
 1429              	.LASF107:
 1430 0459 72634C6F 		.string	"rcLocking"
 1430      636B696E 
 1430      6700
 1431              	.LASF60:
 1432 0463 72634C6F 		.string	"rcLock"
 1432      636B00
 1433              	.LASF108:
 1434 046a 7263556E 		.string	"rcUnlocking"
 1434      6C6F636B 
 1434      696E6700 
 1435              	.LASF85:
 1436 0476 72635665 		.string	"rcVector"
 1436      63746F72 
 1436      00
 1437              	.LASF122:
 1438 047f 72635772 		.string	"rcWriting"
 1438      6974696E 
 1438      6700
 1439              	.LASF53:
 1440 0489 72634669 		.string	"rcFileFormat"
GAS LISTING /tmp/cccESBBm.s 			page 32


 1440      6C65466F 
 1440      726D6174 
 1440      00
 1441              	.LASF21:
 1442 0496 72634170 		.string	"rcApp"
 1442      7000
 1443              	.LASF125:
 1444 049c 72635265 		.string	"rcResetting"
 1444      73657474 
 1444      696E6700 
 1445              	.LASF71:
 1446 04a8 72635072 		.string	"rcProcess"
 1446      6F636573 
 1446      7300
 1447              	.LASF106:
 1448 04b2 72635265 		.string	"rcResolving"
 1448      736F6C76 
 1448      696E6700 
 1449              	.LASF12:
 1450 04be 72635465 		.string	"rcText"
 1450      787400
 1451              	.LASF66:
 1452 04c5 72634E61 		.string	"rcNamelist"
 1452      6D656C69 
 1452      737400
 1453              	.LASF229:
 1454 04d0 72634E6F 		.string	"rcNotFound"
 1454      74466F75 
 1454      6E6400
 1455              	.LASF139:
 1456 04db 72635265 		.string	"rcReindexing"
 1456      696E6465 
 1456      78696E67 
 1456      00
 1457              	.LASF87:
 1458 04e8 72634578 		.string	"rcExpression"
 1458      70726573 
 1458      73696F6E 
 1458      00
 1459              	.LASF235:
 1460 04f5 72635265 		.string	"rcReadonly"
 1460      61646F6E 
 1460      6C7900
 1461              	.LASF95:
 1462 0500 72635572 		.string	"rcUri"
 1462      6900
 1463              	.LASF100:
 1464 0506 7263436F 		.string	"rcConstructing"
 1464      6E737472 
 1464      75637469 
 1464      6E6700
 1465              	.LASF173:
 1466 0515 72634F66 		.string	"rcOffset"
 1466      66736574 
 1466      00
 1467              	.LASF233:
 1468 051e 72634465 		.string	"rcDeadlock"
GAS LISTING /tmp/cccESBBm.s 			page 33


 1468      61646C6F 
 1468      636B00
 1469              	.LASF47:
 1470 0529 72634461 		.string	"rcDatabase"
 1470      74616261 
 1470      736500
 1471              	.LASF127:
 1472 0534 72634672 		.string	"rcFreezing"
 1472      65657A69 
 1472      6E6700
 1473              	.LASF217:
 1474 053f 7263496E 		.string	"rcIncorrect"
 1474      636F7272 
 1474      65637400 
 1475              	.LASF206:
 1476 054b 7263446F 		.string	"rcDone"
 1476      6E6500
 1477              	.LASF157:
 1478 0552 7263466C 		.string	"rcFlushing"
 1478      75736869 
 1478      6E6700
 1479              	.LASF159:
 1480 055d 7263456E 		.string	"rcEncrypting"
 1480      63727970 
 1480      74696E67 
 1480      00
 1481              	.LASF23:
 1482 056a 72635352 		.string	"rcSRA"
 1482      4100
 1483              	.LASF251:
 1484 0570 7263556E 		.string	"rcUnequal"
 1484      65717561 
 1484      6C00
 1485              	.LASF10:
 1486 057a 72634578 		.string	"rcExe"
 1486      6500
 1487              	.LASF38:
 1488 0580 72634172 		.string	"rcArgv"
 1488      677600
 1489              	.LASF147:
 1490 0587 72634465 		.string	"rcDetaching"
 1490      74616368 
 1490      696E6700 
 1491              	.LASF99:
 1492 0593 72634361 		.string	"rcCasting"
 1492      7374696E 
 1492      6700
 1493              	.LASF110:
 1494 059d 7263416C 		.string	"rcAliasing"
 1494      69617369 
 1494      6E6700
 1495              	.LASF49:
 1496 05a8 7263446F 		.string	"rcDoc"
 1496      6300
 1497              	.LASF98:
 1498 05ae 7263416C 		.string	"rcAllocating"
 1498      6C6F6361 
GAS LISTING /tmp/cccESBBm.s 			page 34


 1498      74696E67 
 1498      00
 1499              	.LASF212:
 1500 05bb 72634E75 		.string	"rcNull"
 1500      6C6C00
 1501              	.LASF180:
 1502 05c2 72635261 		.string	"rcRange"
 1502      6E676500 
 1503              	.LASF35:
 1504 05ca 72634172 		.string	"rcArc"
 1504      6300
 1505              	.LASF252:
 1506 05d0 72634661 		.string	"rcFailed"
 1506      696C6564 
 1506      00
 1507              	.LASF260:
 1508 05d9 2F686F6D 		.string	"/home/rodarmer/sra_sdk-2.3.1/linux/gcc/dyn/x86_64/dbg/obj/libs/krypto"
 1508      652F726F 
 1508      6461726D 
 1508      65722F73 
 1508      72615F73 
 1509              	.LASF152:
 1510 061f 72635365 		.string	"rcSearching"
 1510      61726368 
 1510      696E6700 
 1511              	.LASF225:
 1512 062b 7263496E 		.string	"rcInsufficient"
 1512      73756666 
 1512      69636965 
 1512      6E7400
 1513              	.LASF165:
 1514 063a 72635072 		.string	"rcProcessing"
 1514      6F636573 
 1514      73696E67 
 1514      00
 1515              	.LASF144:
 1516 0647 72635369 		.string	"rcSignaling"
 1516      676E616C 
 1516      696E6700 
 1517              	.LASF135:
 1518 0653 72634465 		.string	"rcDecoding"
 1518      636F6469 
 1518      6E6700
 1519              	.LASF76:
 1520 065e 72635374 		.string	"rcStorage"
 1520      6F726167 
 1520      6500
 1521              	.LASF213:
 1522 0668 72634261 		.string	"rcBadVersion"
 1522      64566572 
 1522      73696F6E 
 1522      00
 1523              	.LASF210:
 1524 0675 7263556E 		.string	"rcUnrecognized"
 1524      7265636F 
 1524      676E697A 
 1524      656400
GAS LISTING /tmp/cccESBBm.s 			page 35


 1525              	.LASF161:
 1526 0684 7263436F 		.string	"rcComparing"
 1526      6D706172 
 1526      696E6700 
 1527              	.LASF65:
 1528 0690 72634D67 		.string	"rcMgr"
 1528      7200
 1529              	.LASF154:
 1530 0696 72634576 		.string	"rcEvaluating"
 1530      616C7561 
 1530      74696E67 
 1530      00
 1531              	.LASF163:
 1532 06a3 72635265 		.string	"rcRetrieving"
 1532      74726965 
 1532      76696E67 
 1532      00
 1533              	.LASF116:
 1534 06b0 72635570 		.string	"rcUpdating"
 1534      64617469 
 1534      6E6700
 1535              	.LASF83:
 1536 06bb 72635472 		.string	"rcTrie"
 1536      696500
 1537              	.LASF201:
 1538 06c2 72635369 		.string	"rcSize"
 1538      7A6500
 1539              	.LASF243:
 1540 06c9 72634F75 		.string	"rcOutOfKDirectory"
 1540      744F664B 
 1540      44697265 
 1540      63746F72 
 1540      7900
 1541              	.LASF40:
 1542 06db 72634261 		.string	"rcBarrier"
 1542      72726965 
 1542      7200
 1543              	.LASF77:
 1544 06e5 72635374 		.string	"rcString"
 1544      72696E67 
 1544      00
 1545              	.LASF193:
 1546 06ee 7263456E 		.string	"rcEncryption"
 1546      63727970 
 1546      74696F6E 
 1546      00
 1547              	.LASF25:
 1548 06fb 72634B46 		.string	"rcKFG"
 1548      4700
 1549              	.LASF46:
 1550 0701 72634375 		.string	"rcCursor"
 1550      72736F72 
 1550      00
 1551              	.LASF101:
 1552 070a 72634465 		.string	"rcDestroying"
 1552      7374726F 
 1552      79696E67 
GAS LISTING /tmp/cccESBBm.s 			page 36


 1552      00
 1553              	.LASF27:
 1554 0717 72634B72 		.string	"rcKrypto"
 1554      7970746F 
 1554      00
 1555              	.LASF196:
 1556 0720 72635365 		.string	"rcSeed"
 1556      656400
 1557              	.LASF221:
 1558 0727 7263496E 		.string	"rcInterrupted"
 1558      74657272 
 1558      75707465 
 1558      6400
 1559              	.LASF153:
 1560 0735 72634C6F 		.string	"rcLoading"
 1560      6164696E 
 1560      6700
 1561              	.LASF136:
 1562 073f 72635661 		.string	"rcValidating"
 1562      6C696461 
 1562      74696E67 
 1562      00
 1563              	.LASF230:
 1564 074c 72634C6F 		.string	"rcLocked"
 1564      636B6564 
 1564      00
 1565              	.LASF59:
 1566 0755 72634974 		.string	"rcIterator"
 1566      65726174 
 1566      6F7200
 1567              	.LASF67:
 1568 0760 72634E6F 		.string	"rcNode"
 1568      646500
 1569              	.LASF1:
 1570 0767 73686F72 		.string	"short int"
 1570      7420696E 
 1570      7400
 1571              	.LASF102:
 1572 0771 72635265 		.string	"rcReleasing"
 1572      6C656173 
 1572      696E6700 
 1573              	.LASF177:
 1574 077d 72635472 		.string	"rcTransfer"
 1574      616E7366 
 1574      657200
 1575              	.LASF2:
 1576 0788 6C6F6E67 		.string	"long int"
 1576      20696E74 
 1576      00
 1577              	.LASF262:
 1578 0791 4B426C6F 		.string	"KBlockCipher"
 1578      636B4369 
 1578      70686572 
 1578      00
 1579              	.LASF164:
 1580 079e 72635365 		.string	"rcSending"
 1580      6E64696E 
GAS LISTING /tmp/cccESBBm.s 			page 37


 1580      6700
 1581              	.LASF215:
 1582 07a8 7263496E 		.string	"rcInvalid"
 1582      76616C69 
 1582      6400
 1583              	.LASF249:
 1584 07b2 72634E6F 		.string	"rcNotOpen"
 1584      744F7065 
 1584      6E00
 1585              	.LASF103:
 1586 07bc 72634163 		.string	"rcAccessing"
 1586      63657373 
 1586      696E6700 
 1587              	.LASF29:
 1588 07c8 72634E53 		.string	"rcNS"
 1588      00
 1589              	.LASF112:
 1590 07cd 72635072 		.string	"rcProjecting"
 1590      6F6A6563 
 1590      74696E67 
 1590      00
 1591              	.LASF175:
 1592 07da 72634E61 		.string	"rcName"
 1592      6D6500
 1593              	.LASF238:
 1594 07e1 7263496E 		.string	"rcInPlaceNotAllowed"
 1594      506C6163 
 1594      654E6F74 
 1594      416C6C6F 
 1594      77656400 
 1595              	.LASF247:
 1596 07f5 72634F70 		.string	"rcOpen"
 1596      656E00
 1597              	.LASF227:
 1598 07fc 72635669 		.string	"rcViolated"
 1598      6F6C6174 
 1598      656400
 1599              	.LASF169:
 1600 0807 72634E6F 		.string	"rcNoObj"
 1600      4F626A00 
 1601              	.LASF200:
 1602 080f 72635369 		.string	"rcSignalSet"
 1602      676E616C 
 1602      53657400 
 1603              	.LASF197:
 1604 081b 7263436F 		.string	"rcConnection"
 1604      6E6E6563 
 1604      74696F6E 
 1604      00
 1605              	.LASF195:
 1606 0828 72634368 		.string	"rcChecksum"
 1606      65636B73 
 1606      756D00
 1607              	.LASF78:
 1608 0833 72635461 		.string	"rcTable"
 1608      626C6500 
 1609              	.LASF11:
GAS LISTING /tmp/cccESBBm.s 			page 38


 1610 083b 72635275 		.string	"rcRuntime"
 1610      6E74696D 
 1610      6500
 1611              	.LASF148:
 1612 0845 72634C6F 		.string	"rcLogging"
 1612      6767696E 
 1612      6700
 1613              	.LASF160:
 1614 084f 72634465 		.string	"rcDecrypting"
 1614      63727970 
 1614      74696E67 
 1614      00
 1615              	.LASF61:
 1616 085c 72634C6F 		.string	"rcLog"
 1616      6700
 1617              	.LASF68:
 1618 0862 72634E75 		.string	"rcNumeral"
 1618      6D657261 
 1618      6C00
 1619              	.LASF172:
 1620 086c 72635061 		.string	"rcParam"
 1620      72616D00 
 1621              	.LASF32:
 1622 0874 52434D6F 		.string	"RCModule"
 1622      64756C65 
 1622      00
 1623              	.LASF158:
 1624 087d 72634170 		.string	"rcAppending"
 1624      70656E64 
 1624      696E6700 
 1625              	.LASF57:
 1626 0889 72634865 		.string	"rcHeader"
 1626      61646572 
 1626      00
 1627              	.LASF6:
 1628 0892 6C6F6E67 		.string	"long unsigned int"
 1628      20756E73 
 1628      69676E65 
 1628      6420696E 
 1628      7400
 1629              	.LASF245:
 1630 08a4 72634F75 		.string	"rcOutofrange"
 1630      746F6672 
 1630      616E6765 
 1630      00
 1631              	.LASF170:
 1632 08b1 72634C69 		.string	"rcLink"
 1632      6E6B00
 1633              	.LASF52:
 1634 08b8 72634669 		.string	"rcFileDesc"
 1634      6C654465 
 1634      736300
 1635              	.LASF263:
 1636 08c3 6E65775F 		.string	"new_obj"
 1636      6F626A00 
 1637              	.LASF209:
 1638 08cb 7263556E 		.string	"rcUnexpected"
GAS LISTING /tmp/cccESBBm.s 			page 39


 1638      65787065 
 1638      63746564 
 1638      00
 1639              	.LASF207:
 1640 08d8 7263556E 		.string	"rcUnknown"
 1640      6B6E6F77 
 1640      6E00
 1641              	.LASF155:
 1642 08e2 7263496E 		.string	"rcInflating"
 1642      666C6174 
 1642      696E6700 
 1643              	.LASF118:
 1644 08ee 72634F70 		.string	"rcOpening"
 1644      656E696E 
 1644      6700
 1645              	.LASF17:
 1646 08f8 72635053 		.string	"rcPS"
 1646      00
 1647              	.LASF3:
 1648 08fd 756E7369 		.string	"unsigned char"
 1648      676E6564 
 1648      20636861 
 1648      7200
 1649              	.LASF126:
 1650 090b 72635065 		.string	"rcPersisting"
 1650      72736973 
 1650      74696E67 
 1650      00
 1651              	.LASF150:
 1652 0918 72634D75 		.string	"rcMultiplexing"
 1652      6C746970 
 1652      6C657869 
 1652      6E6700
 1653              	.LASF220:
 1654 0927 7263496E 		.string	"rcIncomplete"
 1654      636F6D70 
 1654      6C657465 
 1654      00
 1655              	.LASF246:
 1656 0934 72634C61 		.string	"rcLastState_v1_0"
 1656      73745374 
 1656      6174655F 
 1656      76315F30 
 1656      00
 1657              	.LASF255:
 1658 0945 72634C61 		.string	"rcLastState_v1_1"
 1658      73745374 
 1658      6174655F 
 1658      76315F31 
 1658      00
 1659              	.LASF143:
 1660 0956 7263436F 		.string	"rcConverting"
 1660      6E766572 
 1660      74696E67 
 1660      00
 1661              	.LASF117:
 1662 0963 72634372 		.string	"rcCreating"
GAS LISTING /tmp/cccESBBm.s 			page 40


 1662      65617469 
 1662      6E6700
 1663              	.LASF191:
 1664 096e 72634974 		.string	"rcItem"
 1664      656D00
 1665              	.LASF111:
 1666 0975 72635365 		.string	"rcSelecting"
 1666      6C656374 
 1666      696E6700 
 1667              	.LASF8:
 1668 0981 72635F74 		.string	"rc_t"
 1668      00
 1669              	.LASF73:
 1670 0986 72635257 		.string	"rcRWLock"
 1670      4C6F636B 
 1670      00
 1671              	.LASF190:
 1672 098f 72634C61 		.string	"rcLastObject_v1_0"
 1672      73744F62 
 1672      6A656374 
 1672      5F76315F 
 1672      3000
 1673              	.LASF203:
 1674 09a1 72634C61 		.string	"rcLastObject_v1_1"
 1674      73744F62 
 1674      6A656374 
 1674      5F76315F 
 1674      3100
 1675              	.LASF187:
 1676 09b3 72634172 		.string	"rcArcHardLink"
 1676      63486172 
 1676      644C696E 
 1676      6B00
 1677              	.LASF113:
 1678 09c1 7263496E 		.string	"rcInserting"
 1678      73657274 
 1678      696E6700 
 1679              	.LASF166:
 1680 09cd 72634964 		.string	"rcIdentifying"
 1680      656E7469 
 1680      6679696E 
 1680      6700
 1681              	.LASF124:
 1682 09db 72635265 		.string	"rcReverting"
 1682      76657274 
 1682      696E6700 
 1683              	.LASF20:
 1684 09e7 72635644 		.string	"rcVDB"
 1684      4200
 1685              	.LASF105:
 1686 09ed 72635669 		.string	"rcVisiting"
 1686      73697469 
 1686      6E6700
 1687              	.LASF88:
 1688 09f8 72634C61 		.string	"rcLastTarget_v1_0"
 1688      73745461 
 1688      72676574 
GAS LISTING /tmp/cccESBBm.s 			page 41


 1688      5F76315F 
 1688      3000
 1689              	.LASF96:
 1690 0a0a 72634C61 		.string	"rcLastTarget_v1_1"
 1690      73745461 
 1690      72676574 
 1690      5F76315F 
 1690      3100
 1691              	.LASF84:
 1692 0a1c 72635479 		.string	"rcType"
 1692      706500
 1693              	.LASF231:
 1694 0a23 7263556E 		.string	"rcUnlocked"
 1694      6C6F636B 
 1694      656400
 1695              	.LASF151:
 1696 0a2e 7263436C 		.string	"rcClassifying"
 1696      61737369 
 1696      6679696E 
 1696      6700
 1697              	.LASF228:
 1698 0a3c 72634578 		.string	"rcExists"
 1698      69737473 
 1698      00
 1699              	.LASF130:
 1700 0a45 7263466F 		.string	"rcFormatting"
 1700      726D6174 
 1700      74696E67 
 1700      00
 1701              	.LASF79:
 1702 0a52 72635468 		.string	"rcThread"
 1702      72656164 
 1702      00
 1703              	.LASF0:
 1704 0a5b 7369676E 		.string	"signed char"
 1704      65642063 
 1704      68617200 
 1705              	.LASF4:
 1706 0a67 73686F72 		.string	"short unsigned int"
 1706      7420756E 
 1706      7369676E 
 1706      65642069 
 1706      6E7400
 1707              	.LASF182:
 1708 0a7a 72634279 		.string	"rcByteOrder"
 1708      74654F72 
 1708      64657200 
 1709              	.LASF36:
 1710 0a86 7263546F 		.string	"rcToc"
 1710      6300
 1711              	.LASF44:
 1712 0a8c 7263436F 		.string	"rcColumn"
 1712      6C756D6E 
 1712      00
 1713              	.LASF256:
 1714 0a95 5F5F5052 		.string	"__PRETTY_FUNCTION__"
 1714      45545459 
GAS LISTING /tmp/cccESBBm.s 			page 42


 1714      5F46554E 
 1714      4354494F 
 1714      4E5F5F00 
 1715              	.LASF94:
 1716 0aa9 72635175 		.string	"rcQuery"
 1716      65727900 
 1717              	.LASF140:
 1718 0ab1 72635265 		.string	"rcRegistering"
 1718      67697374 
 1718      6572696E 
 1718      6700
 1719              	.LASF86:
 1720 0abf 72634479 		.string	"rcDylib"
 1720      6C696200 
 1721              	.LASF81:
 1722 0ac7 7263546F 		.string	"rcToken"
 1722      6B656E00 
 1723              	.LASF134:
 1724 0acf 7263456E 		.string	"rcEncoding"
 1724      636F6469 
 1724      6E6700
 1725              	.LASF224:
 1726 0ada 72634578 		.string	"rcExhausted"
 1726      68617573 
 1726      74656400 
 1727              	.LASF186:
 1728 0ae6 72634469 		.string	"rcDirEntry"
 1728      72456E74 
 1728      727900
 1729              	.LASF26:
 1730 0af1 7263416C 		.string	"rcAlign"
 1730      69676E00 
 1731              	.LASF28:
 1732 0af9 72635244 		.string	"rcRDBMS"
 1732      424D5300 
 1733              	.LASF14:
 1734 0b01 72634353 		.string	"rcCS"
 1734      00
 1735              	.LASF129:
 1736 0b06 7263436F 		.string	"rcConcatenating"
 1736      6E636174 
 1736      656E6174 
 1736      696E6700 
 1737              	.LASF48:
 1738 0b16 72634469 		.string	"rcDirectory"
 1738      72656374 
 1738      6F727900 
 1739              	.LASF223:
 1740 0b22 7263456D 		.string	"rcEmpty"
 1740      70747900 
 1741              	.LASF13:
 1742 0b2a 7263436F 		.string	"rcCont"
 1742      6E7400
 1743              	.LASF259:
 1744 0b31 2F686F6D 		.string	"/home/rodarmer/sra_sdk-2.3.1/libs/krypto/no-null-ncbi.c"
 1744      652F726F 
 1744      6461726D 
GAS LISTING /tmp/cccESBBm.s 			page 43


 1744      65722F73 
 1744      72615F73 
 1745              		.ident	"GCC: (GNU) 4.4.2"
 1746              		.section	.note.GNU-stack,"",@progbits
GAS LISTING /tmp/cccESBBm.s 			page 44


DEFINED SYMBOLS
                            *ABS*:0000000000000000 no-null-ncbi.c
     /tmp/cccESBBm.s:17     .text:0000000000000000 KNullBlockCipherVecAesNiMake
     /tmp/cccESBBm.s:66     .rodata:0000000000000040 __func__.2445
     /tmp/cccESBBm.s:71     .rodata:0000000000000060 __PRETTY_FUNCTION__.2444

UNDEFINED SYMBOLS
_GLOBAL_OFFSET_TABLE_
SetRCFileFuncLine
