GAS LISTING /tmp/cc3yHVm6.s 			page 1


   1              		.file	"null-ncbi.c"
   2              		.section	.debug_abbrev,"",@progbits
   3              	.Ldebug_abbrev0:
   4              		.section	.debug_info,"",@progbits
   5              	.Ldebug_info0:
   6              		.section	.debug_line,"",@progbits
   7              	.Ldebug_line0:
   8 0000 60010000 		.text
   8      02001301 
   8      00000101 
   8      FB0E0D00 
   8      01010101 
   9              	.Ltext0:
  10              		.section	.rodata
  11              		.type	KNullBlockCipherVecaes_ncbi_name, @object
  12              		.size	KNullBlockCipherVecaes_ncbi_name, 10
  13              	KNullBlockCipherVecaes_ncbi_name:
  14 0000 4145535F 		.string	"AES_CLASS"
  14      434C4153 
  14      5300
  15              		.text
  16              		.type	KNullBlockCipherVecDestroy, @function
  17              	KNullBlockCipherVecDestroy:
  18              	.LFB513:
  19              		.file 1 "/home/rodarmer/sra_sdk-2.3.1/libs/krypto/null-ncbi.c"
   1:/home/rodarmer/sra_sdk-2.3.1/libs/krypto/null-ncbi.c **** /*===========================================================================
   2:/home/rodarmer/sra_sdk-2.3.1/libs/krypto/null-ncbi.c ****  *
   3:/home/rodarmer/sra_sdk-2.3.1/libs/krypto/null-ncbi.c ****  *                            PUBLIC DOMAIN NOTICE
   4:/home/rodarmer/sra_sdk-2.3.1/libs/krypto/null-ncbi.c ****  *               National Center for Biotechnology Information
   5:/home/rodarmer/sra_sdk-2.3.1/libs/krypto/null-ncbi.c ****  *
   6:/home/rodarmer/sra_sdk-2.3.1/libs/krypto/null-ncbi.c ****  *  This software/database is a "United States Government Work" under the
   7:/home/rodarmer/sra_sdk-2.3.1/libs/krypto/null-ncbi.c ****  *  terms of the United States Copyright Act.  It was written as part of
   8:/home/rodarmer/sra_sdk-2.3.1/libs/krypto/null-ncbi.c ****  *  the author's official duties as a United States Government employee and
   9:/home/rodarmer/sra_sdk-2.3.1/libs/krypto/null-ncbi.c ****  *  thus cannot be copyrighted.  This software/database is freely available
  10:/home/rodarmer/sra_sdk-2.3.1/libs/krypto/null-ncbi.c ****  *  to the public for use. The National Library of Medicine and the U.S.
  11:/home/rodarmer/sra_sdk-2.3.1/libs/krypto/null-ncbi.c ****  *  Government have not placed any restriction on its use or reproduction.
  12:/home/rodarmer/sra_sdk-2.3.1/libs/krypto/null-ncbi.c ****  *
  13:/home/rodarmer/sra_sdk-2.3.1/libs/krypto/null-ncbi.c ****  *  Although all reasonable efforts have been taken to ensure the accuracy
  14:/home/rodarmer/sra_sdk-2.3.1/libs/krypto/null-ncbi.c ****  *  and reliability of the software and data, the NLM and the U.S.
  15:/home/rodarmer/sra_sdk-2.3.1/libs/krypto/null-ncbi.c ****  *  Government do not and cannot warrant the performance or results that
  16:/home/rodarmer/sra_sdk-2.3.1/libs/krypto/null-ncbi.c ****  *  may be obtained by using this software or data. The NLM and the U.S.
  17:/home/rodarmer/sra_sdk-2.3.1/libs/krypto/null-ncbi.c ****  *  Government disclaim all warranties, express or implied, including
  18:/home/rodarmer/sra_sdk-2.3.1/libs/krypto/null-ncbi.c ****  *  warranties of performance, merchantability or fitness for any particular
  19:/home/rodarmer/sra_sdk-2.3.1/libs/krypto/null-ncbi.c ****  *  purpose.
  20:/home/rodarmer/sra_sdk-2.3.1/libs/krypto/null-ncbi.c ****  *
  21:/home/rodarmer/sra_sdk-2.3.1/libs/krypto/null-ncbi.c ****  *  Please cite the author in any work or product based on this material.
  22:/home/rodarmer/sra_sdk-2.3.1/libs/krypto/null-ncbi.c ****  *
  23:/home/rodarmer/sra_sdk-2.3.1/libs/krypto/null-ncbi.c ****  * ===========================================================================
  24:/home/rodarmer/sra_sdk-2.3.1/libs/krypto/null-ncbi.c ****  */
  25:/home/rodarmer/sra_sdk-2.3.1/libs/krypto/null-ncbi.c **** 
  26:/home/rodarmer/sra_sdk-2.3.1/libs/krypto/null-ncbi.c **** #include <krypto/extern.h>
  27:/home/rodarmer/sra_sdk-2.3.1/libs/krypto/null-ncbi.c **** 
  28:/home/rodarmer/sra_sdk-2.3.1/libs/krypto/null-ncbi.c **** #include "ncbi-priv.h"
  29:/home/rodarmer/sra_sdk-2.3.1/libs/krypto/null-ncbi.c **** #include "cipher-priv.h"
  30:/home/rodarmer/sra_sdk-2.3.1/libs/krypto/null-ncbi.c **** #include "blockcipher-priv.h"
  31:/home/rodarmer/sra_sdk-2.3.1/libs/krypto/null-ncbi.c **** 
  32:/home/rodarmer/sra_sdk-2.3.1/libs/krypto/null-ncbi.c **** #include <klib/rc.h>
GAS LISTING /tmp/cc3yHVm6.s 			page 2


  33:/home/rodarmer/sra_sdk-2.3.1/libs/krypto/null-ncbi.c **** 
  34:/home/rodarmer/sra_sdk-2.3.1/libs/krypto/null-ncbi.c **** 
  35:/home/rodarmer/sra_sdk-2.3.1/libs/krypto/null-ncbi.c **** #include <byteswap.h>
  36:/home/rodarmer/sra_sdk-2.3.1/libs/krypto/null-ncbi.c **** #include <string.h>
  37:/home/rodarmer/sra_sdk-2.3.1/libs/krypto/null-ncbi.c **** #include <stdint.h>
  38:/home/rodarmer/sra_sdk-2.3.1/libs/krypto/null-ncbi.c **** #include <stdlib.h>
  39:/home/rodarmer/sra_sdk-2.3.1/libs/krypto/null-ncbi.c **** #include <assert.h>
  40:/home/rodarmer/sra_sdk-2.3.1/libs/krypto/null-ncbi.c **** #include <sysalloc.h>
  41:/home/rodarmer/sra_sdk-2.3.1/libs/krypto/null-ncbi.c **** 
  42:/home/rodarmer/sra_sdk-2.3.1/libs/krypto/null-ncbi.c **** #include "blockcipher-impl.h"
  43:/home/rodarmer/sra_sdk-2.3.1/libs/krypto/null-ncbi.c **** 
  44:/home/rodarmer/sra_sdk-2.3.1/libs/krypto/null-ncbi.c **** #if USE_VEC
  45:/home/rodarmer/sra_sdk-2.3.1/libs/krypto/null-ncbi.c **** #include <cpuid.h>
  46:/home/rodarmer/sra_sdk-2.3.1/libs/krypto/null-ncbi.c **** #endif
  47:/home/rodarmer/sra_sdk-2.3.1/libs/krypto/null-ncbi.c **** #if USE_VECREG
  48:/home/rodarmer/sra_sdk-2.3.1/libs/krypto/null-ncbi.c **** #include <v128.h>
  49:/home/rodarmer/sra_sdk-2.3.1/libs/krypto/null-ncbi.c **** #endif
  50:/home/rodarmer/sra_sdk-2.3.1/libs/krypto/null-ncbi.c **** 
  51:/home/rodarmer/sra_sdk-2.3.1/libs/krypto/null-ncbi.c **** 
  52:/home/rodarmer/sra_sdk-2.3.1/libs/krypto/null-ncbi.c **** #if USE_VEC
  53:/home/rodarmer/sra_sdk-2.3.1/libs/krypto/null-ncbi.c **** #define BLOCKCIPHER_IMPL BLOCKCIPHER_VEC_IMPL
  54:/home/rodarmer/sra_sdk-2.3.1/libs/krypto/null-ncbi.c **** #else
  55:/home/rodarmer/sra_sdk-2.3.1/libs/krypto/null-ncbi.c **** #define BLOCKCIPHER_IMPL BLOCKCIPHER_BYTE_IMPL
  56:/home/rodarmer/sra_sdk-2.3.1/libs/krypto/null-ncbi.c **** #endif
  57:/home/rodarmer/sra_sdk-2.3.1/libs/krypto/null-ncbi.c **** 
  58:/home/rodarmer/sra_sdk-2.3.1/libs/krypto/null-ncbi.c **** typedef struct NULL_CLASS NULL_CLASS;
  59:/home/rodarmer/sra_sdk-2.3.1/libs/krypto/null-ncbi.c **** 
  60:/home/rodarmer/sra_sdk-2.3.1/libs/krypto/null-ncbi.c **** static const char NULLBCMEMBER(aes_ncbi_name) [] = CLASS_STRING(AES_CLASS);
  61:/home/rodarmer/sra_sdk-2.3.1/libs/krypto/null-ncbi.c **** 
  62:/home/rodarmer/sra_sdk-2.3.1/libs/krypto/null-ncbi.c **** 
  63:/home/rodarmer/sra_sdk-2.3.1/libs/krypto/null-ncbi.c **** /* ----------------------------------------------------------------------
  64:/home/rodarmer/sra_sdk-2.3.1/libs/krypto/null-ncbi.c ****  * Destroy
  65:/home/rodarmer/sra_sdk-2.3.1/libs/krypto/null-ncbi.c ****  *   How large is the stored key for this cipher?  Not the user key used
  66:/home/rodarmer/sra_sdk-2.3.1/libs/krypto/null-ncbi.c ****  *   to create this key (key schedule)
  67:/home/rodarmer/sra_sdk-2.3.1/libs/krypto/null-ncbi.c ****  *
  68:/home/rodarmer/sra_sdk-2.3.1/libs/krypto/null-ncbi.c ****  *   This is needed by KCipher to know how large the KCipher objecr is at
  69:/home/rodarmer/sra_sdk-2.3.1/libs/krypto/null-ncbi.c ****  *   allocation and to know how much of a buffer each decryption/encryption is
  70:/home/rodarmer/sra_sdk-2.3.1/libs/krypto/null-ncbi.c ****  */
  71:/home/rodarmer/sra_sdk-2.3.1/libs/krypto/null-ncbi.c **** static
  72:/home/rodarmer/sra_sdk-2.3.1/libs/krypto/null-ncbi.c **** void NULLBCMEMBER(Destroy)    (const BLOCKCIPHER_IMPL * self)
  73:/home/rodarmer/sra_sdk-2.3.1/libs/krypto/null-ncbi.c **** {
  20              		.loc 1 73 0
  21              		.cfi_startproc
  22 0000 55       		pushq	%rbp
  23              	.LCFI0:
  24              		.cfi_def_cfa_offset 16
  25 0001 4889E5   		movq	%rsp, %rbp
  26              		.cfi_offset 6, -16
  27              	.LCFI1:
  28              		.cfi_def_cfa_register 6
  29 0004 48897DF8 		movq	%rdi, -8(%rbp)
  74:/home/rodarmer/sra_sdk-2.3.1/libs/krypto/null-ncbi.c ****     /* we use a constant object so do nothing */
  75:/home/rodarmer/sra_sdk-2.3.1/libs/krypto/null-ncbi.c **** }
  30              		.loc 1 75 0
  31 0008 C9       		leave
  32 0009 C3       		ret
  33              		.cfi_endproc
GAS LISTING /tmp/cc3yHVm6.s 			page 3


  34              	.LFE513:
  35              		.size	KNullBlockCipherVecDestroy, .-KNullBlockCipherVecDestroy
  36              		.type	KNullBlockCipherVecBlockSize, @function
  37              	KNullBlockCipherVecBlockSize:
  38              	.LFB514:
  76:/home/rodarmer/sra_sdk-2.3.1/libs/krypto/null-ncbi.c **** 
  77:/home/rodarmer/sra_sdk-2.3.1/libs/krypto/null-ncbi.c **** 
  78:/home/rodarmer/sra_sdk-2.3.1/libs/krypto/null-ncbi.c **** /* ----------------------------------------------------------------------
  79:/home/rodarmer/sra_sdk-2.3.1/libs/krypto/null-ncbi.c ****  * BlockSize
  80:/home/rodarmer/sra_sdk-2.3.1/libs/krypto/null-ncbi.c ****  */
  81:/home/rodarmer/sra_sdk-2.3.1/libs/krypto/null-ncbi.c **** static
  82:/home/rodarmer/sra_sdk-2.3.1/libs/krypto/null-ncbi.c **** uint32_t NULLBCMEMBER(BlockSize) ()
  83:/home/rodarmer/sra_sdk-2.3.1/libs/krypto/null-ncbi.c **** {
  39              		.loc 1 83 0
  40              		.cfi_startproc
  41 000a 55       		pushq	%rbp
  42              	.LCFI2:
  43              		.cfi_def_cfa_offset 16
  44 000b 4889E5   		movq	%rsp, %rbp
  45              		.cfi_offset 6, -16
  46              	.LCFI3:
  47              		.cfi_def_cfa_register 6
  84:/home/rodarmer/sra_sdk-2.3.1/libs/krypto/null-ncbi.c ****     return 16;
  48              		.loc 1 84 0
  49 000e B8100000 		movl	$16, %eax
  49      00
  85:/home/rodarmer/sra_sdk-2.3.1/libs/krypto/null-ncbi.c **** }
  50              		.loc 1 85 0
  51 0013 C9       		leave
  52 0014 C3       		ret
  53              		.cfi_endproc
  54              	.LFE514:
  55              		.size	KNullBlockCipherVecBlockSize, .-KNullBlockCipherVecBlockSize
  56              		.type	KNullBlockCipherVecKeySize, @function
  57              	KNullBlockCipherVecKeySize:
  58              	.LFB515:
  86:/home/rodarmer/sra_sdk-2.3.1/libs/krypto/null-ncbi.c **** 
  87:/home/rodarmer/sra_sdk-2.3.1/libs/krypto/null-ncbi.c **** 
  88:/home/rodarmer/sra_sdk-2.3.1/libs/krypto/null-ncbi.c **** /* ----------------------------------------------------------------------
  89:/home/rodarmer/sra_sdk-2.3.1/libs/krypto/null-ncbi.c ****  * KeySize
  90:/home/rodarmer/sra_sdk-2.3.1/libs/krypto/null-ncbi.c ****  *   How large is the stored key for this cipher?  Not the user key used
  91:/home/rodarmer/sra_sdk-2.3.1/libs/krypto/null-ncbi.c ****  *   to create this key (key schedule)
  92:/home/rodarmer/sra_sdk-2.3.1/libs/krypto/null-ncbi.c ****  *
  93:/home/rodarmer/sra_sdk-2.3.1/libs/krypto/null-ncbi.c ****  *   This is needed by KCipher to know how large the KCipher objecr is at
  94:/home/rodarmer/sra_sdk-2.3.1/libs/krypto/null-ncbi.c ****  *   allocation and to know how much of a buffer each decryption/encryption is
  95:/home/rodarmer/sra_sdk-2.3.1/libs/krypto/null-ncbi.c ****  */
  96:/home/rodarmer/sra_sdk-2.3.1/libs/krypto/null-ncbi.c **** static uint32_t NULLBCMEMBER(KeySize) ()
  97:/home/rodarmer/sra_sdk-2.3.1/libs/krypto/null-ncbi.c **** {
  59              		.loc 1 97 0
  60              		.cfi_startproc
  61 0015 55       		pushq	%rbp
  62              	.LCFI4:
  63              		.cfi_def_cfa_offset 16
  64 0016 4889E5   		movq	%rsp, %rbp
  65              		.cfi_offset 6, -16
  66              	.LCFI5:
  67              		.cfi_def_cfa_register 6
GAS LISTING /tmp/cc3yHVm6.s 			page 4


  98:/home/rodarmer/sra_sdk-2.3.1/libs/krypto/null-ncbi.c ****     return 0;
  68              		.loc 1 98 0
  69 0019 B8000000 		movl	$0, %eax
  69      00
  99:/home/rodarmer/sra_sdk-2.3.1/libs/krypto/null-ncbi.c **** }
  70              		.loc 1 99 0
  71 001e C9       		leave
  72 001f C3       		ret
  73              		.cfi_endproc
  74              	.LFE515:
  75              		.size	KNullBlockCipherVecKeySize, .-KNullBlockCipherVecKeySize
  76              		.type	KNullBlockCipherVecSetEncryptKey, @function
  77              	KNullBlockCipherVecSetEncryptKey:
  78              	.LFB516:
 100:/home/rodarmer/sra_sdk-2.3.1/libs/krypto/null-ncbi.c **** 
 101:/home/rodarmer/sra_sdk-2.3.1/libs/krypto/null-ncbi.c **** 
 102:/home/rodarmer/sra_sdk-2.3.1/libs/krypto/null-ncbi.c **** /* ----------------------------------------------------------------------
 103:/home/rodarmer/sra_sdk-2.3.1/libs/krypto/null-ncbi.c ****  * SetEncryptKey
 104:/home/rodarmer/sra_sdk-2.3.1/libs/krypto/null-ncbi.c ****  *   The KCipher calls this to have the block cipher build an encryption
 105:/home/rodarmer/sra_sdk-2.3.1/libs/krypto/null-ncbi.c ****  *   key in the KCipher object
 106:/home/rodarmer/sra_sdk-2.3.1/libs/krypto/null-ncbi.c ****  *
 107:/home/rodarmer/sra_sdk-2.3.1/libs/krypto/null-ncbi.c ****  */
 108:/home/rodarmer/sra_sdk-2.3.1/libs/krypto/null-ncbi.c **** static rc_t NULLBCMEMBER(SetEncryptKey) (void * encrypt_key, const char * user_key,
 109:/home/rodarmer/sra_sdk-2.3.1/libs/krypto/null-ncbi.c ****                                          uint32_t user_key_size)
 110:/home/rodarmer/sra_sdk-2.3.1/libs/krypto/null-ncbi.c **** {
  79              		.loc 1 110 0
  80              		.cfi_startproc
  81 0020 55       		pushq	%rbp
  82              	.LCFI6:
  83              		.cfi_def_cfa_offset 16
  84 0021 4889E5   		movq	%rsp, %rbp
  85              		.cfi_offset 6, -16
  86              	.LCFI7:
  87              		.cfi_def_cfa_register 6
  88 0024 48897DF8 		movq	%rdi, -8(%rbp)
  89 0028 488975F0 		movq	%rsi, -16(%rbp)
  90 002c 8955EC   		movl	%edx, -20(%rbp)
 111:/home/rodarmer/sra_sdk-2.3.1/libs/krypto/null-ncbi.c ****     return 0;
  91              		.loc 1 111 0
  92 002f B8000000 		movl	$0, %eax
  92      00
 112:/home/rodarmer/sra_sdk-2.3.1/libs/krypto/null-ncbi.c **** }
  93              		.loc 1 112 0
  94 0034 C9       		leave
  95 0035 C3       		ret
  96              		.cfi_endproc
  97              	.LFE516:
  98              		.size	KNullBlockCipherVecSetEncryptKey, .-KNullBlockCipherVecSetEncryptKey
  99              		.type	KNullBlockCipherVecSetDecryptKey, @function
 100              	KNullBlockCipherVecSetDecryptKey:
 101              	.LFB517:
 113:/home/rodarmer/sra_sdk-2.3.1/libs/krypto/null-ncbi.c **** 
 114:/home/rodarmer/sra_sdk-2.3.1/libs/krypto/null-ncbi.c **** 
 115:/home/rodarmer/sra_sdk-2.3.1/libs/krypto/null-ncbi.c **** /* ----------------------------------------------------------------------
 116:/home/rodarmer/sra_sdk-2.3.1/libs/krypto/null-ncbi.c ****  * SetDecryptKey
 117:/home/rodarmer/sra_sdk-2.3.1/libs/krypto/null-ncbi.c ****  *   The KCipher calls this to have the block cipher build an decryption
 118:/home/rodarmer/sra_sdk-2.3.1/libs/krypto/null-ncbi.c ****  *   key in the KCipher object
GAS LISTING /tmp/cc3yHVm6.s 			page 5


 119:/home/rodarmer/sra_sdk-2.3.1/libs/krypto/null-ncbi.c ****  *
 120:/home/rodarmer/sra_sdk-2.3.1/libs/krypto/null-ncbi.c ****  */
 121:/home/rodarmer/sra_sdk-2.3.1/libs/krypto/null-ncbi.c **** static rc_t NULLBCMEMBER(SetDecryptKey) (void * decrypt_key,
 122:/home/rodarmer/sra_sdk-2.3.1/libs/krypto/null-ncbi.c ****                                      const char * user_key,
 123:/home/rodarmer/sra_sdk-2.3.1/libs/krypto/null-ncbi.c ****                                      uint32_t user_key_size)
 124:/home/rodarmer/sra_sdk-2.3.1/libs/krypto/null-ncbi.c **** {
 102              		.loc 1 124 0
 103              		.cfi_startproc
 104 0036 55       		pushq	%rbp
 105              	.LCFI8:
 106              		.cfi_def_cfa_offset 16
 107 0037 4889E5   		movq	%rsp, %rbp
 108              		.cfi_offset 6, -16
 109              	.LCFI9:
 110              		.cfi_def_cfa_register 6
 111 003a 48897DF8 		movq	%rdi, -8(%rbp)
 112 003e 488975F0 		movq	%rsi, -16(%rbp)
 113 0042 8955EC   		movl	%edx, -20(%rbp)
 125:/home/rodarmer/sra_sdk-2.3.1/libs/krypto/null-ncbi.c ****     return 0;
 114              		.loc 1 125 0
 115 0045 B8000000 		movl	$0, %eax
 115      00
 126:/home/rodarmer/sra_sdk-2.3.1/libs/krypto/null-ncbi.c **** }
 116              		.loc 1 126 0
 117 004a C9       		leave
 118 004b C3       		ret
 119              		.cfi_endproc
 120              	.LFE517:
 121              		.size	KNullBlockCipherVecSetDecryptKey, .-KNullBlockCipherVecSetDecryptKey
 122              		.type	KNullBlockCipherVecEncrypt, @function
 123              	KNullBlockCipherVecEncrypt:
 124              	.LFB518:
 127:/home/rodarmer/sra_sdk-2.3.1/libs/krypto/null-ncbi.c **** 
 128:/home/rodarmer/sra_sdk-2.3.1/libs/krypto/null-ncbi.c **** 
 129:/home/rodarmer/sra_sdk-2.3.1/libs/krypto/null-ncbi.c **** /* ----------------------------------------------------------------------
 130:/home/rodarmer/sra_sdk-2.3.1/libs/krypto/null-ncbi.c ****  * Encrypt
 131:/home/rodarmer/sra_sdk-2.3.1/libs/krypto/null-ncbi.c ****  *
 132:/home/rodarmer/sra_sdk-2.3.1/libs/krypto/null-ncbi.c ****  *   Perform an encryption of a single block.  Chained modes and stream
 133:/home/rodarmer/sra_sdk-2.3.1/libs/krypto/null-ncbi.c ****  *   cipher modes will call this multiple times.
 134:/home/rodarmer/sra_sdk-2.3.1/libs/krypto/null-ncbi.c ****  *
 135:/home/rodarmer/sra_sdk-2.3.1/libs/krypto/null-ncbi.c ****  */
 136:/home/rodarmer/sra_sdk-2.3.1/libs/krypto/null-ncbi.c **** #if USE_VEC
 137:/home/rodarmer/sra_sdk-2.3.1/libs/krypto/null-ncbi.c **** static CipherVec NULLBCMEMBER(Encrypt) (CipherVec state,
 138:/home/rodarmer/sra_sdk-2.3.1/libs/krypto/null-ncbi.c ****                                         const void * encrypt_key)
 139:/home/rodarmer/sra_sdk-2.3.1/libs/krypto/null-ncbi.c **** {
 125              		.loc 1 139 0
 126              		.cfi_startproc
 127 004c 55       		pushq	%rbp
 128              	.LCFI10:
 129              		.cfi_def_cfa_offset 16
 130 004d 4889E5   		movq	%rsp, %rbp
 131              		.cfi_offset 6, -16
 132              	.LCFI11:
 133              		.cfi_def_cfa_register 6
 134 0050 660F7F45 		movdqa	%xmm0, -16(%rbp)
 134      F0
 135 0055 48897DE8 		movq	%rdi, -24(%rbp)
GAS LISTING /tmp/cc3yHVm6.s 			page 6


 140:/home/rodarmer/sra_sdk-2.3.1/libs/krypto/null-ncbi.c ****     return state;
 136              		.loc 1 140 0
 137 0059 660F6F45 		movdqa	-16(%rbp), %xmm0
 137      F0
 141:/home/rodarmer/sra_sdk-2.3.1/libs/krypto/null-ncbi.c **** }
 138              		.loc 1 141 0
 139 005e C9       		leave
 140 005f C3       		ret
 141              		.cfi_endproc
 142              	.LFE518:
 143              		.size	KNullBlockCipherVecEncrypt, .-KNullBlockCipherVecEncrypt
 144              		.type	KNullBlockCipherVecDecrypt, @function
 145              	KNullBlockCipherVecDecrypt:
 146              	.LFB519:
 142:/home/rodarmer/sra_sdk-2.3.1/libs/krypto/null-ncbi.c **** #else
 143:/home/rodarmer/sra_sdk-2.3.1/libs/krypto/null-ncbi.c **** static void NULLBCMEMBER(Encrypt) (const CipherBlock in,
 144:/home/rodarmer/sra_sdk-2.3.1/libs/krypto/null-ncbi.c ****                                    CipherBlock * out,
 145:/home/rodarmer/sra_sdk-2.3.1/libs/krypto/null-ncbi.c ****                                    const void * encrypt_key)
 146:/home/rodarmer/sra_sdk-2.3.1/libs/krypto/null-ncbi.c **** {
 147:/home/rodarmer/sra_sdk-2.3.1/libs/krypto/null-ncbi.c **** }
 148:/home/rodarmer/sra_sdk-2.3.1/libs/krypto/null-ncbi.c **** #endif
 149:/home/rodarmer/sra_sdk-2.3.1/libs/krypto/null-ncbi.c **** 
 150:/home/rodarmer/sra_sdk-2.3.1/libs/krypto/null-ncbi.c **** 
 151:/home/rodarmer/sra_sdk-2.3.1/libs/krypto/null-ncbi.c **** /* ----------------------------------------------------------------------
 152:/home/rodarmer/sra_sdk-2.3.1/libs/krypto/null-ncbi.c ****  * Decrypt
 153:/home/rodarmer/sra_sdk-2.3.1/libs/krypto/null-ncbi.c ****  *
 154:/home/rodarmer/sra_sdk-2.3.1/libs/krypto/null-ncbi.c ****  *   Perform a decryption of a single block.  Chained modes and stream
 155:/home/rodarmer/sra_sdk-2.3.1/libs/krypto/null-ncbi.c ****  *   cipher modes will call this multiple times.
 156:/home/rodarmer/sra_sdk-2.3.1/libs/krypto/null-ncbi.c ****  */
 157:/home/rodarmer/sra_sdk-2.3.1/libs/krypto/null-ncbi.c **** #if USE_VEC
 158:/home/rodarmer/sra_sdk-2.3.1/libs/krypto/null-ncbi.c **** static CipherVec NULLBCMEMBER(Decrypt) (CipherVec state,
 159:/home/rodarmer/sra_sdk-2.3.1/libs/krypto/null-ncbi.c ****                                         const void * decrypt_key)
 160:/home/rodarmer/sra_sdk-2.3.1/libs/krypto/null-ncbi.c **** {
 147              		.loc 1 160 0
 148              		.cfi_startproc
 149 0060 55       		pushq	%rbp
 150              	.LCFI12:
 151              		.cfi_def_cfa_offset 16
 152 0061 4889E5   		movq	%rsp, %rbp
 153              		.cfi_offset 6, -16
 154              	.LCFI13:
 155              		.cfi_def_cfa_register 6
 156 0064 660F7F45 		movdqa	%xmm0, -16(%rbp)
 156      F0
 157 0069 48897DE8 		movq	%rdi, -24(%rbp)
 161:/home/rodarmer/sra_sdk-2.3.1/libs/krypto/null-ncbi.c ****     return state;
 158              		.loc 1 161 0
 159 006d 660F6F45 		movdqa	-16(%rbp), %xmm0
 159      F0
 162:/home/rodarmer/sra_sdk-2.3.1/libs/krypto/null-ncbi.c **** }
 160              		.loc 1 162 0
 161 0072 C9       		leave
 162 0073 C3       		ret
 163              		.cfi_endproc
 164              	.LFE519:
 165              		.size	KNullBlockCipherVecDecrypt, .-KNullBlockCipherVecDecrypt
 166              		.type	KNullBlockCipherVecProcessorSupport, @function
GAS LISTING /tmp/cc3yHVm6.s 			page 7


 167              	KNullBlockCipherVecProcessorSupport:
 168              	.LFB520:
 163:/home/rodarmer/sra_sdk-2.3.1/libs/krypto/null-ncbi.c **** #else
 164:/home/rodarmer/sra_sdk-2.3.1/libs/krypto/null-ncbi.c **** static void NULLBCMEMBER(Decrypt) (const CipherBlock in,
 165:/home/rodarmer/sra_sdk-2.3.1/libs/krypto/null-ncbi.c ****                                    CipherBlock * out,
 166:/home/rodarmer/sra_sdk-2.3.1/libs/krypto/null-ncbi.c ****                                    const void * encrypt_key)
 167:/home/rodarmer/sra_sdk-2.3.1/libs/krypto/null-ncbi.c **** {
 168:/home/rodarmer/sra_sdk-2.3.1/libs/krypto/null-ncbi.c **** }
 169:/home/rodarmer/sra_sdk-2.3.1/libs/krypto/null-ncbi.c **** #endif
 170:/home/rodarmer/sra_sdk-2.3.1/libs/krypto/null-ncbi.c **** 
 171:/home/rodarmer/sra_sdk-2.3.1/libs/krypto/null-ncbi.c **** 
 172:/home/rodarmer/sra_sdk-2.3.1/libs/krypto/null-ncbi.c **** /* ----------------------------------------------------------------------
 173:/home/rodarmer/sra_sdk-2.3.1/libs/krypto/null-ncbi.c ****  * MakeProcessorSupport
 174:/home/rodarmer/sra_sdk-2.3.1/libs/krypto/null-ncbi.c ****  *
 175:/home/rodarmer/sra_sdk-2.3.1/libs/krypto/null-ncbi.c ****  * Run-time check for support of this particular AES implementation by
 176:/home/rodarmer/sra_sdk-2.3.1/libs/krypto/null-ncbi.c ****  * checking the flags given via the cpuid instruction.
 177:/home/rodarmer/sra_sdk-2.3.1/libs/krypto/null-ncbi.c ****  */
 178:/home/rodarmer/sra_sdk-2.3.1/libs/krypto/null-ncbi.c **** static __inline__
 179:/home/rodarmer/sra_sdk-2.3.1/libs/krypto/null-ncbi.c **** bool NULLBCMEMBER(ProcessorSupport) ()
 180:/home/rodarmer/sra_sdk-2.3.1/libs/krypto/null-ncbi.c **** {
 169              		.loc 1 180 0
 170              		.cfi_startproc
 171 0074 55       		pushq	%rbp
 172              	.LCFI14:
 173              		.cfi_def_cfa_offset 16
 174 0075 4889E5   		movq	%rsp, %rbp
 175              		.cfi_offset 6, -16
 176              	.LCFI15:
 177              		.cfi_def_cfa_register 6
 181:/home/rodarmer/sra_sdk-2.3.1/libs/krypto/null-ncbi.c ****     return true;
 178              		.loc 1 181 0
 179 0078 B8010000 		movl	$1, %eax
 179      00
 182:/home/rodarmer/sra_sdk-2.3.1/libs/krypto/null-ncbi.c **** }
 180              		.loc 1 182 0
 181 007d C9       		leave
 182 007e C3       		ret
 183              		.cfi_endproc
 184              	.LFE520:
 185              		.size	KNullBlockCipherVecProcessorSupport, .-KNullBlockCipherVecProcessorSupport
 186              		.section	.data.rel.ro.local,"aw",@progbits
 187              		.align 32
 188              		.type	KNullBlockCipherVec_vt_, @object
 189              		.size	KNullBlockCipherVec_vt_, 64
 190              	KNullBlockCipherVec_vt_:
 191 0000 01000000 		.long	1
 192 0004 01000000 		.long	1
 193 0008 00000000 		.quad	KNullBlockCipherVecDestroy
 193      00000000 
 194 0010 00000000 		.quad	KNullBlockCipherVecBlockSize
 194      00000000 
 195 0018 00000000 		.quad	KNullBlockCipherVecKeySize
 195      00000000 
 196 0020 00000000 		.quad	KNullBlockCipherVecSetEncryptKey
 196      00000000 
 197 0028 00000000 		.quad	KNullBlockCipherVecSetDecryptKey
 197      00000000 
GAS LISTING /tmp/cc3yHVm6.s 			page 8


 198 0030 00000000 		.quad	KNullBlockCipherVecEncrypt
 198      00000000 
 199 0038 00000000 		.quad	KNullBlockCipherVecDecrypt
 199      00000000 
 200              		.section	.rodata
 201 000a 00000000 		.align 8
 201      0000
 202              	.LC0:
 203 0010 2F686F6D 		.string	"/home/rodarmer/sra_sdk-2.3.1/libs/krypto/null-ncbi.c"
 203      652F726F 
 203      6461726D 
 203      65722F73 
 203      72615F73 
 204              		.text
 205              	.globl KNullBlockCipherVecMake
 206              		.type	KNullBlockCipherVecMake, @function
 207              	KNullBlockCipherVecMake:
 208              	.LFB521:
 183:/home/rodarmer/sra_sdk-2.3.1/libs/krypto/null-ncbi.c **** 
 184:/home/rodarmer/sra_sdk-2.3.1/libs/krypto/null-ncbi.c **** 
 185:/home/rodarmer/sra_sdk-2.3.1/libs/krypto/null-ncbi.c **** /* ----------------------------------------------------------------------
 186:/home/rodarmer/sra_sdk-2.3.1/libs/krypto/null-ncbi.c ****  * Init
 187:/home/rodarmer/sra_sdk-2.3.1/libs/krypto/null-ncbi.c ****  *
 188:/home/rodarmer/sra_sdk-2.3.1/libs/krypto/null-ncbi.c ****  *   Initialize the fields of this object.  The derived class will call this
 189:/home/rodarmer/sra_sdk-2.3.1/libs/krypto/null-ncbi.c ****  *   during it's initialization.
 190:/home/rodarmer/sra_sdk-2.3.1/libs/krypto/null-ncbi.c ****  *
 191:/home/rodarmer/sra_sdk-2.3.1/libs/krypto/null-ncbi.c ****  * self      object to initialze
 192:/home/rodarmer/sra_sdk-2.3.1/libs/krypto/null-ncbi.c ****  * vt        the virtual table of the derived class
 193:/home/rodarmer/sra_sdk-2.3.1/libs/krypto/null-ncbi.c ****  * mgr       the cipher manager that is the construction factory block cipher
 194:/home/rodarmer/sra_sdk-2.3.1/libs/krypto/null-ncbi.c ****  *           objects hold references to the manager while the manager merely
 195:/home/rodarmer/sra_sdk-2.3.1/libs/krypto/null-ncbi.c ****  *           points at the block ciphers when all block ciphers are destroyed
 196:/home/rodarmer/sra_sdk-2.3.1/libs/krypto/null-ncbi.c ****  *           the manager loses its references and it too can be destroyed if not
 197:/home/rodarmer/sra_sdk-2.3.1/libs/krypto/null-ncbi.c ****  *           held elsewhere
 198:/home/rodarmer/sra_sdk-2.3.1/libs/krypto/null-ncbi.c ****  * name      ASCIZ c-string the name of this class
 199:/home/rodarmer/sra_sdk-2.3.1/libs/krypto/null-ncbi.c ****  */
 200:/home/rodarmer/sra_sdk-2.3.1/libs/krypto/null-ncbi.c **** static const
 201:/home/rodarmer/sra_sdk-2.3.1/libs/krypto/null-ncbi.c **** #if USE_VEC
 202:/home/rodarmer/sra_sdk-2.3.1/libs/krypto/null-ncbi.c **** KBlockCipherVec_vt_v1
 203:/home/rodarmer/sra_sdk-2.3.1/libs/krypto/null-ncbi.c **** #else
 204:/home/rodarmer/sra_sdk-2.3.1/libs/krypto/null-ncbi.c **** KBlockCipherByte_vt_v1
 205:/home/rodarmer/sra_sdk-2.3.1/libs/krypto/null-ncbi.c **** #endif
 206:/home/rodarmer/sra_sdk-2.3.1/libs/krypto/null-ncbi.c **** NULLBCMEMBER(_vt_) = {
 207:/home/rodarmer/sra_sdk-2.3.1/libs/krypto/null-ncbi.c ****     { 1, 1 },
 208:/home/rodarmer/sra_sdk-2.3.1/libs/krypto/null-ncbi.c **** 
 209:/home/rodarmer/sra_sdk-2.3.1/libs/krypto/null-ncbi.c ****     NULLBCMEMBER(Destroy),
 210:/home/rodarmer/sra_sdk-2.3.1/libs/krypto/null-ncbi.c ****     NULLBCMEMBER(BlockSize),
 211:/home/rodarmer/sra_sdk-2.3.1/libs/krypto/null-ncbi.c ****     NULLBCMEMBER(KeySize),
 212:/home/rodarmer/sra_sdk-2.3.1/libs/krypto/null-ncbi.c ****     NULLBCMEMBER(SetEncryptKey),
 213:/home/rodarmer/sra_sdk-2.3.1/libs/krypto/null-ncbi.c ****     NULLBCMEMBER(SetDecryptKey),
 214:/home/rodarmer/sra_sdk-2.3.1/libs/krypto/null-ncbi.c ****     NULLBCMEMBER(Encrypt),
 215:/home/rodarmer/sra_sdk-2.3.1/libs/krypto/null-ncbi.c ****     NULLBCMEMBER(Decrypt)
 216:/home/rodarmer/sra_sdk-2.3.1/libs/krypto/null-ncbi.c **** };
 217:/home/rodarmer/sra_sdk-2.3.1/libs/krypto/null-ncbi.c **** 
 218:/home/rodarmer/sra_sdk-2.3.1/libs/krypto/null-ncbi.c **** 
 219:/home/rodarmer/sra_sdk-2.3.1/libs/krypto/null-ncbi.c **** /* ----------------------------------------------------------------------
 220:/home/rodarmer/sra_sdk-2.3.1/libs/krypto/null-ncbi.c ****  * Make
 221:/home/rodarmer/sra_sdk-2.3.1/libs/krypto/null-ncbi.c ****  *
GAS LISTING /tmp/cc3yHVm6.s 			page 9


 222:/home/rodarmer/sra_sdk-2.3.1/libs/krypto/null-ncbi.c ****  * Create a new Null Block Cipher object.
 223:/home/rodarmer/sra_sdk-2.3.1/libs/krypto/null-ncbi.c ****  * The processor is checked to see if this particular version is supported on
 224:/home/rodarmer/sra_sdk-2.3.1/libs/krypto/null-ncbi.c ****  * this particular CPU.
 225:/home/rodarmer/sra_sdk-2.3.1/libs/krypto/null-ncbi.c ****  */
 226:/home/rodarmer/sra_sdk-2.3.1/libs/krypto/null-ncbi.c **** rc_t NULLBCMEMBER(Make) (KBlockCipher ** new_obj)
 227:/home/rodarmer/sra_sdk-2.3.1/libs/krypto/null-ncbi.c **** {
 209              		.loc 1 227 0
 210              		.cfi_startproc
 211 007f 55       		pushq	%rbp
 212              	.LCFI16:
 213              		.cfi_def_cfa_offset 16
 214 0080 4889E5   		movq	%rsp, %rbp
 215              		.cfi_offset 6, -16
 216              	.LCFI17:
 217              		.cfi_def_cfa_register 6
 218 0083 4883EC20 		subq	$32, %rsp
 219 0087 48897DE8 		movq	%rdi, -24(%rbp)
 228:/home/rodarmer/sra_sdk-2.3.1/libs/krypto/null-ncbi.c ****     rc_t rc;
 229:/home/rodarmer/sra_sdk-2.3.1/libs/krypto/null-ncbi.c **** 
 230:/home/rodarmer/sra_sdk-2.3.1/libs/krypto/null-ncbi.c ****     /* Check parameter first */
 231:/home/rodarmer/sra_sdk-2.3.1/libs/krypto/null-ncbi.c ****     if (new_obj == NULL)
 220              		.loc 1 231 0
 221 008b 48837DE8 		cmpq	$0, -24(%rbp)
 221      00
 222 0090 7522     		jne	.L18
 232:/home/rodarmer/sra_sdk-2.3.1/libs/krypto/null-ncbi.c ****         rc = RC (rcKrypto, rcBlockCipher, rcConstructing, rcSelf, rcNull);
 223              		.loc 1 232 0
 224 0092 B9E80000 		movl	$232, %ecx
 224      00
 225 0097 488D1500 		leaq	__func__.6558(%rip), %rdx
 225      000000
 226 009e 488D3500 		leaq	.LC0(%rip), %rsi
 226      000000
 227 00a5 BF878F00 		movl	$-2030006393, %edi
 227      87
 228 00aa E8000000 		call	SetRCFileFuncLine@PLT
 228      00
 229 00af 8945FC   		movl	%eax, -4(%rbp)
 230 00b2 EB53     		jmp	.L19
 231              	.L18:
 233:/home/rodarmer/sra_sdk-2.3.1/libs/krypto/null-ncbi.c **** 
 234:/home/rodarmer/sra_sdk-2.3.1/libs/krypto/null-ncbi.c ****     else
 235:/home/rodarmer/sra_sdk-2.3.1/libs/krypto/null-ncbi.c ****     {
 236:/home/rodarmer/sra_sdk-2.3.1/libs/krypto/null-ncbi.c ****         *new_obj = NULL;
 232              		.loc 1 236 0
 233 00b4 488B45E8 		movq	-24(%rbp), %rax
 234 00b8 48C70000 		movq	$0, (%rax)
 234      000000
 237:/home/rodarmer/sra_sdk-2.3.1/libs/krypto/null-ncbi.c **** 
 238:/home/rodarmer/sra_sdk-2.3.1/libs/krypto/null-ncbi.c ****         /* check for processor support of this flavor */
 239:/home/rodarmer/sra_sdk-2.3.1/libs/krypto/null-ncbi.c ****         if ( ! NULLBCMEMBER(ProcessorSupport)())
 235              		.loc 1 239 0
 236 00bf B8000000 		movl	$0, %eax
 236      00
 237 00c4 E8ABFFFF 		call	KNullBlockCipherVecProcessorSupport
 237      FF
 238 00c9 83F001   		xorl	$1, %eax
GAS LISTING /tmp/cc3yHVm6.s 			page 10


 239 00cc 84C0     		testb	%al, %al
 240 00ce 7422     		je	.L20
 240:/home/rodarmer/sra_sdk-2.3.1/libs/krypto/null-ncbi.c ****             rc = RC (rcKrypto, rcBlockCipher, rcConstructing, rcFunction, rcUnsupported);
 241              		.loc 1 240 0
 242 00d0 B9F00000 		movl	$240, %ecx
 242      00
 243 00d5 488D1500 		leaq	__func__.6558(%rip), %rdx
 243      000000
 244 00dc 488D3500 		leaq	.LC0(%rip), %rsi
 244      000000
 245 00e3 BF038500 		movl	$-2030009085, %edi
 245      87
 246 00e8 E8000000 		call	SetRCFileFuncLine@PLT
 246      00
 247 00ed 8945FC   		movl	%eax, -4(%rbp)
 248 00f0 EB15     		jmp	.L19
 249              	.L20:
 241:/home/rodarmer/sra_sdk-2.3.1/libs/krypto/null-ncbi.c **** 
 242:/home/rodarmer/sra_sdk-2.3.1/libs/krypto/null-ncbi.c ****         else
 243:/home/rodarmer/sra_sdk-2.3.1/libs/krypto/null-ncbi.c ****         {
 244:/home/rodarmer/sra_sdk-2.3.1/libs/krypto/null-ncbi.c ****             rc = 0;
 250              		.loc 1 244 0
 251 00f2 C745FC00 		movl	$0, -4(%rbp)
 251      000000
 245:/home/rodarmer/sra_sdk-2.3.1/libs/krypto/null-ncbi.c ****             *new_obj = (KBlockCipher*)&(NULLBCMEMBER(_vt_));
 252              		.loc 1 245 0
 253 00f9 488D1500 		leaq	KNullBlockCipherVec_vt_(%rip), %rdx
 253      000000
 254 0100 488B45E8 		movq	-24(%rbp), %rax
 255 0104 488910   		movq	%rdx, (%rax)
 256              	.L19:
 246:/home/rodarmer/sra_sdk-2.3.1/libs/krypto/null-ncbi.c ****         }
 247:/home/rodarmer/sra_sdk-2.3.1/libs/krypto/null-ncbi.c ****     }
 248:/home/rodarmer/sra_sdk-2.3.1/libs/krypto/null-ncbi.c ****     return rc;
 257              		.loc 1 248 0
 258 0107 8B45FC   		movl	-4(%rbp), %eax
 249:/home/rodarmer/sra_sdk-2.3.1/libs/krypto/null-ncbi.c **** }
 259              		.loc 1 249 0
 260 010a C9       		leave
 261 010b C3       		ret
 262              		.cfi_endproc
 263              	.LFE521:
 264              		.size	KNullBlockCipherVecMake, .-KNullBlockCipherVecMake
 265              		.section	.rodata
 266 0045 00000000 		.align 16
 266      00000000 
 266      000000
 267              		.type	__func__.6558, @object
 268              		.size	__func__.6558, 24
 269              	__func__.6558:
 270 0050 4B4E756C 		.string	"KNullBlockCipherVecMake"
 270      6C426C6F 
 270      636B4369 
 270      70686572 
 270      5665634D 
 271 0068 00000000 		.align 16
 271      00000000 
GAS LISTING /tmp/cc3yHVm6.s 			page 11


 272              		.type	__PRETTY_FUNCTION__.6557, @object
 273              		.size	__PRETTY_FUNCTION__.6557, 24
 274              	__PRETTY_FUNCTION__.6557:
 275 0070 4B4E756C 		.string	"KNullBlockCipherVecMake"
 275      6C426C6F 
 275      636B4369 
 275      70686572 
 275      5665634D 
 276              		.text
 277              	.Letext0:
 278              		.section	.debug_loc,"",@progbits
 279              	.Ldebug_loc0:
 280              	.LLST0:
 281 0000 00000000 		.quad	.LFB513-.Ltext0
 281      00000000 
 282 0008 01000000 		.quad	.LCFI0-.Ltext0
 282      00000000 
 283 0010 0200     		.value	0x2
 284 0012 77       		.byte	0x77
 285 0013 08       		.sleb128 8
 286 0014 01000000 		.quad	.LCFI0-.Ltext0
 286      00000000 
 287 001c 04000000 		.quad	.LCFI1-.Ltext0
 287      00000000 
 288 0024 0200     		.value	0x2
 289 0026 77       		.byte	0x77
 290 0027 10       		.sleb128 16
 291 0028 04000000 		.quad	.LCFI1-.Ltext0
 291      00000000 
 292 0030 0A000000 		.quad	.LFE513-.Ltext0
 292      00000000 
 293 0038 0200     		.value	0x2
 294 003a 76       		.byte	0x76
 295 003b 10       		.sleb128 16
 296 003c 00000000 		.quad	0x0
 296      00000000 
 297 0044 00000000 		.quad	0x0
 297      00000000 
 298              	.LLST1:
 299 004c 0A000000 		.quad	.LFB514-.Ltext0
 299      00000000 
 300 0054 0B000000 		.quad	.LCFI2-.Ltext0
 300      00000000 
 301 005c 0200     		.value	0x2
 302 005e 77       		.byte	0x77
 303 005f 08       		.sleb128 8
 304 0060 0B000000 		.quad	.LCFI2-.Ltext0
 304      00000000 
 305 0068 0E000000 		.quad	.LCFI3-.Ltext0
 305      00000000 
 306 0070 0200     		.value	0x2
 307 0072 77       		.byte	0x77
 308 0073 10       		.sleb128 16
 309 0074 0E000000 		.quad	.LCFI3-.Ltext0
 309      00000000 
 310 007c 15000000 		.quad	.LFE514-.Ltext0
 310      00000000 
GAS LISTING /tmp/cc3yHVm6.s 			page 12


 311 0084 0200     		.value	0x2
 312 0086 76       		.byte	0x76
 313 0087 10       		.sleb128 16
 314 0088 00000000 		.quad	0x0
 314      00000000 
 315 0090 00000000 		.quad	0x0
 315      00000000 
 316              	.LLST2:
 317 0098 15000000 		.quad	.LFB515-.Ltext0
 317      00000000 
 318 00a0 16000000 		.quad	.LCFI4-.Ltext0
 318      00000000 
 319 00a8 0200     		.value	0x2
 320 00aa 77       		.byte	0x77
 321 00ab 08       		.sleb128 8
 322 00ac 16000000 		.quad	.LCFI4-.Ltext0
 322      00000000 
 323 00b4 19000000 		.quad	.LCFI5-.Ltext0
 323      00000000 
 324 00bc 0200     		.value	0x2
 325 00be 77       		.byte	0x77
 326 00bf 10       		.sleb128 16
 327 00c0 19000000 		.quad	.LCFI5-.Ltext0
 327      00000000 
 328 00c8 20000000 		.quad	.LFE515-.Ltext0
 328      00000000 
 329 00d0 0200     		.value	0x2
 330 00d2 76       		.byte	0x76
 331 00d3 10       		.sleb128 16
 332 00d4 00000000 		.quad	0x0
 332      00000000 
 333 00dc 00000000 		.quad	0x0
 333      00000000 
 334              	.LLST3:
 335 00e4 20000000 		.quad	.LFB516-.Ltext0
 335      00000000 
 336 00ec 21000000 		.quad	.LCFI6-.Ltext0
 336      00000000 
 337 00f4 0200     		.value	0x2
 338 00f6 77       		.byte	0x77
 339 00f7 08       		.sleb128 8
 340 00f8 21000000 		.quad	.LCFI6-.Ltext0
 340      00000000 
 341 0100 24000000 		.quad	.LCFI7-.Ltext0
 341      00000000 
 342 0108 0200     		.value	0x2
 343 010a 77       		.byte	0x77
 344 010b 10       		.sleb128 16
 345 010c 24000000 		.quad	.LCFI7-.Ltext0
 345      00000000 
 346 0114 36000000 		.quad	.LFE516-.Ltext0
 346      00000000 
 347 011c 0200     		.value	0x2
 348 011e 76       		.byte	0x76
 349 011f 10       		.sleb128 16
 350 0120 00000000 		.quad	0x0
 350      00000000 
GAS LISTING /tmp/cc3yHVm6.s 			page 13


 351 0128 00000000 		.quad	0x0
 351      00000000 
 352              	.LLST4:
 353 0130 36000000 		.quad	.LFB517-.Ltext0
 353      00000000 
 354 0138 37000000 		.quad	.LCFI8-.Ltext0
 354      00000000 
 355 0140 0200     		.value	0x2
 356 0142 77       		.byte	0x77
 357 0143 08       		.sleb128 8
 358 0144 37000000 		.quad	.LCFI8-.Ltext0
 358      00000000 
 359 014c 3A000000 		.quad	.LCFI9-.Ltext0
 359      00000000 
 360 0154 0200     		.value	0x2
 361 0156 77       		.byte	0x77
 362 0157 10       		.sleb128 16
 363 0158 3A000000 		.quad	.LCFI9-.Ltext0
 363      00000000 
 364 0160 4C000000 		.quad	.LFE517-.Ltext0
 364      00000000 
 365 0168 0200     		.value	0x2
 366 016a 76       		.byte	0x76
 367 016b 10       		.sleb128 16
 368 016c 00000000 		.quad	0x0
 368      00000000 
 369 0174 00000000 		.quad	0x0
 369      00000000 
 370              	.LLST5:
 371 017c 4C000000 		.quad	.LFB518-.Ltext0
 371      00000000 
 372 0184 4D000000 		.quad	.LCFI10-.Ltext0
 372      00000000 
 373 018c 0200     		.value	0x2
 374 018e 77       		.byte	0x77
 375 018f 08       		.sleb128 8
 376 0190 4D000000 		.quad	.LCFI10-.Ltext0
 376      00000000 
 377 0198 50000000 		.quad	.LCFI11-.Ltext0
 377      00000000 
 378 01a0 0200     		.value	0x2
 379 01a2 77       		.byte	0x77
 380 01a3 10       		.sleb128 16
 381 01a4 50000000 		.quad	.LCFI11-.Ltext0
 381      00000000 
 382 01ac 60000000 		.quad	.LFE518-.Ltext0
 382      00000000 
 383 01b4 0200     		.value	0x2
 384 01b6 76       		.byte	0x76
 385 01b7 10       		.sleb128 16
 386 01b8 00000000 		.quad	0x0
 386      00000000 
 387 01c0 00000000 		.quad	0x0
 387      00000000 
 388              	.LLST6:
 389 01c8 60000000 		.quad	.LFB519-.Ltext0
 389      00000000 
GAS LISTING /tmp/cc3yHVm6.s 			page 14


 390 01d0 61000000 		.quad	.LCFI12-.Ltext0
 390      00000000 
 391 01d8 0200     		.value	0x2
 392 01da 77       		.byte	0x77
 393 01db 08       		.sleb128 8
 394 01dc 61000000 		.quad	.LCFI12-.Ltext0
 394      00000000 
 395 01e4 64000000 		.quad	.LCFI13-.Ltext0
 395      00000000 
 396 01ec 0200     		.value	0x2
 397 01ee 77       		.byte	0x77
 398 01ef 10       		.sleb128 16
 399 01f0 64000000 		.quad	.LCFI13-.Ltext0
 399      00000000 
 400 01f8 74000000 		.quad	.LFE519-.Ltext0
 400      00000000 
 401 0200 0200     		.value	0x2
 402 0202 76       		.byte	0x76
 403 0203 10       		.sleb128 16
 404 0204 00000000 		.quad	0x0
 404      00000000 
 405 020c 00000000 		.quad	0x0
 405      00000000 
 406              	.LLST7:
 407 0214 74000000 		.quad	.LFB520-.Ltext0
 407      00000000 
 408 021c 75000000 		.quad	.LCFI14-.Ltext0
 408      00000000 
 409 0224 0200     		.value	0x2
 410 0226 77       		.byte	0x77
 411 0227 08       		.sleb128 8
 412 0228 75000000 		.quad	.LCFI14-.Ltext0
 412      00000000 
 413 0230 78000000 		.quad	.LCFI15-.Ltext0
 413      00000000 
 414 0238 0200     		.value	0x2
 415 023a 77       		.byte	0x77
 416 023b 10       		.sleb128 16
 417 023c 78000000 		.quad	.LCFI15-.Ltext0
 417      00000000 
 418 0244 7F000000 		.quad	.LFE520-.Ltext0
 418      00000000 
 419 024c 0200     		.value	0x2
 420 024e 76       		.byte	0x76
 421 024f 10       		.sleb128 16
 422 0250 00000000 		.quad	0x0
 422      00000000 
 423 0258 00000000 		.quad	0x0
 423      00000000 
 424              	.LLST8:
 425 0260 7F000000 		.quad	.LFB521-.Ltext0
 425      00000000 
 426 0268 80000000 		.quad	.LCFI16-.Ltext0
 426      00000000 
 427 0270 0200     		.value	0x2
 428 0272 77       		.byte	0x77
 429 0273 08       		.sleb128 8
GAS LISTING /tmp/cc3yHVm6.s 			page 15


 430 0274 80000000 		.quad	.LCFI16-.Ltext0
 430      00000000 
 431 027c 83000000 		.quad	.LCFI17-.Ltext0
 431      00000000 
 432 0284 0200     		.value	0x2
 433 0286 77       		.byte	0x77
 434 0287 10       		.sleb128 16
 435 0288 83000000 		.quad	.LCFI17-.Ltext0
 435      00000000 
 436 0290 0C010000 		.quad	.LFE521-.Ltext0
 436      00000000 
 437 0298 0200     		.value	0x2
 438 029a 76       		.byte	0x76
 439 029b 10       		.sleb128 16
 440 029c 00000000 		.quad	0x0
 440      00000000 
 441 02a4 00000000 		.quad	0x0
 441      00000000 
 442              		.file 2 "/usr/include/stdint.h"
 443              		.file 3 "/home/rodarmer/sra_sdk-2.3.1/interfaces/klib/defs.h"
 444              		.file 4 "/home/rodarmer/sra_sdk-2.3.1/interfaces/cc/gcc/v128.h"
 445              		.file 5 "/home/rodarmer/sra_sdk-2.3.1/libs/krypto/blockcipher-impl.h"
 446              		.file 6 "/home/rodarmer/sra_sdk-2.3.1/libs/krypto/blockcipher-priv.h"
 447              		.file 7 "/home/rodarmer/sra_sdk-2.3.1/interfaces/klib/rc.h"
 448              		.file 8 "/home/rodarmer/sra_sdk-2.3.1/interfaces/klib/debug.h"
 449              		.section	.debug_info
 450 0000 6C0C0000 		.long	0xc6c
 451 0004 0200     		.value	0x2
 452 0006 00000000 		.long	.Ldebug_abbrev0
 453 000a 08       		.byte	0x8
 454 000b 01       		.uleb128 0x1
 455 000c 00000000 		.long	.LASF317
 456 0010 01       		.byte	0x1
 457 0011 00000000 		.long	.LASF318
 458 0015 00000000 		.long	.LASF319
 459 0019 00000000 		.quad	.Ltext0
 459      00000000 
 460 0021 00000000 		.quad	.Letext0
 460      00000000 
 461 0029 00000000 		.long	.Ldebug_line0
 462 002d 02       		.uleb128 0x2
 463 002e 01       		.byte	0x1
 464 002f 06       		.byte	0x6
 465 0030 00000000 		.long	.LASF0
 466 0034 02       		.uleb128 0x2
 467 0035 02       		.byte	0x2
 468 0036 05       		.byte	0x5
 469 0037 00000000 		.long	.LASF1
 470 003b 03       		.uleb128 0x3
 471 003c 04       		.byte	0x4
 472 003d 05       		.byte	0x5
 473 003e 696E7400 		.string	"int"
 474 0042 02       		.uleb128 0x2
 475 0043 08       		.byte	0x8
 476 0044 05       		.byte	0x5
 477 0045 00000000 		.long	.LASF2
 478 0049 04       		.uleb128 0x4
GAS LISTING /tmp/cc3yHVm6.s 			page 16


 479 004a 00000000 		.long	.LASF5
 480 004e 02       		.byte	0x2
 481 004f 31       		.byte	0x31
 482 0050 54000000 		.long	0x54
 483 0054 02       		.uleb128 0x2
 484 0055 01       		.byte	0x1
 485 0056 08       		.byte	0x8
 486 0057 00000000 		.long	.LASF3
 487 005b 02       		.uleb128 0x2
 488 005c 02       		.byte	0x2
 489 005d 07       		.byte	0x7
 490 005e 00000000 		.long	.LASF4
 491 0062 04       		.uleb128 0x4
 492 0063 00000000 		.long	.LASF6
 493 0067 02       		.byte	0x2
 494 0068 34       		.byte	0x34
 495 0069 6D000000 		.long	0x6d
 496 006d 02       		.uleb128 0x2
 497 006e 04       		.byte	0x4
 498 006f 07       		.byte	0x7
 499 0070 00000000 		.long	.LASF7
 500 0074 02       		.uleb128 0x2
 501 0075 08       		.byte	0x8
 502 0076 07       		.byte	0x7
 503 0077 00000000 		.long	.LASF8
 504 007b 04       		.uleb128 0x4
 505 007c 00000000 		.long	.LASF9
 506 0080 03       		.byte	0x3
 507 0081 30       		.byte	0x30
 508 0082 62000000 		.long	0x62
 509 0086 05       		.uleb128 0x5
 510 0087 08       		.byte	0x8
 511 0088 06       		.uleb128 0x6
 512 0089 08       		.byte	0x8
 513 008a 07       		.byte	0x7
 514 008b 07       		.uleb128 0x7
 515 008c 08       		.byte	0x8
 516 008d 91000000 		.long	0x91
 517 0091 08       		.uleb128 0x8
 518 0092 96000000 		.long	0x96
 519 0096 02       		.uleb128 0x2
 520 0097 01       		.byte	0x1
 521 0098 06       		.byte	0x6
 522 0099 00000000 		.long	.LASF10
 523 009d 09       		.uleb128 0x9
 524 009e 04       		.byte	0x4
 525 009f 08       		.byte	0x8
 526 00a0 D6       		.byte	0xd6
 527 00a1 1E010000 		.long	0x11e
 528 00a5 0A       		.uleb128 0xa
 529 00a6 00000000 		.long	.LASF11
 530 00aa 7F       		.sleb128 -1
 531 00ab 0A       		.uleb128 0xa
 532 00ac 00000000 		.long	.LASF12
 533 00b0 00       		.sleb128 0
 534 00b1 0A       		.uleb128 0xa
 535 00b2 00000000 		.long	.LASF13
GAS LISTING /tmp/cc3yHVm6.s 			page 17


 536 00b6 01       		.sleb128 1
 537 00b7 0A       		.uleb128 0xa
 538 00b8 00000000 		.long	.LASF14
 539 00bc 02       		.sleb128 2
 540 00bd 0A       		.uleb128 0xa
 541 00be 00000000 		.long	.LASF15
 542 00c2 03       		.sleb128 3
 543 00c3 0A       		.uleb128 0xa
 544 00c4 00000000 		.long	.LASF16
 545 00c8 04       		.sleb128 4
 546 00c9 0A       		.uleb128 0xa
 547 00ca 00000000 		.long	.LASF17
 548 00ce 05       		.sleb128 5
 549 00cf 0A       		.uleb128 0xa
 550 00d0 00000000 		.long	.LASF18
 551 00d4 06       		.sleb128 6
 552 00d5 0A       		.uleb128 0xa
 553 00d6 00000000 		.long	.LASF19
 554 00da 07       		.sleb128 7
 555 00db 0A       		.uleb128 0xa
 556 00dc 00000000 		.long	.LASF20
 557 00e0 08       		.sleb128 8
 558 00e1 0A       		.uleb128 0xa
 559 00e2 00000000 		.long	.LASF21
 560 00e6 09       		.sleb128 9
 561 00e7 0A       		.uleb128 0xa
 562 00e8 00000000 		.long	.LASF22
 563 00ec 0A       		.sleb128 10
 564 00ed 0A       		.uleb128 0xa
 565 00ee 00000000 		.long	.LASF23
 566 00f2 0B       		.sleb128 11
 567 00f3 0A       		.uleb128 0xa
 568 00f4 00000000 		.long	.LASF24
 569 00f8 0C       		.sleb128 12
 570 00f9 0A       		.uleb128 0xa
 571 00fa 00000000 		.long	.LASF25
 572 00fe 0D       		.sleb128 13
 573 00ff 0A       		.uleb128 0xa
 574 0100 00000000 		.long	.LASF26
 575 0104 0E       		.sleb128 14
 576 0105 0A       		.uleb128 0xa
 577 0106 00000000 		.long	.LASF27
 578 010a 0F       		.sleb128 15
 579 010b 0A       		.uleb128 0xa
 580 010c 00000000 		.long	.LASF28
 581 0110 10       		.sleb128 16
 582 0111 0A       		.uleb128 0xa
 583 0112 00000000 		.long	.LASF29
 584 0116 11       		.sleb128 17
 585 0117 0A       		.uleb128 0xa
 586 0118 00000000 		.long	.LASF30
 587 011c 12       		.sleb128 18
 588 011d 00       		.byte	0x0
 589 011e 07       		.uleb128 0x7
 590 011f 08       		.byte	0x8
 591 0120 24010000 		.long	0x124
 592 0124 0B       		.uleb128 0xb
GAS LISTING /tmp/cc3yHVm6.s 			page 18


 593 0125 02       		.uleb128 0x2
 594 0126 08       		.byte	0x8
 595 0127 05       		.byte	0x5
 596 0128 00000000 		.long	.LASF31
 597 012c 02       		.uleb128 0x2
 598 012d 04       		.byte	0x4
 599 012e 04       		.byte	0x4
 600 012f 00000000 		.long	.LASF32
 601 0133 07       		.uleb128 0x7
 602 0134 08       		.byte	0x8
 603 0135 96000000 		.long	0x96
 604 0139 02       		.uleb128 0x2
 605 013a 08       		.byte	0x8
 606 013b 07       		.byte	0x7
 607 013c 00000000 		.long	.LASF33
 608 0140 02       		.uleb128 0x2
 609 0141 08       		.byte	0x8
 610 0142 04       		.byte	0x4
 611 0143 00000000 		.long	.LASF34
 612 0147 04       		.uleb128 0x4
 613 0148 00000000 		.long	.LASF35
 614 014c 04       		.byte	0x4
 615 014d 26       		.byte	0x26
 616 014e 52010000 		.long	0x152
 617 0152 0C       		.uleb128 0xc
 618 0153 01       		.byte	0x1
 619 0154 49000000 		.long	0x49
 620 0158 63010000 		.long	0x163
 621 015c 0D       		.uleb128 0xd
 622 015d 88000000 		.long	0x88
 623 0161 0F       		.byte	0xf
 624 0162 00       		.byte	0x0
 625 0163 04       		.uleb128 0x4
 626 0164 00000000 		.long	.LASF36
 627 0168 05       		.byte	0x5
 628 0169 3B       		.byte	0x3b
 629 016a 47010000 		.long	0x147
 630 016e 04       		.uleb128 0x4
 631 016f 00000000 		.long	.LASF37
 632 0173 05       		.byte	0x5
 633 0174 43       		.byte	0x43
 634 0175 79010000 		.long	0x179
 635 0179 0E       		.uleb128 0xe
 636 017a 00000000 		.long	.LASF37
 637 017e 08       		.byte	0x8
 638 017f 05       		.byte	0x5
 639 0180 43       		.byte	0x43
 640 0181 A2010000 		.long	0x1a2
 641 0185 0F       		.uleb128 0xf
 642 0186 6D616A00 		.string	"maj"
 643 018a 05       		.byte	0x5
 644 018b 46       		.byte	0x46
 645 018c 62000000 		.long	0x62
 646 0190 02       		.byte	0x2
 647 0191 23       		.byte	0x23
 648 0192 00       		.uleb128 0x0
 649 0193 0F       		.uleb128 0xf
GAS LISTING /tmp/cc3yHVm6.s 			page 19


 650 0194 6D696E00 		.string	"min"
 651 0198 05       		.byte	0x5
 652 0199 47       		.byte	0x47
 653 019a 62000000 		.long	0x62
 654 019e 02       		.byte	0x2
 655 019f 23       		.byte	0x23
 656 01a0 04       		.uleb128 0x4
 657 01a1 00       		.byte	0x0
 658 01a2 04       		.uleb128 0x4
 659 01a3 00000000 		.long	.LASF38
 660 01a7 05       		.byte	0x5
 661 01a8 52       		.byte	0x52
 662 01a9 AD010000 		.long	0x1ad
 663 01ad 0E       		.uleb128 0xe
 664 01ae 00000000 		.long	.LASF38
 665 01b2 40       		.byte	0x40
 666 01b3 05       		.byte	0x5
 667 01b4 52       		.byte	0x52
 668 01b5 2A020000 		.long	0x22a
 669 01b9 10       		.uleb128 0x10
 670 01ba 00000000 		.long	.LASF39
 671 01be 05       		.byte	0x5
 672 01bf 5E       		.byte	0x5e
 673 01c0 6E010000 		.long	0x16e
 674 01c4 02       		.byte	0x2
 675 01c5 23       		.byte	0x23
 676 01c6 00       		.uleb128 0x0
 677 01c7 10       		.uleb128 0x10
 678 01c8 00000000 		.long	.LASF40
 679 01cc 05       		.byte	0x5
 680 01cd 63       		.byte	0x63
 681 01ce 6E020000 		.long	0x26e
 682 01d2 02       		.byte	0x2
 683 01d3 23       		.byte	0x23
 684 01d4 08       		.uleb128 0x8
 685 01d5 10       		.uleb128 0x10
 686 01d6 00000000 		.long	.LASF41
 687 01da 05       		.byte	0x5
 688 01db 65       		.byte	0x65
 689 01dc 7F020000 		.long	0x27f
 690 01e0 02       		.byte	0x2
 691 01e1 23       		.byte	0x23
 692 01e2 10       		.uleb128 0x10
 693 01e3 10       		.uleb128 0x10
 694 01e4 00000000 		.long	.LASF42
 695 01e8 05       		.byte	0x5
 696 01e9 67       		.byte	0x67
 697 01ea 7F020000 		.long	0x27f
 698 01ee 02       		.byte	0x2
 699 01ef 23       		.byte	0x23
 700 01f0 18       		.uleb128 0x18
 701 01f1 10       		.uleb128 0x10
 702 01f2 00000000 		.long	.LASF43
 703 01f6 05       		.byte	0x5
 704 01f7 69       		.byte	0x69
 705 01f8 9F020000 		.long	0x29f
 706 01fc 02       		.byte	0x2
GAS LISTING /tmp/cc3yHVm6.s 			page 20


 707 01fd 23       		.byte	0x23
 708 01fe 20       		.uleb128 0x20
 709 01ff 10       		.uleb128 0x10
 710 0200 00000000 		.long	.LASF44
 711 0204 05       		.byte	0x5
 712 0205 6D       		.byte	0x6d
 713 0206 9F020000 		.long	0x29f
 714 020a 02       		.byte	0x2
 715 020b 23       		.byte	0x23
 716 020c 28       		.uleb128 0x28
 717 020d 10       		.uleb128 0x10
 718 020e 00000000 		.long	.LASF45
 719 0212 05       		.byte	0x5
 720 0213 71       		.byte	0x71
 721 0214 BB020000 		.long	0x2bb
 722 0218 02       		.byte	0x2
 723 0219 23       		.byte	0x23
 724 021a 30       		.uleb128 0x30
 725 021b 10       		.uleb128 0x10
 726 021c 00000000 		.long	.LASF46
 727 0220 05       		.byte	0x5
 728 0221 75       		.byte	0x75
 729 0222 BB020000 		.long	0x2bb
 730 0226 02       		.byte	0x2
 731 0227 23       		.byte	0x23
 732 0228 38       		.uleb128 0x38
 733 0229 00       		.byte	0x0
 734 022a 04       		.uleb128 0x4
 735 022b 00000000 		.long	.LASF47
 736 022f 05       		.byte	0x5
 737 0230 53       		.byte	0x53
 738 0231 35020000 		.long	0x235
 739 0235 11       		.uleb128 0x11
 740 0236 00000000 		.long	.LASF47
 741 023a 40       		.byte	0x40
 742 023b 05       		.byte	0x5
 743 023c 53       		.byte	0x53
 744 023d 57020000 		.long	0x257
 745 0241 12       		.uleb128 0x12
 746 0242 00000000 		.long	.LASF39
 747 0246 05       		.byte	0x5
 748 0247 7F       		.byte	0x7f
 749 0248 6E010000 		.long	0x16e
 750 024c 13       		.uleb128 0x13
 751 024d 763100   		.string	"v1"
 752 0250 05       		.byte	0x5
 753 0251 80       		.byte	0x80
 754 0252 A2010000 		.long	0x1a2
 755 0256 00       		.byte	0x0
 756 0257 14       		.uleb128 0x14
 757 0258 01       		.byte	0x1
 758 0259 63020000 		.long	0x263
 759 025d 15       		.uleb128 0x15
 760 025e 63020000 		.long	0x263
 761 0262 00       		.byte	0x0
 762 0263 07       		.uleb128 0x7
 763 0264 08       		.byte	0x8
GAS LISTING /tmp/cc3yHVm6.s 			page 21


 764 0265 69020000 		.long	0x269
 765 0269 08       		.uleb128 0x8
 766 026a 2A020000 		.long	0x22a
 767 026e 07       		.uleb128 0x7
 768 026f 08       		.byte	0x8
 769 0270 57020000 		.long	0x257
 770 0274 16       		.uleb128 0x16
 771 0275 62000000 		.long	0x62
 772 0279 7F020000 		.long	0x27f
 773 027d 17       		.uleb128 0x17
 774 027e 00       		.byte	0x0
 775 027f 07       		.uleb128 0x7
 776 0280 08       		.byte	0x8
 777 0281 74020000 		.long	0x274
 778 0285 18       		.uleb128 0x18
 779 0286 01       		.byte	0x1
 780 0287 7B000000 		.long	0x7b
 781 028b 9F020000 		.long	0x29f
 782 028f 15       		.uleb128 0x15
 783 0290 86000000 		.long	0x86
 784 0294 15       		.uleb128 0x15
 785 0295 8B000000 		.long	0x8b
 786 0299 15       		.uleb128 0x15
 787 029a 62000000 		.long	0x62
 788 029e 00       		.byte	0x0
 789 029f 07       		.uleb128 0x7
 790 02a0 08       		.byte	0x8
 791 02a1 85020000 		.long	0x285
 792 02a5 14       		.uleb128 0x14
 793 02a6 01       		.byte	0x1
 794 02a7 BB020000 		.long	0x2bb
 795 02ab 15       		.uleb128 0x15
 796 02ac 8B000000 		.long	0x8b
 797 02b0 15       		.uleb128 0x15
 798 02b1 33010000 		.long	0x133
 799 02b5 15       		.uleb128 0x15
 800 02b6 1E010000 		.long	0x11e
 801 02ba 00       		.byte	0x0
 802 02bb 07       		.uleb128 0x7
 803 02bc 08       		.byte	0x8
 804 02bd A5020000 		.long	0x2a5
 805 02c1 04       		.uleb128 0x4
 806 02c2 00000000 		.long	.LASF48
 807 02c6 05       		.byte	0x5
 808 02c7 84       		.byte	0x84
 809 02c8 CC020000 		.long	0x2cc
 810 02cc 0E       		.uleb128 0xe
 811 02cd 00000000 		.long	.LASF48
 812 02d1 40       		.byte	0x40
 813 02d2 05       		.byte	0x5
 814 02d3 84       		.byte	0x84
 815 02d4 49030000 		.long	0x349
 816 02d8 10       		.uleb128 0x10
 817 02d9 00000000 		.long	.LASF39
 818 02dd 05       		.byte	0x5
 819 02de 90       		.byte	0x90
 820 02df 6E010000 		.long	0x16e
GAS LISTING /tmp/cc3yHVm6.s 			page 22


 821 02e3 02       		.byte	0x2
 822 02e4 23       		.byte	0x23
 823 02e5 00       		.uleb128 0x0
 824 02e6 10       		.uleb128 0x10
 825 02e7 00000000 		.long	.LASF40
 826 02eb 05       		.byte	0x5
 827 02ec 95       		.byte	0x95
 828 02ed 8D030000 		.long	0x38d
 829 02f1 02       		.byte	0x2
 830 02f2 23       		.byte	0x23
 831 02f3 08       		.uleb128 0x8
 832 02f4 10       		.uleb128 0x10
 833 02f5 00000000 		.long	.LASF41
 834 02f9 05       		.byte	0x5
 835 02fa 97       		.byte	0x97
 836 02fb 7F020000 		.long	0x27f
 837 02ff 02       		.byte	0x2
 838 0300 23       		.byte	0x23
 839 0301 10       		.uleb128 0x10
 840 0302 10       		.uleb128 0x10
 841 0303 00000000 		.long	.LASF42
 842 0307 05       		.byte	0x5
 843 0308 99       		.byte	0x99
 844 0309 7F020000 		.long	0x27f
 845 030d 02       		.byte	0x2
 846 030e 23       		.byte	0x23
 847 030f 18       		.uleb128 0x18
 848 0310 10       		.uleb128 0x10
 849 0311 00000000 		.long	.LASF43
 850 0315 05       		.byte	0x5
 851 0316 9B       		.byte	0x9b
 852 0317 9F020000 		.long	0x29f
 853 031b 02       		.byte	0x2
 854 031c 23       		.byte	0x23
 855 031d 20       		.uleb128 0x20
 856 031e 10       		.uleb128 0x10
 857 031f 00000000 		.long	.LASF44
 858 0323 05       		.byte	0x5
 859 0324 9F       		.byte	0x9f
 860 0325 9F020000 		.long	0x29f
 861 0329 02       		.byte	0x2
 862 032a 23       		.byte	0x23
 863 032b 28       		.uleb128 0x28
 864 032c 10       		.uleb128 0x10
 865 032d 00000000 		.long	.LASF45
 866 0331 05       		.byte	0x5
 867 0332 A3       		.byte	0xa3
 868 0333 A8030000 		.long	0x3a8
 869 0337 02       		.byte	0x2
 870 0338 23       		.byte	0x23
 871 0339 30       		.uleb128 0x30
 872 033a 10       		.uleb128 0x10
 873 033b 00000000 		.long	.LASF46
 874 033f 05       		.byte	0x5
 875 0340 A6       		.byte	0xa6
 876 0341 A8030000 		.long	0x3a8
 877 0345 02       		.byte	0x2
GAS LISTING /tmp/cc3yHVm6.s 			page 23


 878 0346 23       		.byte	0x23
 879 0347 38       		.uleb128 0x38
 880 0348 00       		.byte	0x0
 881 0349 04       		.uleb128 0x4
 882 034a 00000000 		.long	.LASF49
 883 034e 05       		.byte	0x5
 884 034f 85       		.byte	0x85
 885 0350 54030000 		.long	0x354
 886 0354 11       		.uleb128 0x11
 887 0355 00000000 		.long	.LASF49
 888 0359 40       		.byte	0x40
 889 035a 05       		.byte	0x5
 890 035b 85       		.byte	0x85
 891 035c 76030000 		.long	0x376
 892 0360 12       		.uleb128 0x12
 893 0361 00000000 		.long	.LASF39
 894 0365 05       		.byte	0x5
 895 0366 AF       		.byte	0xaf
 896 0367 6E010000 		.long	0x16e
 897 036b 13       		.uleb128 0x13
 898 036c 763100   		.string	"v1"
 899 036f 05       		.byte	0x5
 900 0370 B0       		.byte	0xb0
 901 0371 C1020000 		.long	0x2c1
 902 0375 00       		.byte	0x0
 903 0376 14       		.uleb128 0x14
 904 0377 01       		.byte	0x1
 905 0378 82030000 		.long	0x382
 906 037c 15       		.uleb128 0x15
 907 037d 82030000 		.long	0x382
 908 0381 00       		.byte	0x0
 909 0382 07       		.uleb128 0x7
 910 0383 08       		.byte	0x8
 911 0384 88030000 		.long	0x388
 912 0388 08       		.uleb128 0x8
 913 0389 49030000 		.long	0x349
 914 038d 07       		.uleb128 0x7
 915 038e 08       		.byte	0x8
 916 038f 76030000 		.long	0x376
 917 0393 18       		.uleb128 0x18
 918 0394 01       		.byte	0x1
 919 0395 63010000 		.long	0x163
 920 0399 A8030000 		.long	0x3a8
 921 039d 15       		.uleb128 0x15
 922 039e 63010000 		.long	0x163
 923 03a2 15       		.uleb128 0x15
 924 03a3 1E010000 		.long	0x11e
 925 03a7 00       		.byte	0x0
 926 03a8 07       		.uleb128 0x7
 927 03a9 08       		.byte	0x8
 928 03aa 93030000 		.long	0x393
 929 03ae 04       		.uleb128 0x4
 930 03af 00000000 		.long	.LASF50
 931 03b3 06       		.byte	0x6
 932 03b4 40       		.byte	0x40
 933 03b5 B9030000 		.long	0x3b9
 934 03b9 11       		.uleb128 0x11
GAS LISTING /tmp/cc3yHVm6.s 			page 24


 935 03ba 00000000 		.long	.LASF50
 936 03be 40       		.byte	0x40
 937 03bf 06       		.byte	0x6
 938 03c0 40       		.byte	0x40
 939 03c1 DC030000 		.long	0x3dc
 940 03c5 12       		.uleb128 0x12
 941 03c6 00000000 		.long	.LASF51
 942 03ca 06       		.byte	0x6
 943 03cb 43       		.byte	0x43
 944 03cc 2A020000 		.long	0x22a
 945 03d0 13       		.uleb128 0x13
 946 03d1 76656300 		.string	"vec"
 947 03d5 06       		.byte	0x6
 948 03d6 44       		.byte	0x44
 949 03d7 49030000 		.long	0x349
 950 03db 00       		.byte	0x0
 951 03dc 19       		.uleb128 0x19
 952 03dd 00000000 		.long	.LASF74
 953 03e1 04       		.byte	0x4
 954 03e2 07       		.byte	0x7
 955 03e3 5A       		.byte	0x5a
 956 03e4 6D040000 		.long	0x46d
 957 03e8 0A       		.uleb128 0xa
 958 03e9 00000000 		.long	.LASF52
 959 03ed 00       		.sleb128 0
 960 03ee 0A       		.uleb128 0xa
 961 03ef 00000000 		.long	.LASF53
 962 03f3 01       		.sleb128 1
 963 03f4 0A       		.uleb128 0xa
 964 03f5 00000000 		.long	.LASF54
 965 03f9 02       		.sleb128 2
 966 03fa 0A       		.uleb128 0xa
 967 03fb 00000000 		.long	.LASF55
 968 03ff 03       		.sleb128 3
 969 0400 0A       		.uleb128 0xa
 970 0401 00000000 		.long	.LASF56
 971 0405 04       		.sleb128 4
 972 0406 0A       		.uleb128 0xa
 973 0407 00000000 		.long	.LASF57
 974 040b 05       		.sleb128 5
 975 040c 0A       		.uleb128 0xa
 976 040d 00000000 		.long	.LASF58
 977 0411 06       		.sleb128 6
 978 0412 0A       		.uleb128 0xa
 979 0413 00000000 		.long	.LASF59
 980 0417 07       		.sleb128 7
 981 0418 0A       		.uleb128 0xa
 982 0419 00000000 		.long	.LASF60
 983 041d 08       		.sleb128 8
 984 041e 0A       		.uleb128 0xa
 985 041f 00000000 		.long	.LASF61
 986 0423 09       		.sleb128 9
 987 0424 0A       		.uleb128 0xa
 988 0425 00000000 		.long	.LASF62
 989 0429 0A       		.sleb128 10
 990 042a 0A       		.uleb128 0xa
 991 042b 00000000 		.long	.LASF63
GAS LISTING /tmp/cc3yHVm6.s 			page 25


 992 042f 0B       		.sleb128 11
 993 0430 0A       		.uleb128 0xa
 994 0431 00000000 		.long	.LASF64
 995 0435 0C       		.sleb128 12
 996 0436 0A       		.uleb128 0xa
 997 0437 00000000 		.long	.LASF65
 998 043b 0D       		.sleb128 13
 999 043c 0A       		.uleb128 0xa
 1000 043d 00000000 		.long	.LASF66
 1001 0441 0E       		.sleb128 14
 1002 0442 0A       		.uleb128 0xa
 1003 0443 00000000 		.long	.LASF67
 1004 0447 0E       		.sleb128 14
 1005 0448 0A       		.uleb128 0xa
 1006 0449 00000000 		.long	.LASF68
 1007 044d 0F       		.sleb128 15
 1008 044e 0A       		.uleb128 0xa
 1009 044f 00000000 		.long	.LASF69
 1010 0453 10       		.sleb128 16
 1011 0454 0A       		.uleb128 0xa
 1012 0455 00000000 		.long	.LASF70
 1013 0459 11       		.sleb128 17
 1014 045a 0A       		.uleb128 0xa
 1015 045b 00000000 		.long	.LASF71
 1016 045f 12       		.sleb128 18
 1017 0460 0A       		.uleb128 0xa
 1018 0461 00000000 		.long	.LASF72
 1019 0465 13       		.sleb128 19
 1020 0466 0A       		.uleb128 0xa
 1021 0467 00000000 		.long	.LASF73
 1022 046b 14       		.sleb128 20
 1023 046c 00       		.byte	0x0
 1024 046d 19       		.uleb128 0x19
 1025 046e 00000000 		.long	.LASF75
 1026 0472 04       		.byte	0x4
 1027 0473 07       		.byte	0x7
 1028 0474 77       		.byte	0x77
 1029 0475 F4050000 		.long	0x5f4
 1030 0479 0A       		.uleb128 0xa
 1031 047a 00000000 		.long	.LASF76
 1032 047e 00       		.sleb128 0
 1033 047f 0A       		.uleb128 0xa
 1034 0480 00000000 		.long	.LASF77
 1035 0484 01       		.sleb128 1
 1036 0485 0A       		.uleb128 0xa
 1037 0486 00000000 		.long	.LASF78
 1038 048a 02       		.sleb128 2
 1039 048b 0A       		.uleb128 0xa
 1040 048c 00000000 		.long	.LASF79
 1041 0490 03       		.sleb128 3
 1042 0491 0A       		.uleb128 0xa
 1043 0492 00000000 		.long	.LASF80
 1044 0496 04       		.sleb128 4
 1045 0497 0A       		.uleb128 0xa
 1046 0498 00000000 		.long	.LASF81
 1047 049c 05       		.sleb128 5
 1048 049d 0A       		.uleb128 0xa
GAS LISTING /tmp/cc3yHVm6.s 			page 26


 1049 049e 00000000 		.long	.LASF82
 1050 04a2 06       		.sleb128 6
 1051 04a3 0A       		.uleb128 0xa
 1052 04a4 00000000 		.long	.LASF83
 1053 04a8 07       		.sleb128 7
 1054 04a9 0A       		.uleb128 0xa
 1055 04aa 00000000 		.long	.LASF84
 1056 04ae 08       		.sleb128 8
 1057 04af 0A       		.uleb128 0xa
 1058 04b0 00000000 		.long	.LASF85
 1059 04b4 09       		.sleb128 9
 1060 04b5 0A       		.uleb128 0xa
 1061 04b6 00000000 		.long	.LASF86
 1062 04ba 0A       		.sleb128 10
 1063 04bb 0A       		.uleb128 0xa
 1064 04bc 00000000 		.long	.LASF87
 1065 04c0 0B       		.sleb128 11
 1066 04c1 0A       		.uleb128 0xa
 1067 04c2 00000000 		.long	.LASF88
 1068 04c6 0C       		.sleb128 12
 1069 04c7 0A       		.uleb128 0xa
 1070 04c8 00000000 		.long	.LASF89
 1071 04cc 0D       		.sleb128 13
 1072 04cd 0A       		.uleb128 0xa
 1073 04ce 00000000 		.long	.LASF90
 1074 04d2 0E       		.sleb128 14
 1075 04d3 0A       		.uleb128 0xa
 1076 04d4 00000000 		.long	.LASF91
 1077 04d8 0F       		.sleb128 15
 1078 04d9 0A       		.uleb128 0xa
 1079 04da 00000000 		.long	.LASF92
 1080 04de 10       		.sleb128 16
 1081 04df 0A       		.uleb128 0xa
 1082 04e0 00000000 		.long	.LASF93
 1083 04e4 11       		.sleb128 17
 1084 04e5 0A       		.uleb128 0xa
 1085 04e6 00000000 		.long	.LASF94
 1086 04ea 12       		.sleb128 18
 1087 04eb 0A       		.uleb128 0xa
 1088 04ec 00000000 		.long	.LASF95
 1089 04f0 13       		.sleb128 19
 1090 04f1 0A       		.uleb128 0xa
 1091 04f2 00000000 		.long	.LASF96
 1092 04f6 14       		.sleb128 20
 1093 04f7 0A       		.uleb128 0xa
 1094 04f8 00000000 		.long	.LASF97
 1095 04fc 15       		.sleb128 21
 1096 04fd 0A       		.uleb128 0xa
 1097 04fe 00000000 		.long	.LASF98
 1098 0502 16       		.sleb128 22
 1099 0503 0A       		.uleb128 0xa
 1100 0504 00000000 		.long	.LASF99
 1101 0508 17       		.sleb128 23
 1102 0509 0A       		.uleb128 0xa
 1103 050a 00000000 		.long	.LASF100
 1104 050e 18       		.sleb128 24
 1105 050f 0A       		.uleb128 0xa
GAS LISTING /tmp/cc3yHVm6.s 			page 27


 1106 0510 00000000 		.long	.LASF101
 1107 0514 19       		.sleb128 25
 1108 0515 0A       		.uleb128 0xa
 1109 0516 00000000 		.long	.LASF102
 1110 051a 1A       		.sleb128 26
 1111 051b 0A       		.uleb128 0xa
 1112 051c 00000000 		.long	.LASF103
 1113 0520 1B       		.sleb128 27
 1114 0521 0A       		.uleb128 0xa
 1115 0522 00000000 		.long	.LASF104
 1116 0526 1C       		.sleb128 28
 1117 0527 0A       		.uleb128 0xa
 1118 0528 00000000 		.long	.LASF105
 1119 052c 1D       		.sleb128 29
 1120 052d 0A       		.uleb128 0xa
 1121 052e 00000000 		.long	.LASF106
 1122 0532 1E       		.sleb128 30
 1123 0533 0A       		.uleb128 0xa
 1124 0534 00000000 		.long	.LASF107
 1125 0538 1F       		.sleb128 31
 1126 0539 0A       		.uleb128 0xa
 1127 053a 00000000 		.long	.LASF108
 1128 053e 20       		.sleb128 32
 1129 053f 0A       		.uleb128 0xa
 1130 0540 00000000 		.long	.LASF109
 1131 0544 21       		.sleb128 33
 1132 0545 0A       		.uleb128 0xa
 1133 0546 00000000 		.long	.LASF110
 1134 054a 22       		.sleb128 34
 1135 054b 0A       		.uleb128 0xa
 1136 054c 00000000 		.long	.LASF111
 1137 0550 23       		.sleb128 35
 1138 0551 0A       		.uleb128 0xa
 1139 0552 00000000 		.long	.LASF112
 1140 0556 24       		.sleb128 36
 1141 0557 0A       		.uleb128 0xa
 1142 0558 00000000 		.long	.LASF113
 1143 055c 25       		.sleb128 37
 1144 055d 0A       		.uleb128 0xa
 1145 055e 00000000 		.long	.LASF114
 1146 0562 26       		.sleb128 38
 1147 0563 0A       		.uleb128 0xa
 1148 0564 00000000 		.long	.LASF115
 1149 0568 27       		.sleb128 39
 1150 0569 0A       		.uleb128 0xa
 1151 056a 00000000 		.long	.LASF116
 1152 056e 28       		.sleb128 40
 1153 056f 0A       		.uleb128 0xa
 1154 0570 00000000 		.long	.LASF117
 1155 0574 29       		.sleb128 41
 1156 0575 0A       		.uleb128 0xa
 1157 0576 00000000 		.long	.LASF118
 1158 057a 2A       		.sleb128 42
 1159 057b 0A       		.uleb128 0xa
 1160 057c 00000000 		.long	.LASF119
 1161 0580 2B       		.sleb128 43
 1162 0581 0A       		.uleb128 0xa
GAS LISTING /tmp/cc3yHVm6.s 			page 28


 1163 0582 00000000 		.long	.LASF120
 1164 0586 2C       		.sleb128 44
 1165 0587 0A       		.uleb128 0xa
 1166 0588 00000000 		.long	.LASF121
 1167 058c 2D       		.sleb128 45
 1168 058d 0A       		.uleb128 0xa
 1169 058e 00000000 		.long	.LASF122
 1170 0592 2E       		.sleb128 46
 1171 0593 0A       		.uleb128 0xa
 1172 0594 00000000 		.long	.LASF123
 1173 0598 2F       		.sleb128 47
 1174 0599 0A       		.uleb128 0xa
 1175 059a 00000000 		.long	.LASF124
 1176 059e 30       		.sleb128 48
 1177 059f 0A       		.uleb128 0xa
 1178 05a0 00000000 		.long	.LASF125
 1179 05a4 31       		.sleb128 49
 1180 05a5 0A       		.uleb128 0xa
 1181 05a6 00000000 		.long	.LASF126
 1182 05aa 32       		.sleb128 50
 1183 05ab 0A       		.uleb128 0xa
 1184 05ac 00000000 		.long	.LASF127
 1185 05b0 33       		.sleb128 51
 1186 05b1 0A       		.uleb128 0xa
 1187 05b2 00000000 		.long	.LASF128
 1188 05b6 34       		.sleb128 52
 1189 05b7 0A       		.uleb128 0xa
 1190 05b8 00000000 		.long	.LASF129
 1191 05bc 35       		.sleb128 53
 1192 05bd 0A       		.uleb128 0xa
 1193 05be 00000000 		.long	.LASF130
 1194 05c2 36       		.sleb128 54
 1195 05c3 0A       		.uleb128 0xa
 1196 05c4 00000000 		.long	.LASF131
 1197 05c8 36       		.sleb128 54
 1198 05c9 0A       		.uleb128 0xa
 1199 05ca 00000000 		.long	.LASF132
 1200 05ce 37       		.sleb128 55
 1201 05cf 0A       		.uleb128 0xa
 1202 05d0 00000000 		.long	.LASF133
 1203 05d4 38       		.sleb128 56
 1204 05d5 0A       		.uleb128 0xa
 1205 05d6 00000000 		.long	.LASF134
 1206 05da 39       		.sleb128 57
 1207 05db 0A       		.uleb128 0xa
 1208 05dc 00000000 		.long	.LASF135
 1209 05e0 3A       		.sleb128 58
 1210 05e1 0A       		.uleb128 0xa
 1211 05e2 00000000 		.long	.LASF136
 1212 05e6 3B       		.sleb128 59
 1213 05e7 0A       		.uleb128 0xa
 1214 05e8 00000000 		.long	.LASF137
 1215 05ec 3C       		.sleb128 60
 1216 05ed 0A       		.uleb128 0xa
 1217 05ee 00000000 		.long	.LASF138
 1218 05f2 3D       		.sleb128 61
 1219 05f3 00       		.byte	0x0
GAS LISTING /tmp/cc3yHVm6.s 			page 29


 1220 05f4 19       		.uleb128 0x19
 1221 05f5 00000000 		.long	.LASF139
 1222 05f9 04       		.byte	0x4
 1223 05fa 07       		.byte	0x7
 1224 05fb BD       		.byte	0xbd
 1225 05fc AA070000 		.long	0x7aa
 1226 0600 0A       		.uleb128 0xa
 1227 0601 00000000 		.long	.LASF140
 1228 0605 00       		.sleb128 0
 1229 0606 0A       		.uleb128 0xa
 1230 0607 00000000 		.long	.LASF141
 1231 060b 01       		.sleb128 1
 1232 060c 0A       		.uleb128 0xa
 1233 060d 00000000 		.long	.LASF142
 1234 0611 02       		.sleb128 2
 1235 0612 0A       		.uleb128 0xa
 1236 0613 00000000 		.long	.LASF143
 1237 0617 03       		.sleb128 3
 1238 0618 0A       		.uleb128 0xa
 1239 0619 00000000 		.long	.LASF144
 1240 061d 04       		.sleb128 4
 1241 061e 0A       		.uleb128 0xa
 1242 061f 00000000 		.long	.LASF145
 1243 0623 05       		.sleb128 5
 1244 0624 0A       		.uleb128 0xa
 1245 0625 00000000 		.long	.LASF146
 1246 0629 06       		.sleb128 6
 1247 062a 0A       		.uleb128 0xa
 1248 062b 00000000 		.long	.LASF147
 1249 062f 07       		.sleb128 7
 1250 0630 0A       		.uleb128 0xa
 1251 0631 00000000 		.long	.LASF148
 1252 0635 08       		.sleb128 8
 1253 0636 0A       		.uleb128 0xa
 1254 0637 00000000 		.long	.LASF149
 1255 063b 09       		.sleb128 9
 1256 063c 0A       		.uleb128 0xa
 1257 063d 00000000 		.long	.LASF150
 1258 0641 0A       		.sleb128 10
 1259 0642 0A       		.uleb128 0xa
 1260 0643 00000000 		.long	.LASF151
 1261 0647 0B       		.sleb128 11
 1262 0648 0A       		.uleb128 0xa
 1263 0649 00000000 		.long	.LASF152
 1264 064d 0C       		.sleb128 12
 1265 064e 0A       		.uleb128 0xa
 1266 064f 00000000 		.long	.LASF153
 1267 0653 0D       		.sleb128 13
 1268 0654 0A       		.uleb128 0xa
 1269 0655 00000000 		.long	.LASF154
 1270 0659 0E       		.sleb128 14
 1271 065a 0A       		.uleb128 0xa
 1272 065b 00000000 		.long	.LASF155
 1273 065f 0F       		.sleb128 15
 1274 0660 0A       		.uleb128 0xa
 1275 0661 00000000 		.long	.LASF156
 1276 0665 10       		.sleb128 16
GAS LISTING /tmp/cc3yHVm6.s 			page 30


 1277 0666 0A       		.uleb128 0xa
 1278 0667 00000000 		.long	.LASF157
 1279 066b 11       		.sleb128 17
 1280 066c 0A       		.uleb128 0xa
 1281 066d 00000000 		.long	.LASF158
 1282 0671 12       		.sleb128 18
 1283 0672 0A       		.uleb128 0xa
 1284 0673 00000000 		.long	.LASF159
 1285 0677 13       		.sleb128 19
 1286 0678 0A       		.uleb128 0xa
 1287 0679 00000000 		.long	.LASF160
 1288 067d 14       		.sleb128 20
 1289 067e 0A       		.uleb128 0xa
 1290 067f 00000000 		.long	.LASF161
 1291 0683 15       		.sleb128 21
 1292 0684 0A       		.uleb128 0xa
 1293 0685 00000000 		.long	.LASF162
 1294 0689 16       		.sleb128 22
 1295 068a 0A       		.uleb128 0xa
 1296 068b 00000000 		.long	.LASF163
 1297 068f 17       		.sleb128 23
 1298 0690 0A       		.uleb128 0xa
 1299 0691 00000000 		.long	.LASF164
 1300 0695 18       		.sleb128 24
 1301 0696 0A       		.uleb128 0xa
 1302 0697 00000000 		.long	.LASF165
 1303 069b 19       		.sleb128 25
 1304 069c 0A       		.uleb128 0xa
 1305 069d 00000000 		.long	.LASF166
 1306 06a1 1A       		.sleb128 26
 1307 06a2 0A       		.uleb128 0xa
 1308 06a3 00000000 		.long	.LASF167
 1309 06a7 1B       		.sleb128 27
 1310 06a8 0A       		.uleb128 0xa
 1311 06a9 00000000 		.long	.LASF168
 1312 06ad 1C       		.sleb128 28
 1313 06ae 0A       		.uleb128 0xa
 1314 06af 00000000 		.long	.LASF169
 1315 06b3 1D       		.sleb128 29
 1316 06b4 0A       		.uleb128 0xa
 1317 06b5 00000000 		.long	.LASF170
 1318 06b9 1E       		.sleb128 30
 1319 06ba 0A       		.uleb128 0xa
 1320 06bb 00000000 		.long	.LASF171
 1321 06bf 1F       		.sleb128 31
 1322 06c0 0A       		.uleb128 0xa
 1323 06c1 00000000 		.long	.LASF172
 1324 06c5 20       		.sleb128 32
 1325 06c6 0A       		.uleb128 0xa
 1326 06c7 00000000 		.long	.LASF173
 1327 06cb 21       		.sleb128 33
 1328 06cc 0A       		.uleb128 0xa
 1329 06cd 00000000 		.long	.LASF174
 1330 06d1 22       		.sleb128 34
 1331 06d2 0A       		.uleb128 0xa
 1332 06d3 00000000 		.long	.LASF175
 1333 06d7 23       		.sleb128 35
GAS LISTING /tmp/cc3yHVm6.s 			page 31


 1334 06d8 0A       		.uleb128 0xa
 1335 06d9 00000000 		.long	.LASF176
 1336 06dd 24       		.sleb128 36
 1337 06de 0A       		.uleb128 0xa
 1338 06df 00000000 		.long	.LASF177
 1339 06e3 25       		.sleb128 37
 1340 06e4 0A       		.uleb128 0xa
 1341 06e5 00000000 		.long	.LASF178
 1342 06e9 26       		.sleb128 38
 1343 06ea 0A       		.uleb128 0xa
 1344 06eb 00000000 		.long	.LASF179
 1345 06ef 27       		.sleb128 39
 1346 06f0 0A       		.uleb128 0xa
 1347 06f1 00000000 		.long	.LASF180
 1348 06f5 28       		.sleb128 40
 1349 06f6 0A       		.uleb128 0xa
 1350 06f7 00000000 		.long	.LASF181
 1351 06fb 29       		.sleb128 41
 1352 06fc 0A       		.uleb128 0xa
 1353 06fd 00000000 		.long	.LASF182
 1354 0701 2A       		.sleb128 42
 1355 0702 0A       		.uleb128 0xa
 1356 0703 00000000 		.long	.LASF183
 1357 0707 2B       		.sleb128 43
 1358 0708 0A       		.uleb128 0xa
 1359 0709 00000000 		.long	.LASF184
 1360 070d 2C       		.sleb128 44
 1361 070e 0A       		.uleb128 0xa
 1362 070f 00000000 		.long	.LASF185
 1363 0713 2D       		.sleb128 45
 1364 0714 0A       		.uleb128 0xa
 1365 0715 00000000 		.long	.LASF186
 1366 0719 2E       		.sleb128 46
 1367 071a 0A       		.uleb128 0xa
 1368 071b 00000000 		.long	.LASF187
 1369 071f 2F       		.sleb128 47
 1370 0720 0A       		.uleb128 0xa
 1371 0721 00000000 		.long	.LASF188
 1372 0725 30       		.sleb128 48
 1373 0726 0A       		.uleb128 0xa
 1374 0727 00000000 		.long	.LASF189
 1375 072b 31       		.sleb128 49
 1376 072c 0A       		.uleb128 0xa
 1377 072d 00000000 		.long	.LASF190
 1378 0731 32       		.sleb128 50
 1379 0732 0A       		.uleb128 0xa
 1380 0733 00000000 		.long	.LASF191
 1381 0737 33       		.sleb128 51
 1382 0738 0A       		.uleb128 0xa
 1383 0739 00000000 		.long	.LASF192
 1384 073d 34       		.sleb128 52
 1385 073e 0A       		.uleb128 0xa
 1386 073f 00000000 		.long	.LASF193
 1387 0743 35       		.sleb128 53
 1388 0744 0A       		.uleb128 0xa
 1389 0745 00000000 		.long	.LASF194
 1390 0749 36       		.sleb128 54
GAS LISTING /tmp/cc3yHVm6.s 			page 32


 1391 074a 0A       		.uleb128 0xa
 1392 074b 00000000 		.long	.LASF195
 1393 074f 37       		.sleb128 55
 1394 0750 0A       		.uleb128 0xa
 1395 0751 00000000 		.long	.LASF196
 1396 0755 38       		.sleb128 56
 1397 0756 0A       		.uleb128 0xa
 1398 0757 00000000 		.long	.LASF197
 1399 075b 39       		.sleb128 57
 1400 075c 0A       		.uleb128 0xa
 1401 075d 00000000 		.long	.LASF198
 1402 0761 3A       		.sleb128 58
 1403 0762 0A       		.uleb128 0xa
 1404 0763 00000000 		.long	.LASF199
 1405 0767 3A       		.sleb128 58
 1406 0768 0A       		.uleb128 0xa
 1407 0769 00000000 		.long	.LASF200
 1408 076d 3B       		.sleb128 59
 1409 076e 0A       		.uleb128 0xa
 1410 076f 00000000 		.long	.LASF201
 1411 0773 3C       		.sleb128 60
 1412 0774 0A       		.uleb128 0xa
 1413 0775 00000000 		.long	.LASF202
 1414 0779 3D       		.sleb128 61
 1415 077a 0A       		.uleb128 0xa
 1416 077b 00000000 		.long	.LASF203
 1417 077f 3E       		.sleb128 62
 1418 0780 0A       		.uleb128 0xa
 1419 0781 00000000 		.long	.LASF204
 1420 0785 3F       		.sleb128 63
 1421 0786 0A       		.uleb128 0xa
 1422 0787 00000000 		.long	.LASF205
 1423 078b C000     		.sleb128 64
 1424 078d 0A       		.uleb128 0xa
 1425 078e 00000000 		.long	.LASF206
 1426 0792 C100     		.sleb128 65
 1427 0794 0A       		.uleb128 0xa
 1428 0795 00000000 		.long	.LASF207
 1429 0799 C200     		.sleb128 66
 1430 079b 0A       		.uleb128 0xa
 1431 079c 00000000 		.long	.LASF208
 1432 07a0 C300     		.sleb128 67
 1433 07a2 0A       		.uleb128 0xa
 1434 07a3 00000000 		.long	.LASF209
 1435 07a7 C400     		.sleb128 68
 1436 07a9 00       		.byte	0x0
 1437 07aa 1A       		.uleb128 0x1a
 1438 07ab 00000000 		.long	.LASF210
 1439 07af 04       		.byte	0x4
 1440 07b0 07       		.byte	0x7
 1441 07b1 0A01     		.value	0x10a
 1442 07b3 A9080000 		.long	0x8a9
 1443 07b7 0A       		.uleb128 0xa
 1444 07b8 00000000 		.long	.LASF211
 1445 07bc 00       		.sleb128 0
 1446 07bd 0A       		.uleb128 0xa
 1447 07be 00000000 		.long	.LASF212
GAS LISTING /tmp/cc3yHVm6.s 			page 33


 1448 07c2 3D       		.sleb128 61
 1449 07c3 0A       		.uleb128 0xa
 1450 07c4 00000000 		.long	.LASF213
 1451 07c8 3E       		.sleb128 62
 1452 07c9 0A       		.uleb128 0xa
 1453 07ca 00000000 		.long	.LASF214
 1454 07ce 3F       		.sleb128 63
 1455 07cf 0A       		.uleb128 0xa
 1456 07d0 00000000 		.long	.LASF215
 1457 07d4 C000     		.sleb128 64
 1458 07d6 0A       		.uleb128 0xa
 1459 07d7 00000000 		.long	.LASF216
 1460 07db C100     		.sleb128 65
 1461 07dd 0A       		.uleb128 0xa
 1462 07de 00000000 		.long	.LASF217
 1463 07e2 C200     		.sleb128 66
 1464 07e4 0A       		.uleb128 0xa
 1465 07e5 00000000 		.long	.LASF218
 1466 07e9 C300     		.sleb128 67
 1467 07eb 0A       		.uleb128 0xa
 1468 07ec 00000000 		.long	.LASF219
 1469 07f0 C400     		.sleb128 68
 1470 07f2 0A       		.uleb128 0xa
 1471 07f3 00000000 		.long	.LASF220
 1472 07f7 C500     		.sleb128 69
 1473 07f9 0A       		.uleb128 0xa
 1474 07fa 00000000 		.long	.LASF221
 1475 07fe C600     		.sleb128 70
 1476 0800 0A       		.uleb128 0xa
 1477 0801 00000000 		.long	.LASF222
 1478 0805 C700     		.sleb128 71
 1479 0807 0A       		.uleb128 0xa
 1480 0808 00000000 		.long	.LASF223
 1481 080c C800     		.sleb128 72
 1482 080e 0A       		.uleb128 0xa
 1483 080f 00000000 		.long	.LASF224
 1484 0813 C900     		.sleb128 73
 1485 0815 0A       		.uleb128 0xa
 1486 0816 00000000 		.long	.LASF225
 1487 081a CA00     		.sleb128 74
 1488 081c 0A       		.uleb128 0xa
 1489 081d 00000000 		.long	.LASF226
 1490 0821 CB00     		.sleb128 75
 1491 0823 0A       		.uleb128 0xa
 1492 0824 00000000 		.long	.LASF227
 1493 0828 CC00     		.sleb128 76
 1494 082a 0A       		.uleb128 0xa
 1495 082b 00000000 		.long	.LASF228
 1496 082f CD00     		.sleb128 77
 1497 0831 0A       		.uleb128 0xa
 1498 0832 00000000 		.long	.LASF229
 1499 0836 CE00     		.sleb128 78
 1500 0838 0A       		.uleb128 0xa
 1501 0839 00000000 		.long	.LASF230
 1502 083d CF00     		.sleb128 79
 1503 083f 0A       		.uleb128 0xa
 1504 0840 00000000 		.long	.LASF231
GAS LISTING /tmp/cc3yHVm6.s 			page 34


 1505 0844 D000     		.sleb128 80
 1506 0846 0A       		.uleb128 0xa
 1507 0847 00000000 		.long	.LASF232
 1508 084b D100     		.sleb128 81
 1509 084d 0A       		.uleb128 0xa
 1510 084e 00000000 		.long	.LASF233
 1511 0852 D100     		.sleb128 81
 1512 0854 0A       		.uleb128 0xa
 1513 0855 00000000 		.long	.LASF234
 1514 0859 D200     		.sleb128 82
 1515 085b 0A       		.uleb128 0xa
 1516 085c 00000000 		.long	.LASF235
 1517 0860 D300     		.sleb128 83
 1518 0862 0A       		.uleb128 0xa
 1519 0863 00000000 		.long	.LASF236
 1520 0867 D400     		.sleb128 84
 1521 0869 0A       		.uleb128 0xa
 1522 086a 00000000 		.long	.LASF237
 1523 086e D500     		.sleb128 85
 1524 0870 0A       		.uleb128 0xa
 1525 0871 00000000 		.long	.LASF238
 1526 0875 D600     		.sleb128 86
 1527 0877 0A       		.uleb128 0xa
 1528 0878 00000000 		.long	.LASF239
 1529 087c D700     		.sleb128 87
 1530 087e 0A       		.uleb128 0xa
 1531 087f 00000000 		.long	.LASF240
 1532 0883 D800     		.sleb128 88
 1533 0885 0A       		.uleb128 0xa
 1534 0886 00000000 		.long	.LASF241
 1535 088a D900     		.sleb128 89
 1536 088c 0A       		.uleb128 0xa
 1537 088d 00000000 		.long	.LASF242
 1538 0891 DA00     		.sleb128 90
 1539 0893 0A       		.uleb128 0xa
 1540 0894 00000000 		.long	.LASF243
 1541 0898 DB00     		.sleb128 91
 1542 089a 0A       		.uleb128 0xa
 1543 089b 00000000 		.long	.LASF244
 1544 089f DC00     		.sleb128 92
 1545 08a1 0A       		.uleb128 0xa
 1546 08a2 00000000 		.long	.LASF245
 1547 08a6 DD00     		.sleb128 93
 1548 08a8 00       		.byte	0x0
 1549 08a9 1A       		.uleb128 0x1a
 1550 08aa 00000000 		.long	.LASF246
 1551 08ae 04       		.byte	0x4
 1552 08af 07       		.byte	0x7
 1553 08b0 3401     		.value	0x134
 1554 08b2 E9090000 		.long	0x9e9
 1555 08b6 0A       		.uleb128 0xa
 1556 08b7 00000000 		.long	.LASF247
 1557 08bb 00       		.sleb128 0
 1558 08bc 0A       		.uleb128 0xa
 1559 08bd 00000000 		.long	.LASF248
 1560 08c1 01       		.sleb128 1
 1561 08c2 0A       		.uleb128 0xa
GAS LISTING /tmp/cc3yHVm6.s 			page 35


 1562 08c3 00000000 		.long	.LASF249
 1563 08c7 02       		.sleb128 2
 1564 08c8 0A       		.uleb128 0xa
 1565 08c9 00000000 		.long	.LASF250
 1566 08cd 03       		.sleb128 3
 1567 08ce 0A       		.uleb128 0xa
 1568 08cf 00000000 		.long	.LASF251
 1569 08d3 04       		.sleb128 4
 1570 08d4 0A       		.uleb128 0xa
 1571 08d5 00000000 		.long	.LASF252
 1572 08d9 05       		.sleb128 5
 1573 08da 0A       		.uleb128 0xa
 1574 08db 00000000 		.long	.LASF253
 1575 08df 06       		.sleb128 6
 1576 08e0 0A       		.uleb128 0xa
 1577 08e1 00000000 		.long	.LASF254
 1578 08e5 07       		.sleb128 7
 1579 08e6 0A       		.uleb128 0xa
 1580 08e7 00000000 		.long	.LASF255
 1581 08eb 08       		.sleb128 8
 1582 08ec 0A       		.uleb128 0xa
 1583 08ed 00000000 		.long	.LASF256
 1584 08f1 09       		.sleb128 9
 1585 08f2 0A       		.uleb128 0xa
 1586 08f3 00000000 		.long	.LASF257
 1587 08f7 0A       		.sleb128 10
 1588 08f8 0A       		.uleb128 0xa
 1589 08f9 00000000 		.long	.LASF258
 1590 08fd 0B       		.sleb128 11
 1591 08fe 0A       		.uleb128 0xa
 1592 08ff 00000000 		.long	.LASF259
 1593 0903 0C       		.sleb128 12
 1594 0904 0A       		.uleb128 0xa
 1595 0905 00000000 		.long	.LASF260
 1596 0909 0D       		.sleb128 13
 1597 090a 0A       		.uleb128 0xa
 1598 090b 00000000 		.long	.LASF261
 1599 090f 0E       		.sleb128 14
 1600 0910 0A       		.uleb128 0xa
 1601 0911 00000000 		.long	.LASF262
 1602 0915 0F       		.sleb128 15
 1603 0916 0A       		.uleb128 0xa
 1604 0917 00000000 		.long	.LASF263
 1605 091b 10       		.sleb128 16
 1606 091c 0A       		.uleb128 0xa
 1607 091d 00000000 		.long	.LASF264
 1608 0921 11       		.sleb128 17
 1609 0922 0A       		.uleb128 0xa
 1610 0923 00000000 		.long	.LASF265
 1611 0927 12       		.sleb128 18
 1612 0928 0A       		.uleb128 0xa
 1613 0929 00000000 		.long	.LASF266
 1614 092d 13       		.sleb128 19
 1615 092e 0A       		.uleb128 0xa
 1616 092f 00000000 		.long	.LASF267
 1617 0933 14       		.sleb128 20
 1618 0934 0A       		.uleb128 0xa
GAS LISTING /tmp/cc3yHVm6.s 			page 36


 1619 0935 00000000 		.long	.LASF268
 1620 0939 15       		.sleb128 21
 1621 093a 0A       		.uleb128 0xa
 1622 093b 00000000 		.long	.LASF269
 1623 093f 16       		.sleb128 22
 1624 0940 0A       		.uleb128 0xa
 1625 0941 00000000 		.long	.LASF270
 1626 0945 17       		.sleb128 23
 1627 0946 0A       		.uleb128 0xa
 1628 0947 00000000 		.long	.LASF271
 1629 094b 18       		.sleb128 24
 1630 094c 0A       		.uleb128 0xa
 1631 094d 00000000 		.long	.LASF272
 1632 0951 19       		.sleb128 25
 1633 0952 0A       		.uleb128 0xa
 1634 0953 00000000 		.long	.LASF273
 1635 0957 1A       		.sleb128 26
 1636 0958 0A       		.uleb128 0xa
 1637 0959 00000000 		.long	.LASF274
 1638 095d 1B       		.sleb128 27
 1639 095e 0A       		.uleb128 0xa
 1640 095f 00000000 		.long	.LASF275
 1641 0963 1C       		.sleb128 28
 1642 0964 0A       		.uleb128 0xa
 1643 0965 00000000 		.long	.LASF276
 1644 0969 1D       		.sleb128 29
 1645 096a 0A       		.uleb128 0xa
 1646 096b 00000000 		.long	.LASF277
 1647 096f 1E       		.sleb128 30
 1648 0970 0A       		.uleb128 0xa
 1649 0971 00000000 		.long	.LASF278
 1650 0975 1F       		.sleb128 31
 1651 0976 0A       		.uleb128 0xa
 1652 0977 00000000 		.long	.LASF279
 1653 097b 20       		.sleb128 32
 1654 097c 0A       		.uleb128 0xa
 1655 097d 00000000 		.long	.LASF280
 1656 0981 21       		.sleb128 33
 1657 0982 0A       		.uleb128 0xa
 1658 0983 00000000 		.long	.LASF281
 1659 0987 22       		.sleb128 34
 1660 0988 0A       		.uleb128 0xa
 1661 0989 00000000 		.long	.LASF282
 1662 098d 23       		.sleb128 35
 1663 098e 0A       		.uleb128 0xa
 1664 098f 00000000 		.long	.LASF283
 1665 0993 24       		.sleb128 36
 1666 0994 0A       		.uleb128 0xa
 1667 0995 00000000 		.long	.LASF284
 1668 0999 25       		.sleb128 37
 1669 099a 0A       		.uleb128 0xa
 1670 099b 00000000 		.long	.LASF285
 1671 099f 26       		.sleb128 38
 1672 09a0 0A       		.uleb128 0xa
 1673 09a1 00000000 		.long	.LASF286
 1674 09a5 27       		.sleb128 39
 1675 09a6 0A       		.uleb128 0xa
GAS LISTING /tmp/cc3yHVm6.s 			page 37


 1676 09a7 00000000 		.long	.LASF287
 1677 09ab 28       		.sleb128 40
 1678 09ac 0A       		.uleb128 0xa
 1679 09ad 00000000 		.long	.LASF288
 1680 09b1 29       		.sleb128 41
 1681 09b2 0A       		.uleb128 0xa
 1682 09b3 00000000 		.long	.LASF289
 1683 09b7 29       		.sleb128 41
 1684 09b8 0A       		.uleb128 0xa
 1685 09b9 00000000 		.long	.LASF290
 1686 09bd 2A       		.sleb128 42
 1687 09be 0A       		.uleb128 0xa
 1688 09bf 00000000 		.long	.LASF291
 1689 09c3 2B       		.sleb128 43
 1690 09c4 0A       		.uleb128 0xa
 1691 09c5 00000000 		.long	.LASF292
 1692 09c9 2C       		.sleb128 44
 1693 09ca 0A       		.uleb128 0xa
 1694 09cb 00000000 		.long	.LASF293
 1695 09cf 2D       		.sleb128 45
 1696 09d0 0A       		.uleb128 0xa
 1697 09d1 00000000 		.long	.LASF294
 1698 09d5 2E       		.sleb128 46
 1699 09d6 0A       		.uleb128 0xa
 1700 09d7 00000000 		.long	.LASF295
 1701 09db 2F       		.sleb128 47
 1702 09dc 0A       		.uleb128 0xa
 1703 09dd 00000000 		.long	.LASF296
 1704 09e1 30       		.sleb128 48
 1705 09e2 0A       		.uleb128 0xa
 1706 09e3 00000000 		.long	.LASF297
 1707 09e7 31       		.sleb128 49
 1708 09e8 00       		.byte	0x0
 1709 09e9 1B       		.uleb128 0x1b
 1710 09ea 00000000 		.long	.LASF320
 1711 09ee 01       		.byte	0x1
 1712 09ef 48       		.byte	0x48
 1713 09f0 01       		.byte	0x1
 1714 09f1 00000000 		.quad	.LFB513
 1714      00000000 
 1715 09f9 00000000 		.quad	.LFE513
 1715      00000000 
 1716 0a01 00000000 		.long	.LLST0
 1717 0a05 180A0000 		.long	0xa18
 1718 0a09 1C       		.uleb128 0x1c
 1719 0a0a 00000000 		.long	.LASF300
 1720 0a0e 01       		.byte	0x1
 1721 0a0f 48       		.byte	0x48
 1722 0a10 82030000 		.long	0x382
 1723 0a14 02       		.byte	0x2
 1724 0a15 91       		.byte	0x91
 1725 0a16 68       		.sleb128 -24
 1726 0a17 00       		.byte	0x0
 1727 0a18 1D       		.uleb128 0x1d
 1728 0a19 00000000 		.long	.LASF298
 1729 0a1d 01       		.byte	0x1
 1730 0a1e 52       		.byte	0x52
GAS LISTING /tmp/cc3yHVm6.s 			page 38


 1731 0a1f 62000000 		.long	0x62
 1732 0a23 00000000 		.quad	.LFB514
 1732      00000000 
 1733 0a2b 00000000 		.quad	.LFE514
 1733      00000000 
 1734 0a33 00000000 		.long	.LLST1
 1735 0a37 1D       		.uleb128 0x1d
 1736 0a38 00000000 		.long	.LASF299
 1737 0a3c 01       		.byte	0x1
 1738 0a3d 60       		.byte	0x60
 1739 0a3e 62000000 		.long	0x62
 1740 0a42 00000000 		.quad	.LFB515
 1740      00000000 
 1741 0a4a 00000000 		.quad	.LFE515
 1741      00000000 
 1742 0a52 00000000 		.long	.LLST2
 1743 0a56 1E       		.uleb128 0x1e
 1744 0a57 00000000 		.long	.LASF304
 1745 0a5b 01       		.byte	0x1
 1746 0a5c 6C       		.byte	0x6c
 1747 0a5d 01       		.byte	0x1
 1748 0a5e 7B000000 		.long	0x7b
 1749 0a62 00000000 		.quad	.LFB516
 1749      00000000 
 1750 0a6a 00000000 		.quad	.LFE516
 1750      00000000 
 1751 0a72 00000000 		.long	.LLST3
 1752 0a76 A50A0000 		.long	0xaa5
 1753 0a7a 1C       		.uleb128 0x1c
 1754 0a7b 00000000 		.long	.LASF301
 1755 0a7f 01       		.byte	0x1
 1756 0a80 6C       		.byte	0x6c
 1757 0a81 86000000 		.long	0x86
 1758 0a85 02       		.byte	0x2
 1759 0a86 91       		.byte	0x91
 1760 0a87 68       		.sleb128 -24
 1761 0a88 1C       		.uleb128 0x1c
 1762 0a89 00000000 		.long	.LASF302
 1763 0a8d 01       		.byte	0x1
 1764 0a8e 6C       		.byte	0x6c
 1765 0a8f 8B000000 		.long	0x8b
 1766 0a93 02       		.byte	0x2
 1767 0a94 91       		.byte	0x91
 1768 0a95 60       		.sleb128 -32
 1769 0a96 1C       		.uleb128 0x1c
 1770 0a97 00000000 		.long	.LASF303
 1771 0a9b 01       		.byte	0x1
 1772 0a9c 6D       		.byte	0x6d
 1773 0a9d 62000000 		.long	0x62
 1774 0aa1 02       		.byte	0x2
 1775 0aa2 91       		.byte	0x91
 1776 0aa3 5C       		.sleb128 -36
 1777 0aa4 00       		.byte	0x0
 1778 0aa5 1E       		.uleb128 0x1e
 1779 0aa6 00000000 		.long	.LASF305
 1780 0aaa 01       		.byte	0x1
 1781 0aab 79       		.byte	0x79
GAS LISTING /tmp/cc3yHVm6.s 			page 39


 1782 0aac 01       		.byte	0x1
 1783 0aad 7B000000 		.long	0x7b
 1784 0ab1 00000000 		.quad	.LFB517
 1784      00000000 
 1785 0ab9 00000000 		.quad	.LFE517
 1785      00000000 
 1786 0ac1 00000000 		.long	.LLST4
 1787 0ac5 F40A0000 		.long	0xaf4
 1788 0ac9 1C       		.uleb128 0x1c
 1789 0aca 00000000 		.long	.LASF306
 1790 0ace 01       		.byte	0x1
 1791 0acf 79       		.byte	0x79
 1792 0ad0 86000000 		.long	0x86
 1793 0ad4 02       		.byte	0x2
 1794 0ad5 91       		.byte	0x91
 1795 0ad6 68       		.sleb128 -24
 1796 0ad7 1C       		.uleb128 0x1c
 1797 0ad8 00000000 		.long	.LASF302
 1798 0adc 01       		.byte	0x1
 1799 0add 7A       		.byte	0x7a
 1800 0ade 8B000000 		.long	0x8b
 1801 0ae2 02       		.byte	0x2
 1802 0ae3 91       		.byte	0x91
 1803 0ae4 60       		.sleb128 -32
 1804 0ae5 1C       		.uleb128 0x1c
 1805 0ae6 00000000 		.long	.LASF303
 1806 0aea 01       		.byte	0x1
 1807 0aeb 7B       		.byte	0x7b
 1808 0aec 62000000 		.long	0x62
 1809 0af0 02       		.byte	0x2
 1810 0af1 91       		.byte	0x91
 1811 0af2 5C       		.sleb128 -36
 1812 0af3 00       		.byte	0x0
 1813 0af4 1E       		.uleb128 0x1e
 1814 0af5 00000000 		.long	.LASF307
 1815 0af9 01       		.byte	0x1
 1816 0afa 89       		.byte	0x89
 1817 0afb 01       		.byte	0x1
 1818 0afc 63010000 		.long	0x163
 1819 0b00 00000000 		.quad	.LFB518
 1819      00000000 
 1820 0b08 00000000 		.quad	.LFE518
 1820      00000000 
 1821 0b10 00000000 		.long	.LLST5
 1822 0b14 350B0000 		.long	0xb35
 1823 0b18 1C       		.uleb128 0x1c
 1824 0b19 00000000 		.long	.LASF308
 1825 0b1d 01       		.byte	0x1
 1826 0b1e 89       		.byte	0x89
 1827 0b1f 63010000 		.long	0x163
 1828 0b23 02       		.byte	0x2
 1829 0b24 91       		.byte	0x91
 1830 0b25 60       		.sleb128 -32
 1831 0b26 1C       		.uleb128 0x1c
 1832 0b27 00000000 		.long	.LASF301
 1833 0b2b 01       		.byte	0x1
 1834 0b2c 8A       		.byte	0x8a
GAS LISTING /tmp/cc3yHVm6.s 			page 40


 1835 0b2d 1E010000 		.long	0x11e
 1836 0b31 02       		.byte	0x2
 1837 0b32 91       		.byte	0x91
 1838 0b33 58       		.sleb128 -40
 1839 0b34 00       		.byte	0x0
 1840 0b35 1E       		.uleb128 0x1e
 1841 0b36 00000000 		.long	.LASF309
 1842 0b3a 01       		.byte	0x1
 1843 0b3b 9E       		.byte	0x9e
 1844 0b3c 01       		.byte	0x1
 1845 0b3d 63010000 		.long	0x163
 1846 0b41 00000000 		.quad	.LFB519
 1846      00000000 
 1847 0b49 00000000 		.quad	.LFE519
 1847      00000000 
 1848 0b51 00000000 		.long	.LLST6
 1849 0b55 760B0000 		.long	0xb76
 1850 0b59 1C       		.uleb128 0x1c
 1851 0b5a 00000000 		.long	.LASF308
 1852 0b5e 01       		.byte	0x1
 1853 0b5f 9E       		.byte	0x9e
 1854 0b60 63010000 		.long	0x163
 1855 0b64 02       		.byte	0x2
 1856 0b65 91       		.byte	0x91
 1857 0b66 60       		.sleb128 -32
 1858 0b67 1C       		.uleb128 0x1c
 1859 0b68 00000000 		.long	.LASF306
 1860 0b6c 01       		.byte	0x1
 1861 0b6d 9F       		.byte	0x9f
 1862 0b6e 1E010000 		.long	0x11e
 1863 0b72 02       		.byte	0x2
 1864 0b73 91       		.byte	0x91
 1865 0b74 58       		.sleb128 -40
 1866 0b75 00       		.byte	0x0
 1867 0b76 1D       		.uleb128 0x1d
 1868 0b77 00000000 		.long	.LASF310
 1869 0b7b 01       		.byte	0x1
 1870 0b7c B3       		.byte	0xb3
 1871 0b7d 950B0000 		.long	0xb95
 1872 0b81 00000000 		.quad	.LFB520
 1872      00000000 
 1873 0b89 00000000 		.quad	.LFE520
 1873      00000000 
 1874 0b91 00000000 		.long	.LLST7
 1875 0b95 02       		.uleb128 0x2
 1876 0b96 01       		.byte	0x1
 1877 0b97 02       		.byte	0x2
 1878 0b98 00000000 		.long	.LASF311
 1879 0b9c 1F       		.uleb128 0x1f
 1880 0b9d 01       		.byte	0x1
 1881 0b9e 00000000 		.long	.LASF321
 1882 0ba2 01       		.byte	0x1
 1883 0ba3 E2       		.byte	0xe2
 1884 0ba4 01       		.byte	0x1
 1885 0ba5 7B000000 		.long	0x7b
 1886 0ba9 00000000 		.quad	.LFB521
 1886      00000000 
GAS LISTING /tmp/cc3yHVm6.s 			page 41


 1887 0bb1 00000000 		.quad	.LFE521
 1887      00000000 
 1888 0bb9 00000000 		.long	.LLST8
 1889 0bbd 050C0000 		.long	0xc05
 1890 0bc1 1C       		.uleb128 0x1c
 1891 0bc2 00000000 		.long	.LASF312
 1892 0bc6 01       		.byte	0x1
 1893 0bc7 E2       		.byte	0xe2
 1894 0bc8 050C0000 		.long	0xc05
 1895 0bcc 02       		.byte	0x2
 1896 0bcd 91       		.byte	0x91
 1897 0bce 58       		.sleb128 -40
 1898 0bcf 20       		.uleb128 0x20
 1899 0bd0 726300   		.string	"rc"
 1900 0bd3 01       		.byte	0x1
 1901 0bd4 E4       		.byte	0xe4
 1902 0bd5 7B000000 		.long	0x7b
 1903 0bd9 02       		.byte	0x2
 1904 0bda 91       		.byte	0x91
 1905 0bdb 6C       		.sleb128 -20
 1906 0bdc 21       		.uleb128 0x21
 1907 0bdd 00000000 		.long	.LASF313
 1908 0be1 210C0000 		.long	0xc21
 1909 0be5 01       		.byte	0x1
 1910 0be6 09       		.byte	0x9
 1911 0be7 03       		.byte	0x3
 1912 0be8 00000000 		.quad	__PRETTY_FUNCTION__.6557
 1912      00000000 
 1913 0bf0 21       		.uleb128 0x21
 1914 0bf1 00000000 		.long	.LASF314
 1915 0bf5 260C0000 		.long	0xc26
 1916 0bf9 01       		.byte	0x1
 1917 0bfa 09       		.byte	0x9
 1918 0bfb 03       		.byte	0x3
 1919 0bfc 00000000 		.quad	__func__.6558
 1919      00000000 
 1920 0c04 00       		.byte	0x0
 1921 0c05 07       		.uleb128 0x7
 1922 0c06 08       		.byte	0x8
 1923 0c07 0B0C0000 		.long	0xc0b
 1924 0c0b 07       		.uleb128 0x7
 1925 0c0c 08       		.byte	0x8
 1926 0c0d AE030000 		.long	0x3ae
 1927 0c11 22       		.uleb128 0x22
 1928 0c12 96000000 		.long	0x96
 1929 0c16 210C0000 		.long	0xc21
 1930 0c1a 0D       		.uleb128 0xd
 1931 0c1b 88000000 		.long	0x88
 1932 0c1f 17       		.byte	0x17
 1933 0c20 00       		.byte	0x0
 1934 0c21 08       		.uleb128 0x8
 1935 0c22 110C0000 		.long	0xc11
 1936 0c26 08       		.uleb128 0x8
 1937 0c27 110C0000 		.long	0xc11
 1938 0c2b 22       		.uleb128 0x22
 1939 0c2c 96000000 		.long	0x96
 1940 0c30 3B0C0000 		.long	0xc3b
GAS LISTING /tmp/cc3yHVm6.s 			page 42


 1941 0c34 0D       		.uleb128 0xd
 1942 0c35 88000000 		.long	0x88
 1943 0c39 09       		.byte	0x9
 1944 0c3a 00       		.byte	0x0
 1945 0c3b 23       		.uleb128 0x23
 1946 0c3c 00000000 		.long	.LASF315
 1947 0c40 01       		.byte	0x1
 1948 0c41 3C       		.byte	0x3c
 1949 0c42 500C0000 		.long	0xc50
 1950 0c46 09       		.byte	0x9
 1951 0c47 03       		.byte	0x3
 1952 0c48 00000000 		.quad	KNullBlockCipherVecaes_ncbi_name
 1952      00000000 
 1953 0c50 08       		.uleb128 0x8
 1954 0c51 2B0C0000 		.long	0xc2b
 1955 0c55 23       		.uleb128 0x23
 1956 0c56 00000000 		.long	.LASF316
 1957 0c5a 01       		.byte	0x1
 1958 0c5b CE       		.byte	0xce
 1959 0c5c 6A0C0000 		.long	0xc6a
 1960 0c60 09       		.byte	0x9
 1961 0c61 03       		.byte	0x3
 1962 0c62 00000000 		.quad	KNullBlockCipherVec_vt_
 1962      00000000 
 1963 0c6a 08       		.uleb128 0x8
 1964 0c6b C1020000 		.long	0x2c1
 1965 0c6f 00       		.byte	0x0
 1966              		.section	.debug_abbrev
 1967 0000 01       		.uleb128 0x1
 1968 0001 11       		.uleb128 0x11
 1969 0002 01       		.byte	0x1
 1970 0003 25       		.uleb128 0x25
 1971 0004 0E       		.uleb128 0xe
 1972 0005 13       		.uleb128 0x13
 1973 0006 0B       		.uleb128 0xb
 1974 0007 03       		.uleb128 0x3
 1975 0008 0E       		.uleb128 0xe
 1976 0009 1B       		.uleb128 0x1b
 1977 000a 0E       		.uleb128 0xe
 1978 000b 11       		.uleb128 0x11
 1979 000c 01       		.uleb128 0x1
 1980 000d 12       		.uleb128 0x12
 1981 000e 01       		.uleb128 0x1
 1982 000f 10       		.uleb128 0x10
 1983 0010 06       		.uleb128 0x6
 1984 0011 00       		.byte	0x0
 1985 0012 00       		.byte	0x0
 1986 0013 02       		.uleb128 0x2
 1987 0014 24       		.uleb128 0x24
 1988 0015 00       		.byte	0x0
 1989 0016 0B       		.uleb128 0xb
 1990 0017 0B       		.uleb128 0xb
 1991 0018 3E       		.uleb128 0x3e
 1992 0019 0B       		.uleb128 0xb
 1993 001a 03       		.uleb128 0x3
 1994 001b 0E       		.uleb128 0xe
 1995 001c 00       		.byte	0x0
GAS LISTING /tmp/cc3yHVm6.s 			page 43


 1996 001d 00       		.byte	0x0
 1997 001e 03       		.uleb128 0x3
 1998 001f 24       		.uleb128 0x24
 1999 0020 00       		.byte	0x0
 2000 0021 0B       		.uleb128 0xb
 2001 0022 0B       		.uleb128 0xb
 2002 0023 3E       		.uleb128 0x3e
 2003 0024 0B       		.uleb128 0xb
 2004 0025 03       		.uleb128 0x3
 2005 0026 08       		.uleb128 0x8
 2006 0027 00       		.byte	0x0
 2007 0028 00       		.byte	0x0
 2008 0029 04       		.uleb128 0x4
 2009 002a 16       		.uleb128 0x16
 2010 002b 00       		.byte	0x0
 2011 002c 03       		.uleb128 0x3
 2012 002d 0E       		.uleb128 0xe
 2013 002e 3A       		.uleb128 0x3a
 2014 002f 0B       		.uleb128 0xb
 2015 0030 3B       		.uleb128 0x3b
 2016 0031 0B       		.uleb128 0xb
 2017 0032 49       		.uleb128 0x49
 2018 0033 13       		.uleb128 0x13
 2019 0034 00       		.byte	0x0
 2020 0035 00       		.byte	0x0
 2021 0036 05       		.uleb128 0x5
 2022 0037 0F       		.uleb128 0xf
 2023 0038 00       		.byte	0x0
 2024 0039 0B       		.uleb128 0xb
 2025 003a 0B       		.uleb128 0xb
 2026 003b 00       		.byte	0x0
 2027 003c 00       		.byte	0x0
 2028 003d 06       		.uleb128 0x6
 2029 003e 24       		.uleb128 0x24
 2030 003f 00       		.byte	0x0
 2031 0040 0B       		.uleb128 0xb
 2032 0041 0B       		.uleb128 0xb
 2033 0042 3E       		.uleb128 0x3e
 2034 0043 0B       		.uleb128 0xb
 2035 0044 00       		.byte	0x0
 2036 0045 00       		.byte	0x0
 2037 0046 07       		.uleb128 0x7
 2038 0047 0F       		.uleb128 0xf
 2039 0048 00       		.byte	0x0
 2040 0049 0B       		.uleb128 0xb
 2041 004a 0B       		.uleb128 0xb
 2042 004b 49       		.uleb128 0x49
 2043 004c 13       		.uleb128 0x13
 2044 004d 00       		.byte	0x0
 2045 004e 00       		.byte	0x0
 2046 004f 08       		.uleb128 0x8
 2047 0050 26       		.uleb128 0x26
 2048 0051 00       		.byte	0x0
 2049 0052 49       		.uleb128 0x49
 2050 0053 13       		.uleb128 0x13
 2051 0054 00       		.byte	0x0
 2052 0055 00       		.byte	0x0
GAS LISTING /tmp/cc3yHVm6.s 			page 44


 2053 0056 09       		.uleb128 0x9
 2054 0057 04       		.uleb128 0x4
 2055 0058 01       		.byte	0x1
 2056 0059 0B       		.uleb128 0xb
 2057 005a 0B       		.uleb128 0xb
 2058 005b 3A       		.uleb128 0x3a
 2059 005c 0B       		.uleb128 0xb
 2060 005d 3B       		.uleb128 0x3b
 2061 005e 0B       		.uleb128 0xb
 2062 005f 01       		.uleb128 0x1
 2063 0060 13       		.uleb128 0x13
 2064 0061 00       		.byte	0x0
 2065 0062 00       		.byte	0x0
 2066 0063 0A       		.uleb128 0xa
 2067 0064 28       		.uleb128 0x28
 2068 0065 00       		.byte	0x0
 2069 0066 03       		.uleb128 0x3
 2070 0067 0E       		.uleb128 0xe
 2071 0068 1C       		.uleb128 0x1c
 2072 0069 0D       		.uleb128 0xd
 2073 006a 00       		.byte	0x0
 2074 006b 00       		.byte	0x0
 2075 006c 0B       		.uleb128 0xb
 2076 006d 26       		.uleb128 0x26
 2077 006e 00       		.byte	0x0
 2078 006f 00       		.byte	0x0
 2079 0070 00       		.byte	0x0
 2080 0071 0C       		.uleb128 0xc
 2081 0072 01       		.uleb128 0x1
 2082 0073 01       		.byte	0x1
 2083 0074 8742     		.uleb128 0x2107
 2084 0076 0C       		.uleb128 0xc
 2085 0077 49       		.uleb128 0x49
 2086 0078 13       		.uleb128 0x13
 2087 0079 01       		.uleb128 0x1
 2088 007a 13       		.uleb128 0x13
 2089 007b 00       		.byte	0x0
 2090 007c 00       		.byte	0x0
 2091 007d 0D       		.uleb128 0xd
 2092 007e 21       		.uleb128 0x21
 2093 007f 00       		.byte	0x0
 2094 0080 49       		.uleb128 0x49
 2095 0081 13       		.uleb128 0x13
 2096 0082 2F       		.uleb128 0x2f
 2097 0083 0B       		.uleb128 0xb
 2098 0084 00       		.byte	0x0
 2099 0085 00       		.byte	0x0
 2100 0086 0E       		.uleb128 0xe
 2101 0087 13       		.uleb128 0x13
 2102 0088 01       		.byte	0x1
 2103 0089 03       		.uleb128 0x3
 2104 008a 0E       		.uleb128 0xe
 2105 008b 0B       		.uleb128 0xb
 2106 008c 0B       		.uleb128 0xb
 2107 008d 3A       		.uleb128 0x3a
 2108 008e 0B       		.uleb128 0xb
 2109 008f 3B       		.uleb128 0x3b
GAS LISTING /tmp/cc3yHVm6.s 			page 45


 2110 0090 0B       		.uleb128 0xb
 2111 0091 01       		.uleb128 0x1
 2112 0092 13       		.uleb128 0x13
 2113 0093 00       		.byte	0x0
 2114 0094 00       		.byte	0x0
 2115 0095 0F       		.uleb128 0xf
 2116 0096 0D       		.uleb128 0xd
 2117 0097 00       		.byte	0x0
 2118 0098 03       		.uleb128 0x3
 2119 0099 08       		.uleb128 0x8
 2120 009a 3A       		.uleb128 0x3a
 2121 009b 0B       		.uleb128 0xb
 2122 009c 3B       		.uleb128 0x3b
 2123 009d 0B       		.uleb128 0xb
 2124 009e 49       		.uleb128 0x49
 2125 009f 13       		.uleb128 0x13
 2126 00a0 38       		.uleb128 0x38
 2127 00a1 0A       		.uleb128 0xa
 2128 00a2 00       		.byte	0x0
 2129 00a3 00       		.byte	0x0
 2130 00a4 10       		.uleb128 0x10
 2131 00a5 0D       		.uleb128 0xd
 2132 00a6 00       		.byte	0x0
 2133 00a7 03       		.uleb128 0x3
 2134 00a8 0E       		.uleb128 0xe
 2135 00a9 3A       		.uleb128 0x3a
 2136 00aa 0B       		.uleb128 0xb
 2137 00ab 3B       		.uleb128 0x3b
 2138 00ac 0B       		.uleb128 0xb
 2139 00ad 49       		.uleb128 0x49
 2140 00ae 13       		.uleb128 0x13
 2141 00af 38       		.uleb128 0x38
 2142 00b0 0A       		.uleb128 0xa
 2143 00b1 00       		.byte	0x0
 2144 00b2 00       		.byte	0x0
 2145 00b3 11       		.uleb128 0x11
 2146 00b4 17       		.uleb128 0x17
 2147 00b5 01       		.byte	0x1
 2148 00b6 03       		.uleb128 0x3
 2149 00b7 0E       		.uleb128 0xe
 2150 00b8 0B       		.uleb128 0xb
 2151 00b9 0B       		.uleb128 0xb
 2152 00ba 3A       		.uleb128 0x3a
 2153 00bb 0B       		.uleb128 0xb
 2154 00bc 3B       		.uleb128 0x3b
 2155 00bd 0B       		.uleb128 0xb
 2156 00be 01       		.uleb128 0x1
 2157 00bf 13       		.uleb128 0x13
 2158 00c0 00       		.byte	0x0
 2159 00c1 00       		.byte	0x0
 2160 00c2 12       		.uleb128 0x12
 2161 00c3 0D       		.uleb128 0xd
 2162 00c4 00       		.byte	0x0
 2163 00c5 03       		.uleb128 0x3
 2164 00c6 0E       		.uleb128 0xe
 2165 00c7 3A       		.uleb128 0x3a
 2166 00c8 0B       		.uleb128 0xb
GAS LISTING /tmp/cc3yHVm6.s 			page 46


 2167 00c9 3B       		.uleb128 0x3b
 2168 00ca 0B       		.uleb128 0xb
 2169 00cb 49       		.uleb128 0x49
 2170 00cc 13       		.uleb128 0x13
 2171 00cd 00       		.byte	0x0
 2172 00ce 00       		.byte	0x0
 2173 00cf 13       		.uleb128 0x13
 2174 00d0 0D       		.uleb128 0xd
 2175 00d1 00       		.byte	0x0
 2176 00d2 03       		.uleb128 0x3
 2177 00d3 08       		.uleb128 0x8
 2178 00d4 3A       		.uleb128 0x3a
 2179 00d5 0B       		.uleb128 0xb
 2180 00d6 3B       		.uleb128 0x3b
 2181 00d7 0B       		.uleb128 0xb
 2182 00d8 49       		.uleb128 0x49
 2183 00d9 13       		.uleb128 0x13
 2184 00da 00       		.byte	0x0
 2185 00db 00       		.byte	0x0
 2186 00dc 14       		.uleb128 0x14
 2187 00dd 15       		.uleb128 0x15
 2188 00de 01       		.byte	0x1
 2189 00df 27       		.uleb128 0x27
 2190 00e0 0C       		.uleb128 0xc
 2191 00e1 01       		.uleb128 0x1
 2192 00e2 13       		.uleb128 0x13
 2193 00e3 00       		.byte	0x0
 2194 00e4 00       		.byte	0x0
 2195 00e5 15       		.uleb128 0x15
 2196 00e6 05       		.uleb128 0x5
 2197 00e7 00       		.byte	0x0
 2198 00e8 49       		.uleb128 0x49
 2199 00e9 13       		.uleb128 0x13
 2200 00ea 00       		.byte	0x0
 2201 00eb 00       		.byte	0x0
 2202 00ec 16       		.uleb128 0x16
 2203 00ed 15       		.uleb128 0x15
 2204 00ee 01       		.byte	0x1
 2205 00ef 49       		.uleb128 0x49
 2206 00f0 13       		.uleb128 0x13
 2207 00f1 01       		.uleb128 0x1
 2208 00f2 13       		.uleb128 0x13
 2209 00f3 00       		.byte	0x0
 2210 00f4 00       		.byte	0x0
 2211 00f5 17       		.uleb128 0x17
 2212 00f6 18       		.uleb128 0x18
 2213 00f7 00       		.byte	0x0
 2214 00f8 00       		.byte	0x0
 2215 00f9 00       		.byte	0x0
 2216 00fa 18       		.uleb128 0x18
 2217 00fb 15       		.uleb128 0x15
 2218 00fc 01       		.byte	0x1
 2219 00fd 27       		.uleb128 0x27
 2220 00fe 0C       		.uleb128 0xc
 2221 00ff 49       		.uleb128 0x49
 2222 0100 13       		.uleb128 0x13
 2223 0101 01       		.uleb128 0x1
GAS LISTING /tmp/cc3yHVm6.s 			page 47


 2224 0102 13       		.uleb128 0x13
 2225 0103 00       		.byte	0x0
 2226 0104 00       		.byte	0x0
 2227 0105 19       		.uleb128 0x19
 2228 0106 04       		.uleb128 0x4
 2229 0107 01       		.byte	0x1
 2230 0108 03       		.uleb128 0x3
 2231 0109 0E       		.uleb128 0xe
 2232 010a 0B       		.uleb128 0xb
 2233 010b 0B       		.uleb128 0xb
 2234 010c 3A       		.uleb128 0x3a
 2235 010d 0B       		.uleb128 0xb
 2236 010e 3B       		.uleb128 0x3b
 2237 010f 0B       		.uleb128 0xb
 2238 0110 01       		.uleb128 0x1
 2239 0111 13       		.uleb128 0x13
 2240 0112 00       		.byte	0x0
 2241 0113 00       		.byte	0x0
 2242 0114 1A       		.uleb128 0x1a
 2243 0115 04       		.uleb128 0x4
 2244 0116 01       		.byte	0x1
 2245 0117 03       		.uleb128 0x3
 2246 0118 0E       		.uleb128 0xe
 2247 0119 0B       		.uleb128 0xb
 2248 011a 0B       		.uleb128 0xb
 2249 011b 3A       		.uleb128 0x3a
 2250 011c 0B       		.uleb128 0xb
 2251 011d 3B       		.uleb128 0x3b
 2252 011e 05       		.uleb128 0x5
 2253 011f 01       		.uleb128 0x1
 2254 0120 13       		.uleb128 0x13
 2255 0121 00       		.byte	0x0
 2256 0122 00       		.byte	0x0
 2257 0123 1B       		.uleb128 0x1b
 2258 0124 2E       		.uleb128 0x2e
 2259 0125 01       		.byte	0x1
 2260 0126 03       		.uleb128 0x3
 2261 0127 0E       		.uleb128 0xe
 2262 0128 3A       		.uleb128 0x3a
 2263 0129 0B       		.uleb128 0xb
 2264 012a 3B       		.uleb128 0x3b
 2265 012b 0B       		.uleb128 0xb
 2266 012c 27       		.uleb128 0x27
 2267 012d 0C       		.uleb128 0xc
 2268 012e 11       		.uleb128 0x11
 2269 012f 01       		.uleb128 0x1
 2270 0130 12       		.uleb128 0x12
 2271 0131 01       		.uleb128 0x1
 2272 0132 40       		.uleb128 0x40
 2273 0133 06       		.uleb128 0x6
 2274 0134 01       		.uleb128 0x1
 2275 0135 13       		.uleb128 0x13
 2276 0136 00       		.byte	0x0
 2277 0137 00       		.byte	0x0
 2278 0138 1C       		.uleb128 0x1c
 2279 0139 05       		.uleb128 0x5
 2280 013a 00       		.byte	0x0
GAS LISTING /tmp/cc3yHVm6.s 			page 48


 2281 013b 03       		.uleb128 0x3
 2282 013c 0E       		.uleb128 0xe
 2283 013d 3A       		.uleb128 0x3a
 2284 013e 0B       		.uleb128 0xb
 2285 013f 3B       		.uleb128 0x3b
 2286 0140 0B       		.uleb128 0xb
 2287 0141 49       		.uleb128 0x49
 2288 0142 13       		.uleb128 0x13
 2289 0143 02       		.uleb128 0x2
 2290 0144 0A       		.uleb128 0xa
 2291 0145 00       		.byte	0x0
 2292 0146 00       		.byte	0x0
 2293 0147 1D       		.uleb128 0x1d
 2294 0148 2E       		.uleb128 0x2e
 2295 0149 00       		.byte	0x0
 2296 014a 03       		.uleb128 0x3
 2297 014b 0E       		.uleb128 0xe
 2298 014c 3A       		.uleb128 0x3a
 2299 014d 0B       		.uleb128 0xb
 2300 014e 3B       		.uleb128 0x3b
 2301 014f 0B       		.uleb128 0xb
 2302 0150 49       		.uleb128 0x49
 2303 0151 13       		.uleb128 0x13
 2304 0152 11       		.uleb128 0x11
 2305 0153 01       		.uleb128 0x1
 2306 0154 12       		.uleb128 0x12
 2307 0155 01       		.uleb128 0x1
 2308 0156 40       		.uleb128 0x40
 2309 0157 06       		.uleb128 0x6
 2310 0158 00       		.byte	0x0
 2311 0159 00       		.byte	0x0
 2312 015a 1E       		.uleb128 0x1e
 2313 015b 2E       		.uleb128 0x2e
 2314 015c 01       		.byte	0x1
 2315 015d 03       		.uleb128 0x3
 2316 015e 0E       		.uleb128 0xe
 2317 015f 3A       		.uleb128 0x3a
 2318 0160 0B       		.uleb128 0xb
 2319 0161 3B       		.uleb128 0x3b
 2320 0162 0B       		.uleb128 0xb
 2321 0163 27       		.uleb128 0x27
 2322 0164 0C       		.uleb128 0xc
 2323 0165 49       		.uleb128 0x49
 2324 0166 13       		.uleb128 0x13
 2325 0167 11       		.uleb128 0x11
 2326 0168 01       		.uleb128 0x1
 2327 0169 12       		.uleb128 0x12
 2328 016a 01       		.uleb128 0x1
 2329 016b 40       		.uleb128 0x40
 2330 016c 06       		.uleb128 0x6
 2331 016d 01       		.uleb128 0x1
 2332 016e 13       		.uleb128 0x13
 2333 016f 00       		.byte	0x0
 2334 0170 00       		.byte	0x0
 2335 0171 1F       		.uleb128 0x1f
 2336 0172 2E       		.uleb128 0x2e
 2337 0173 01       		.byte	0x1
GAS LISTING /tmp/cc3yHVm6.s 			page 49


 2338 0174 3F       		.uleb128 0x3f
 2339 0175 0C       		.uleb128 0xc
 2340 0176 03       		.uleb128 0x3
 2341 0177 0E       		.uleb128 0xe
 2342 0178 3A       		.uleb128 0x3a
 2343 0179 0B       		.uleb128 0xb
 2344 017a 3B       		.uleb128 0x3b
 2345 017b 0B       		.uleb128 0xb
 2346 017c 27       		.uleb128 0x27
 2347 017d 0C       		.uleb128 0xc
 2348 017e 49       		.uleb128 0x49
 2349 017f 13       		.uleb128 0x13
 2350 0180 11       		.uleb128 0x11
 2351 0181 01       		.uleb128 0x1
 2352 0182 12       		.uleb128 0x12
 2353 0183 01       		.uleb128 0x1
 2354 0184 40       		.uleb128 0x40
 2355 0185 06       		.uleb128 0x6
 2356 0186 01       		.uleb128 0x1
 2357 0187 13       		.uleb128 0x13
 2358 0188 00       		.byte	0x0
 2359 0189 00       		.byte	0x0
 2360 018a 20       		.uleb128 0x20
 2361 018b 34       		.uleb128 0x34
 2362 018c 00       		.byte	0x0
 2363 018d 03       		.uleb128 0x3
 2364 018e 08       		.uleb128 0x8
 2365 018f 3A       		.uleb128 0x3a
 2366 0190 0B       		.uleb128 0xb
 2367 0191 3B       		.uleb128 0x3b
 2368 0192 0B       		.uleb128 0xb
 2369 0193 49       		.uleb128 0x49
 2370 0194 13       		.uleb128 0x13
 2371 0195 02       		.uleb128 0x2
 2372 0196 0A       		.uleb128 0xa
 2373 0197 00       		.byte	0x0
 2374 0198 00       		.byte	0x0
 2375 0199 21       		.uleb128 0x21
 2376 019a 34       		.uleb128 0x34
 2377 019b 00       		.byte	0x0
 2378 019c 03       		.uleb128 0x3
 2379 019d 0E       		.uleb128 0xe
 2380 019e 49       		.uleb128 0x49
 2381 019f 13       		.uleb128 0x13
 2382 01a0 34       		.uleb128 0x34
 2383 01a1 0C       		.uleb128 0xc
 2384 01a2 02       		.uleb128 0x2
 2385 01a3 0A       		.uleb128 0xa
 2386 01a4 00       		.byte	0x0
 2387 01a5 00       		.byte	0x0
 2388 01a6 22       		.uleb128 0x22
 2389 01a7 01       		.uleb128 0x1
 2390 01a8 01       		.byte	0x1
 2391 01a9 49       		.uleb128 0x49
 2392 01aa 13       		.uleb128 0x13
 2393 01ab 01       		.uleb128 0x1
 2394 01ac 13       		.uleb128 0x13
GAS LISTING /tmp/cc3yHVm6.s 			page 50


 2395 01ad 00       		.byte	0x0
 2396 01ae 00       		.byte	0x0
 2397 01af 23       		.uleb128 0x23
 2398 01b0 34       		.uleb128 0x34
 2399 01b1 00       		.byte	0x0
 2400 01b2 03       		.uleb128 0x3
 2401 01b3 0E       		.uleb128 0xe
 2402 01b4 3A       		.uleb128 0x3a
 2403 01b5 0B       		.uleb128 0xb
 2404 01b6 3B       		.uleb128 0x3b
 2405 01b7 0B       		.uleb128 0xb
 2406 01b8 49       		.uleb128 0x49
 2407 01b9 13       		.uleb128 0x13
 2408 01ba 02       		.uleb128 0x2
 2409 01bb 0A       		.uleb128 0xa
 2410 01bc 00       		.byte	0x0
 2411 01bd 00       		.byte	0x0
 2412 01be 00       		.byte	0x0
 2413              		.section	.debug_pubnames,"",@progbits
 2414 0000 2A000000 		.long	0x2a
 2415 0004 0200     		.value	0x2
 2416 0006 00000000 		.long	.Ldebug_info0
 2417 000a 700C0000 		.long	0xc70
 2418 000e 9C0B0000 		.long	0xb9c
 2419 0012 4B4E756C 		.string	"KNullBlockCipherVecMake"
 2419      6C426C6F 
 2419      636B4369 
 2419      70686572 
 2419      5665634D 
 2420 002a 00000000 		.long	0x0
 2421              		.section	.debug_aranges,"",@progbits
 2422 0000 2C000000 		.long	0x2c
 2423 0004 0200     		.value	0x2
 2424 0006 00000000 		.long	.Ldebug_info0
 2425 000a 08       		.byte	0x8
 2426 000b 00       		.byte	0x0
 2427 000c 0000     		.value	0x0
 2428 000e 0000     		.value	0x0
 2429 0010 00000000 		.quad	.Ltext0
 2429      00000000 
 2430 0018 0C010000 		.quad	.Letext0-.Ltext0
 2430      00000000 
 2431 0020 00000000 		.quad	0x0
 2431      00000000 
 2432 0028 00000000 		.quad	0x0
 2432      00000000 
 2433              		.section	.debug_str,"MS",@progbits,1
 2434              	.LASF267:
 2435 0000 7263496E 		.string	"rcInsufficient"
 2435      73756666 
 2435      69636965 
 2435      6E7400
 2436              	.LASF284:
 2437 000f 72634475 		.string	"rcDuplicate"
 2437      706C6963 
 2437      61746500 
 2438              	.LASF87:
GAS LISTING /tmp/cc3yHVm6.s 			page 51


 2439 001b 7263436F 		.string	"rcCondition"
 2439      6E646974 
 2439      696F6E00 
 2440              	.LASF201:
 2441 0027 7263456E 		.string	"rcEncrypting"
 2441      63727970 
 2441      74696E67 
 2441      00
 2442              	.LASF160:
 2443 0034 72634F70 		.string	"rcOpening"
 2443      656E696E 
 2443      6700
 2444              	.LASF168:
 2445 003e 72635065 		.string	"rcPersisting"
 2445      72736973 
 2445      74696E67 
 2445      00
 2446              	.LASF206:
 2447 004b 72635365 		.string	"rcSending"
 2447      6E64696E 
 2447      6700
 2448              	.LASF200:
 2449 0055 72634170 		.string	"rcAppending"
 2449      70656E64 
 2449      696E6700 
 2450              	.LASF186:
 2451 0061 72635369 		.string	"rcSignaling"
 2451      676E616C 
 2451      696E6700 
 2452              	.LASF13:
 2453 006d 4442475F 		.string	"DBG_BLAST"
 2453      424C4153 
 2453      5400
 2454              	.LASF242:
 2455 0077 72635369 		.string	"rcSignalSet"
 2455      676E616C 
 2455      53657400 
 2456              	.LASF188:
 2457 0083 72634174 		.string	"rcAttaching"
 2457      74616368 
 2457      696E6700 
 2458              	.LASF120:
 2459 008f 72635461 		.string	"rcTable"
 2459      626C6500 
 2460              	.LASF84:
 2461 0097 72634275 		.string	"rcBuffer"
 2461      66666572 
 2461      00
 2462              	.LASF216:
 2463 00a0 72634D65 		.string	"rcMemory"
 2463      6D6F7279 
 2463      00
 2464              	.LASF149:
 2465 00a9 72634C6F 		.string	"rcLocking"
 2465      636B696E 
 2465      6700
 2466              	.LASF184:
GAS LISTING /tmp/cc3yHVm6.s 			page 52


 2467 00b3 72635061 		.string	"rcParsing"
 2467      7273696E 
 2467      6700
 2468              	.LASF213:
 2469 00bd 72635365 		.string	"rcSelf"
 2469      6C6600
 2470              	.LASF106:
 2471 00c4 72634D65 		.string	"rcMetadata"
 2471      74616461 
 2471      746100
 2472              	.LASF229:
 2473 00cf 72634172 		.string	"rcArcHardLink"
 2473      63486172 
 2473      644C696E 
 2473      6B00
 2474              	.LASF55:
 2475 00dd 7263436F 		.string	"rcCont"
 2475      6E7400
 2476              	.LASF237:
 2477 00e4 72634368 		.string	"rcChecksum"
 2477      65636B73 
 2477      756D00
 2478              	.LASF314:
 2479 00ef 5F5F6675 		.string	"__func__"
 2479      6E635F5F 
 2479      00
 2480              	.LASF281:
 2481 00f8 7263546F 		.string	"rcTooShort"
 2481      6F53686F 
 2481      727400
 2482              	.LASF111:
 2483 0103 72635061 		.string	"rcPagemap"
 2483      67656D61 
 2483      7000
 2484              	.LASF63:
 2485 010d 72634170 		.string	"rcApp"
 2485      7000
 2486              	.LASF94:
 2487 0113 72634669 		.string	"rcFileDesc"
 2487      6C654465 
 2487      736300
 2488              	.LASF233:
 2489 011e 72634974 		.string	"rcItem"
 2489      656D00
 2490              	.LASF125:
 2491 0125 72635472 		.string	"rcTrie"
 2491      696500
 2492              	.LASF66:
 2493 012c 72634C61 		.string	"rcLastModule_v1_0"
 2493      73744D6F 
 2493      64756C65 
 2493      5F76315F 
 2493      3000
 2494              	.LASF73:
 2495 013e 72634C61 		.string	"rcLastModule_v1_1"
 2495      73744D6F 
 2495      64756C65 
GAS LISTING /tmp/cc3yHVm6.s 			page 53


 2495      5F76315F 
 2495      3100
 2496              	.LASF224:
 2497 0150 72634279 		.string	"rcByteOrder"
 2497      74654F72 
 2497      64657200 
 2498              	.LASF142:
 2499 015c 7263436F 		.string	"rcConstructing"
 2499      6E737472 
 2499      75637469 
 2499      6E6700
 2500              	.LASF313:
 2501 016b 5F5F5052 		.string	"__PRETTY_FUNCTION__"
 2501      45545459 
 2501      5F46554E 
 2501      4354494F 
 2501      4E5F5F00 
 2502              	.LASF9:
 2503 017f 72635F74 		.string	"rc_t"
 2503      00
 2504              	.LASF218:
 2505 0184 7263466F 		.string	"rcFormat"
 2505      726D6174 
 2505      00
 2506              	.LASF276:
 2507 018d 7263556E 		.string	"rcUnauthorized"
 2507      61757468 
 2507      6F72697A 
 2507      656400
 2508              	.LASF156:
 2509 019c 72635265 		.string	"rcRemoving"
 2509      6D6F7669 
 2509      6E6700
 2510              	.LASF69:
 2511 01a7 72634B72 		.string	"rcKrypto"
 2511      7970746F 
 2511      00
 2512              	.LASF309:
 2513 01b0 4B4E756C 		.string	"KNullBlockCipherVecDecrypt"
 2513      6C426C6F 
 2513      636B4369 
 2513      70686572 
 2513      56656344 
 2514              	.LASF147:
 2515 01cb 72635669 		.string	"rcVisiting"
 2515      73697469 
 2515      6E6700
 2516              	.LASF77:
 2517 01d6 72634172 		.string	"rcArc"
 2517      6300
 2518              	.LASF52:
 2519 01dc 72634578 		.string	"rcExe"
 2519      6500
 2520              	.LASF282:
 2521 01e2 7263546F 		.string	"rcTooLong"
 2521      6F4C6F6E 
 2521      6700
GAS LISTING /tmp/cc3yHVm6.s 			page 54


 2522              	.LASF210:
 2523 01ec 52434F62 		.string	"RCObject"
 2523      6A656374 
 2523      00
 2524              	.LASF220:
 2525 01f5 7263496E 		.string	"rcInterface"
 2525      74657266 
 2525      61636500 
 2526              	.LASF148:
 2527 0201 72635265 		.string	"rcResolving"
 2527      736F6C76 
 2527      696E6700 
 2528              	.LASF90:
 2529 020d 72634469 		.string	"rcDirectory"
 2529      72656374 
 2529      6F727900 
 2530              	.LASF2:
 2531 0219 6C6F6E67 		.string	"long int"
 2531      20696E74 
 2531      00
 2532              	.LASF178:
 2533 0222 72635661 		.string	"rcValidating"
 2533      6C696461 
 2533      74696E67 
 2533      00
 2534              	.LASF80:
 2535 022f 72634172 		.string	"rcArgv"
 2535      677600
 2536              	.LASF56:
 2537 0236 72634353 		.string	"rcCS"
 2537      00
 2538              	.LASF137:
 2539 023b 72635572 		.string	"rcUri"
 2539      6900
 2540              	.LASF159:
 2541 0241 72634372 		.string	"rcCreating"
 2541      65617469 
 2541      6E6700
 2542              	.LASF45:
 2543 024c 656E6372 		.string	"encrypt"
 2543      79707400 
 2544              	.LASF35:
 2545 0254 76313238 		.string	"v128_u8_t"
 2545      5F75385F 
 2545      7400
 2546              	.LASF18:
 2547 025e 4442475F 		.string	"DBG_XML"
 2547      584D4C00 
 2548              	.LASF30:
 2549 0266 4442475F 		.string	"DBG_MOD_COUNT"
 2549      4D4F445F 
 2549      434F554E 
 2549      5400
 2550              	.LASF61:
 2551 0274 72634442 		.string	"rcDB"
 2551      00
 2552              	.LASF307:
GAS LISTING /tmp/cc3yHVm6.s 			page 55


 2553 0279 4B4E756C 		.string	"KNullBlockCipherVecEncrypt"
 2553      6C426C6F 
 2553      636B4369 
 2553      70686572 
 2553      56656345 
 2554              	.LASF239:
 2555 0294 7263436F 		.string	"rcConnection"
 2555      6E6E6563 
 2555      74696F6E 
 2555      00
 2556              	.LASF107:
 2557 02a1 72634D67 		.string	"rcMgr"
 2557      7200
 2558              	.LASF269:
 2559 02a7 72635669 		.string	"rcViolated"
 2559      6F6C6174 
 2559      656400
 2560              	.LASF202:
 2561 02b2 72634465 		.string	"rcDecrypting"
 2561      63727970 
 2561      74696E67 
 2561      00
 2562              	.LASF0:
 2563 02bf 7369676E 		.string	"signed char"
 2563      65642063 
 2563      68617200 
 2564              	.LASF5:
 2565 02cb 75696E74 		.string	"uint8_t"
 2565      385F7400 
 2566              	.LASF320:
 2567 02d3 4B4E756C 		.string	"KNullBlockCipherVecDestroy"
 2567      6C426C6F 
 2567      636B4369 
 2567      70686572 
 2567      56656344 
 2568              	.LASF85:
 2569 02ee 72634368 		.string	"rcChar"
 2569      617200
 2570              	.LASF70:
 2571 02f5 72635244 		.string	"rcRDBMS"
 2571      424D5300 
 2572              	.LASF179:
 2573 02fd 72634578 		.string	"rcExecuting"
 2573      65637574 
 2573      696E6700 
 2574              	.LASF306:
 2575 0309 64656372 		.string	"decrypt_key"
 2575      7970745F 
 2575      6B657900 
 2576              	.LASF11:
 2577 0315 4442475F 		.string	"DBG_MOD_NOT_FOUND"
 2577      4D4F445F 
 2577      4E4F545F 
 2577      464F554E 
 2577      4400
 2578              	.LASF318:
 2579 0327 2F686F6D 		.string	"/home/rodarmer/sra_sdk-2.3.1/libs/krypto/null-ncbi.c"
GAS LISTING /tmp/cc3yHVm6.s 			page 56


 2579      652F726F 
 2579      6461726D 
 2579      65722F73 
 2579      72615F73 
 2580              	.LASF166:
 2581 035c 72635265 		.string	"rcReverting"
 2581      76657274 
 2581      696E6700 
 2582              	.LASF82:
 2583 0368 72634261 		.string	"rcBarrier"
 2583      72726965 
 2583      7200
 2584              	.LASF266:
 2585 0372 72634578 		.string	"rcExhausted"
 2585      68617573 
 2585      74656400 
 2586              	.LASF3:
 2587 037e 756E7369 		.string	"unsigned char"
 2587      676E6564 
 2587      20636861 
 2587      7200
 2588              	.LASF139:
 2589 038c 5243436F 		.string	"RCContext"
 2589      6E746578 
 2589      7400
 2590              	.LASF102:
 2591 0396 72634C6F 		.string	"rcLock"
 2591      636B00
 2592              	.LASF255:
 2593 039d 72634261 		.string	"rcBadVersion"
 2593      64566572 
 2593      73696F6E 
 2593      00
 2594              	.LASF256:
 2595 03aa 72634465 		.string	"rcDestroyed"
 2595      7374726F 
 2595      79656400 
 2596              	.LASF119:
 2597 03b6 72635374 		.string	"rcString"
 2597      72696E67 
 2597      00
 2598              	.LASF315:
 2599 03bf 4B4E756C 		.string	"KNullBlockCipherVecaes_ncbi_name"
 2599      6C426C6F 
 2599      636B4369 
 2599      70686572 
 2599      56656361 
 2600              	.LASF81:
 2601 03e0 72634174 		.string	"rcAttr"
 2601      747200
 2602              	.LASF103:
 2603 03e7 72634C6F 		.string	"rcLog"
 2603      6700
 2604              	.LASF312:
 2605 03ed 6E65775F 		.string	"new_obj"
 2605      6F626A00 
 2606              	.LASF14:
GAS LISTING /tmp/cc3yHVm6.s 			page 57


 2607 03f5 4442475F 		.string	"DBG_KDB"
 2607      4B444200 
 2608              	.LASF207:
 2609 03fd 72635072 		.string	"rcProcessing"
 2609      6F636573 
 2609      73696E67 
 2609      00
 2610              	.LASF57:
 2611 040a 72634646 		.string	"rcFF"
 2611      00
 2612              	.LASF311:
 2613 040f 5F426F6F 		.string	"_Bool"
 2613      6C00
 2614              	.LASF58:
 2615 0415 72634653 		.string	"rcFS"
 2615      00
 2616              	.LASF145:
 2617 041a 72634163 		.string	"rcAccessing"
 2617      63657373 
 2617      696E6700 
 2618              	.LASF263:
 2619 0426 7263496E 		.string	"rcInterrupted"
 2619      74657272 
 2619      75707465 
 2619      6400
 2620              	.LASF271:
 2621 0434 72634E6F 		.string	"rcNotFound"
 2621      74466F75 
 2621      6E6400
 2622              	.LASF10:
 2623 043f 63686172 		.string	"char"
 2623      00
 2624              	.LASF109:
 2625 0444 72634E6F 		.string	"rcNode"
 2625      646500
 2626              	.LASF28:
 2627 044b 4442475F 		.string	"DBG_AES"
 2627      41455300 
 2628              	.LASF240:
 2629 0453 72634572 		.string	"rcError"
 2629      726F7200 
 2630              	.LASF157:
 2631 045b 7263436C 		.string	"rcClearing"
 2631      65617269 
 2631      6E6700
 2632              	.LASF215:
 2633 0466 72634F66 		.string	"rcOffset"
 2633      66736574 
 2633      00
 2634              	.LASF161:
 2635 046f 7263436C 		.string	"rcClosing"
 2635      6F73696E 
 2635      6700
 2636              	.LASF93:
 2637 0479 72634669 		.string	"rcFile"
 2637      6C6500
 2638              	.LASF122:
GAS LISTING /tmp/cc3yHVm6.s 			page 58


 2639 0480 72635469 		.string	"rcTimeout"
 2639      6D656F75 
 2639      7400
 2640              	.LASF110:
 2641 048a 72634E75 		.string	"rcNumeral"
 2641      6D657261 
 2641      6C00
 2642              	.LASF187:
 2643 0494 72635761 		.string	"rcWaiting"
 2643      6974696E 
 2643      6700
 2644              	.LASF191:
 2645 049e 72634650 		.string	"rcFPCoding"
 2645      436F6469 
 2645      6E6700
 2646              	.LASF243:
 2647 04a9 72635369 		.string	"rcSize"
 2647      7A6500
 2648              	.LASF228:
 2649 04b0 72634469 		.string	"rcDirEntry"
 2649      72456E74 
 2649      727900
 2650              	.LASF180:
 2651 04bb 72634875 		.string	"rcHuffmanCoding"
 2651      66666D61 
 2651      6E436F64 
 2651      696E6700 
 2652              	.LASF23:
 2653 04cb 4442475F 		.string	"DBG_KFG"
 2653      4B464700 
 2654              	.LASF261:
 2655 04d3 72634275 		.string	"rcBusy"
 2655      737900
 2656              	.LASF20:
 2657 04da 4442475F 		.string	"DBG_SRA"
 2657      53524100 
 2658              	.LASF219:
 2659 04e2 72635472 		.string	"rcTransfer"
 2659      616E7366 
 2659      657200
 2660              	.LASF17:
 2661 04ed 4442475F 		.string	"DBG_KFS"
 2661      4B465300 
 2662              	.LASF174:
 2663 04f5 72635061 		.string	"rcPacking"
 2663      636B696E 
 2663      6700
 2664              	.LASF170:
 2665 04ff 7263436F 		.string	"rcCopying"
 2665      7079696E 
 2665      6700
 2666              	.LASF319:
 2667 0509 2F686F6D 		.string	"/home/rodarmer/sra_sdk-2.3.1/linux/gcc/dyn/x86_64/dbg/obj/libs/krypto"
 2667      652F726F 
 2667      6461726D 
 2667      65722F73 
 2667      72615F73 
GAS LISTING /tmp/cc3yHVm6.s 			page 59


 2668              	.LASF177:
 2669 054f 72634465 		.string	"rcDecoding"
 2669      636F6469 
 2669      6E6700
 2670              	.LASF150:
 2671 055a 7263556E 		.string	"rcUnlocking"
 2671      6C6F636B 
 2671      696E6700 
 2672              	.LASF48:
 2673 0566 4B426C6F 		.string	"KBlockCipherVec_vt_v1"
 2673      636B4369 
 2673      70686572 
 2673      5665635F 
 2673      76745F76 
 2674              	.LASF16:
 2675 057c 4442475F 		.string	"DBG_LEGREF"
 2675      4C454752 
 2675      454600
 2676              	.LASF298:
 2677 0587 4B4E756C 		.string	"KNullBlockCipherVecBlockSize"
 2677      6C426C6F 
 2677      636B4369 
 2677      70686572 
 2677      56656342 
 2678              	.LASF151:
 2679 05a4 72635265 		.string	"rcRenaming"
 2679      6E616D69 
 2679      6E6700
 2680              	.LASF302:
 2681 05af 75736572 		.string	"user_key"
 2681      5F6B6579 
 2681      00
 2682              	.LASF221:
 2683 05b8 72634964 		.string	"rcId"
 2683      00
 2684              	.LASF134:
 2685 05bd 7263436D 		.string	"rcCmd"
 2685      6400
 2686              	.LASF26:
 2687 05c3 4442475F 		.string	"DBG_LOADLIB"
 2687      4C4F4144 
 2687      4C494200 
 2688              	.LASF273:
 2689 05cf 7263556E 		.string	"rcUnlocked"
 2689      6C6F636B 
 2689      656400
 2690              	.LASF74:
 2691 05da 52434D6F 		.string	"RCModule"
 2691      64756C65 
 2691      00
 2692              	.LASF235:
 2693 05e3 7263456E 		.string	"rcEncryption"
 2693      63727970 
 2693      74696F6E 
 2693      00
 2694              	.LASF270:
 2695 05f0 72634578 		.string	"rcExists"
GAS LISTING /tmp/cc3yHVm6.s 			page 60


 2695      69737473 
 2695      00
 2696              	.LASF36:
 2697 05f9 43697068 		.string	"CipherVec"
 2697      65725665 
 2697      6300
 2698              	.LASF289:
 2699 0603 72634F70 		.string	"rcOpen"
 2699      656E00
 2700              	.LASF275:
 2701 060a 72634465 		.string	"rcDeadlock"
 2701      61646C6F 
 2701      636B00
 2702              	.LASF212:
 2703 0615 72634C69 		.string	"rcLink"
 2703      6E6B00
 2704              	.LASF199:
 2705 061c 7263466C 		.string	"rcFlushing"
 2705      75736869 
 2705      6E6700
 2706              	.LASF247:
 2707 0627 72634E6F 		.string	"rcNoErr"
 2707      45727200 
 2708              	.LASF226:
 2709 062f 72635461 		.string	"rcTag"
 2709      6700
 2710              	.LASF22:
 2711 0635 4442475F 		.string	"DBG_ALIGN"
 2711      414C4947 
 2711      4E00
 2712              	.LASF190:
 2713 063f 72634C6F 		.string	"rcLogging"
 2713      6767696E 
 2713      6700
 2714              	.LASF283:
 2715 0649 7263546F 		.string	"rcTooBig"
 2715      6F426967 
 2715      00
 2716              	.LASF127:
 2717 0652 72635665 		.string	"rcVector"
 2717      63746F72 
 2717      00
 2718              	.LASF162:
 2719 065b 72635265 		.string	"rcResizing"
 2719      73697A69 
 2719      6E6700
 2720              	.LASF136:
 2721 0666 72635175 		.string	"rcQuery"
 2721      65727900 
 2722              	.LASF8:
 2723 066e 6C6F6E67 		.string	"long unsigned int"
 2723      20756E73 
 2723      69676E65 
 2723      6420696E 
 2723      7400
 2724              	.LASF268:
 2725 0680 72634578 		.string	"rcExcessive"
GAS LISTING /tmp/cc3yHVm6.s 			page 61


 2725      63657373 
 2725      69766500 
 2726              	.LASF196:
 2727 068c 72634576 		.string	"rcEvaluating"
 2727      616C7561 
 2727      74696E67 
 2727      00
 2728              	.LASF133:
 2729 0699 7263526E 		.string	"rcRng"
 2729      6700
 2730              	.LASF141:
 2731 069f 72634361 		.string	"rcCasting"
 2731      7374696E 
 2731      6700
 2732              	.LASF300:
 2733 06a9 73656C66 		.string	"self"
 2733      00
 2734              	.LASF101:
 2735 06ae 72634974 		.string	"rcIterator"
 2735      65726174 
 2735      6F7200
 2736              	.LASF49:
 2737 06b9 4B426C6F 		.string	"KBlockCipherVec"
 2737      636B4369 
 2737      70686572 
 2737      56656300 
 2738              	.LASF118:
 2739 06c9 72635374 		.string	"rcStorage"
 2739      6F726167 
 2739      6500
 2740              	.LASF285:
 2741 06d3 72634F75 		.string	"rcOutOfKDirectory"
 2741      744F664B 
 2741      44697265 
 2741      63746F72 
 2741      7900
 2742              	.LASF230:
 2743 06e5 7263526F 		.string	"rcRow"
 2743      7700
 2744              	.LASF19:
 2745 06eb 4442475F 		.string	"DBG_VDB"
 2745      56444200 
 2746              	.LASF130:
 2747 06f3 72634C61 		.string	"rcLastTarget_v1_0"
 2747      73745461 
 2747      72676574 
 2747      5F76315F 
 2747      3000
 2748              	.LASF138:
 2749 0705 72634C61 		.string	"rcLastTarget_v1_1"
 2749      73745461 
 2749      72676574 
 2749      5F76315F 
 2749      3100
 2750              	.LASF117:
 2751 0717 72635365 		.string	"rcSemaphore"
 2751      6D617068 
GAS LISTING /tmp/cc3yHVm6.s 			page 62


 2751      6F726500 
 2752              	.LASF262:
 2753 0723 7263496E 		.string	"rcIncomplete"
 2753      636F6D70 
 2753      6C657465 
 2753      00
 2754              	.LASF291:
 2755 0730 72634E6F 		.string	"rcNotOpen"
 2755      744F7065 
 2755      6E00
 2756              	.LASF100:
 2757 073a 7263496E 		.string	"rcIndex"
 2757      64657800 
 2758              	.LASF21:
 2759 0742 4442475F 		.string	"DBG_XARC"
 2759      58415243 
 2759      00
 2760              	.LASF317:
 2761 074b 474E5520 		.string	"GNU C 4.4.2"
 2761      4320342E 
 2761      342E3200 
 2762              	.LASF53:
 2763 0757 72635275 		.string	"rcRuntime"
 2763      6E74696D 
 2763      6500
 2764              	.LASF92:
 2765 0761 7263586D 		.string	"rcXmlDoc"
 2765      6C446F63 
 2765      00
 2766              	.LASF31:
 2767 076a 6C6F6E67 		.string	"long long int"
 2767      206C6F6E 
 2767      6720696E 
 2767      7400
 2768              	.LASF173:
 2769 0778 7263506F 		.string	"rcPositioning"
 2769      73697469 
 2769      6F6E696E 
 2769      6700
 2770              	.LASF114:
 2771 0786 72635175 		.string	"rcQueue"
 2771      65756500 
 2772              	.LASF189:
 2773 078e 72634465 		.string	"rcDetaching"
 2773      74616368 
 2773      696E6700 
 2774              	.LASF104:
 2775 079a 72634D44 		.string	"rcMD5SumFmt"
 2775      3553756D 
 2775      466D7400 
 2776              	.LASF155:
 2777 07a6 7263496E 		.string	"rcInserting"
 2777      73657274 
 2777      696E6700 
 2778              	.LASF203:
 2779 07b2 7263436F 		.string	"rcComparing"
 2779      6D706172 
GAS LISTING /tmp/cc3yHVm6.s 			page 63


 2779      696E6700 
 2780              	.LASF265:
 2781 07be 7263456D 		.string	"rcEmpty"
 2781      70747900 
 2782              	.LASF97:
 2783 07c6 7263466F 		.string	"rcFormatter"
 2783      726D6174 
 2783      74657200 
 2784              	.LASF34:
 2785 07d2 646F7562 		.string	"double"
 2785      6C6500
 2786              	.LASF182:
 2787 07d9 72635265 		.string	"rcRegistering"
 2787      67697374 
 2787      6572696E 
 2787      6700
 2788              	.LASF71:
 2789 07e7 72634E53 		.string	"rcNS"
 2789      00
 2790              	.LASF214:
 2791 07ec 72635061 		.string	"rcParam"
 2791      72616D00 
 2792              	.LASF75:
 2793 07f4 52435461 		.string	"RCTarget"
 2793      72676574 
 2793      00
 2794              	.LASF236:
 2795 07fd 72634372 		.string	"rcCrc"
 2795      6300
 2796              	.LASF25:
 2797 0803 4442475F 		.string	"DBG_SEARCH"
 2797      53454152 
 2797      434800
 2798              	.LASF316:
 2799 080e 4B4E756C 		.string	"KNullBlockCipherVec_vt_"
 2799      6C426C6F 
 2799      636B4369 
 2799      70686572 
 2799      5665635F 
 2800              	.LASF64:
 2801 0826 7263584D 		.string	"rcXML"
 2801      4C00
 2802              	.LASF27:
 2803 082c 4442475F 		.string	"DBG_VFS"
 2803      56465300 
 2804              	.LASF32:
 2805 0834 666C6F61 		.string	"float"
 2805      7400
 2806              	.LASF158:
 2807 083a 72635570 		.string	"rcUpdating"
 2807      64617469 
 2807      6E6700
 2808              	.LASF185:
 2809 0845 7263436F 		.string	"rcConverting"
 2809      6E766572 
 2809      74696E67 
 2809      00
GAS LISTING /tmp/cc3yHVm6.s 			page 64


 2810              	.LASF171:
 2811 0852 7263436F 		.string	"rcConcatenating"
 2811      6E636174 
 2811      656E6174 
 2811      696E6700 
 2812              	.LASF50:
 2813 0862 4B426C6F 		.string	"KBlockCipher"
 2813      636B4369 
 2813      70686572 
 2813      00
 2814              	.LASF128:
 2815 086f 72634479 		.string	"rcDylib"
 2815      6C696200 
 2816              	.LASF277:
 2817 0877 72635265 		.string	"rcReadonly"
 2817      61646F6E 
 2817      6C7900
 2818              	.LASF7:
 2819 0882 756E7369 		.string	"unsigned int"
 2819      676E6564 
 2819      20696E74 
 2819      00
 2820              	.LASF278:
 2821 088f 72635772 		.string	"rcWriteonly"
 2821      6974656F 
 2821      6E6C7900 
 2822              	.LASF272:
 2823 089b 72634C6F 		.string	"rcLocked"
 2823      636B6564 
 2823      00
 2824              	.LASF154:
 2825 08a4 72635072 		.string	"rcProjecting"
 2825      6F6A6563 
 2825      74696E67 
 2825      00
 2826              	.LASF59:
 2827 08b1 72635053 		.string	"rcPS"
 2827      00
 2828              	.LASF244:
 2829 08b6 72635265 		.string	"rcRefcount"
 2829      66636F75 
 2829      6E7400
 2830              	.LASF79:
 2831 08c1 7263546F 		.string	"rcTocEntry"
 2831      63456E74 
 2831      727900
 2832              	.LASF234:
 2833 08cc 72634D6F 		.string	"rcMode"
 2833      646500
 2834              	.LASF310:
 2835 08d3 4B4E756C 		.string	"KNullBlockCipherVecProcessorSupport"
 2835      6C426C6F 
 2835      636B4369 
 2835      70686572 
 2835      56656350 
 2836              	.LASF293:
 2837 08f7 7263556E 		.string	"rcUnequal"
GAS LISTING /tmp/cc3yHVm6.s 			page 65


 2837      65717561 
 2837      6C00
 2838              	.LASF274:
 2839 0901 72634465 		.string	"rcDetached"
 2839      74616368 
 2839      656400
 2840              	.LASF280:
 2841 090c 7263496E 		.string	"rcInPlaceNotAllowed"
 2841      506C6163 
 2841      654E6F74 
 2841      416C6C6F 
 2841      77656400 
 2842              	.LASF222:
 2843 0920 72635261 		.string	"rcRange"
 2843      6E676500 
 2844              	.LASF46:
 2845 0928 64656372 		.string	"decrypt"
 2845      79707400 
 2846              	.LASF232:
 2847 0930 72634C61 		.string	"rcLastObject_v1_0"
 2847      73744F62 
 2847      6A656374 
 2847      5F76315F 
 2847      3000
 2848              	.LASF245:
 2849 0942 72634C61 		.string	"rcLastObject_v1_1"
 2849      73744F62 
 2849      6A656374 
 2849      5F76315F 
 2849      3100
 2850              	.LASF198:
 2851 0954 72634C61 		.string	"rcLastContext_v1_0"
 2851      7374436F 
 2851      6E746578 
 2851      745F7631 
 2851      5F3000
 2852              	.LASF209:
 2853 0967 72634C61 		.string	"rcLastContext_v1_1"
 2853      7374436F 
 2853      6E746578 
 2853      745F7631 
 2853      5F3100
 2854              	.LASF105:
 2855 097a 72634D65 		.string	"rcMemMap"
 2855      6D4D6170 
 2855      00
 2856              	.LASF129:
 2857 0983 72634578 		.string	"rcExpression"
 2857      70726573 
 2857      73696F6E 
 2857      00
 2858              	.LASF175:
 2859 0990 7263556E 		.string	"rcUnpacking"
 2859      7061636B 
 2859      696E6700 
 2860              	.LASF91:
 2861 099c 7263446F 		.string	"rcDoc"
GAS LISTING /tmp/cc3yHVm6.s 			page 66


 2861      6300
 2862              	.LASF12:
 2863 09a2 4442475F 		.string	"DBG_APP"
 2863      41505000 
 2864              	.LASF192:
 2865 09aa 72634D75 		.string	"rcMultiplexing"
 2865      6C746970 
 2865      6C657869 
 2865      6E6700
 2866              	.LASF194:
 2867 09b9 72635365 		.string	"rcSearching"
 2867      61726368 
 2867      696E6700 
 2868              	.LASF294:
 2869 09c5 72634661 		.string	"rcFailed"
 2869      696C6564 
 2869      00
 2870              	.LASF259:
 2871 09ce 7263496E 		.string	"rcIncorrect"
 2871      636F7272 
 2871      65637400 
 2872              	.LASF98:
 2873 09da 72634675 		.string	"rcFunctParam"
 2873      6E637450 
 2873      6172616D 
 2873      00
 2874              	.LASF208:
 2875 09e7 72634964 		.string	"rcIdentifying"
 2875      656E7469 
 2875      6679696E 
 2875      6700
 2876              	.LASF223:
 2877 09f5 7263436F 		.string	"rcConstraint"
 2877      6E737472 
 2877      61696E74 
 2877      00
 2878              	.LASF249:
 2879 0a02 7263556E 		.string	"rcUnknown"
 2879      6B6E6F77 
 2879      6E00
 2880              	.LASF88:
 2881 0a0c 72634375 		.string	"rcCursor"
 2881      72736F72 
 2881      00
 2882              	.LASF246:
 2883 0a15 52435374 		.string	"RCState"
 2883      61746500 
 2884              	.LASF47:
 2885 0a1d 4B426C6F 		.string	"KBlockCipherByte"
 2885      636B4369 
 2885      70686572 
 2885      42797465 
 2885      00
 2886              	.LASF38:
 2887 0a2e 4B426C6F 		.string	"KBlockCipherByte_vt_v1"
 2887      636B4369 
 2887      70686572 
GAS LISTING /tmp/cc3yHVm6.s 			page 67


 2887      42797465 
 2887      5F76745F 
 2888              	.LASF286:
 2889 0a45 72634967 		.string	"rcIgnored"
 2889      6E6F7265 
 2889      6400
 2890              	.LASF144:
 2891 0a4f 72635265 		.string	"rcReleasing"
 2891      6C656173 
 2891      696E6700 
 2892              	.LASF67:
 2893 0a5b 72634B46 		.string	"rcKFG"
 2893      4700
 2894              	.LASF225:
 2895 0a61 72634D65 		.string	"rcMessage"
 2895      73736167 
 2895      6500
 2896              	.LASF172:
 2897 0a6b 7263466F 		.string	"rcFormatting"
 2897      726D6174 
 2897      74696E67 
 2897      00
 2898              	.LASF65:
 2899 0a78 72635352 		.string	"rcSRA"
 2899      4100
 2900              	.LASF241:
 2901 0a7e 7263456E 		.string	"rcEnvironment"
 2901      7669726F 
 2901      6E6D656E 
 2901      7400
 2902              	.LASF33:
 2903 0a8c 6C6F6E67 		.string	"long long unsigned int"
 2903      206C6F6E 
 2903      6720756E 
 2903      7369676E 
 2903      65642069 
 2904              	.LASF40:
 2905 0aa3 64657374 		.string	"destroy"
 2905      726F7900 
 2906              	.LASF123:
 2907 0aab 7263546F 		.string	"rcToken"
 2907      6B656E00 
 2908              	.LASF183:
 2909 0ab3 7263546F 		.string	"rcTokenizing"
 2909      6B656E69 
 2909      7A696E67 
 2909      00
 2910              	.LASF15:
 2911 0ac0 4442475F 		.string	"DBG_REF"
 2911      52454600 
 2912              	.LASF164:
 2913 0ac8 72635772 		.string	"rcWriting"
 2913      6974696E 
 2913      6700
 2914              	.LASF140:
 2915 0ad2 7263416C 		.string	"rcAllocating"
 2915      6C6F6361 
GAS LISTING /tmp/cc3yHVm6.s 			page 68


 2915      74696E67 
 2915      00
 2916              	.LASF304:
 2917 0adf 4B4E756C 		.string	"KNullBlockCipherVecSetEncryptKey"
 2917      6C426C6F 
 2917      636B4369 
 2917      70686572 
 2917      56656353 
 2918              	.LASF126:
 2919 0b00 72635479 		.string	"rcType"
 2919      706500
 2920              	.LASF227:
 2921 0b07 72635265 		.string	"rcResources"
 2921      736F7572 
 2921      63657300 
 2922              	.LASF108:
 2923 0b13 72634E61 		.string	"rcNamelist"
 2923      6D656C69 
 2923      737400
 2924              	.LASF292:
 2925 0b1e 7263556E 		.string	"rcUndefined"
 2925      64656669 
 2925      6E656400 
 2926              	.LASF260:
 2927 0b2a 7263496E 		.string	"rcInconsistent"
 2927      636F6E73 
 2927      69737465 
 2927      6E7400
 2928              	.LASF205:
 2929 0b39 72635265 		.string	"rcRetrieving"
 2929      74726965 
 2929      76696E67 
 2929      00
 2930              	.LASF301:
 2931 0b46 656E6372 		.string	"encrypt_key"
 2931      7970745F 
 2931      6B657900 
 2932              	.LASF39:
 2933 0b52 76657273 		.string	"version"
 2933      696F6E00 
 2934              	.LASF217:
 2935 0b5a 72634E61 		.string	"rcName"
 2935      6D6500
 2936              	.LASF254:
 2937 0b61 72634E75 		.string	"rcNull"
 2937      6C6C00
 2938              	.LASF176:
 2939 0b68 7263456E 		.string	"rcEncoding"
 2939      636F6469 
 2939      6E6700
 2940              	.LASF95:
 2941 0b73 72634669 		.string	"rcFileFormat"
 2941      6C65466F 
 2941      726D6174 
 2941      00
 2942              	.LASF132:
 2943 0b80 7263456E 		.string	"rcEncryptionKey"
GAS LISTING /tmp/cc3yHVm6.s 			page 69


 2943      63727970 
 2943      74696F6E 
 2943      4B657900 
 2944              	.LASF197:
 2945 0b90 7263496E 		.string	"rcInflating"
 2945      666C6174 
 2945      696E6700 
 2946              	.LASF279:
 2947 0b9c 72634E6F 		.string	"rcNoPerm"
 2947      5065726D 
 2947      00
 2948              	.LASF167:
 2949 0ba5 72635265 		.string	"rcResetting"
 2949      73657474 
 2949      696E6700 
 2950              	.LASF41:
 2951 0bb1 626C6F63 		.string	"block_size"
 2951      6B5F7369 
 2951      7A6500
 2952              	.LASF115:
 2953 0bbc 72635257 		.string	"rcRWLock"
 2953      4C6F636B 
 2953      00
 2954              	.LASF146:
 2955 0bc5 72634C69 		.string	"rcListing"
 2955      7374696E 
 2955      6700
 2956              	.LASF96:
 2957 0bcf 72634675 		.string	"rcFunction"
 2957      6E637469 
 2957      6F6E00
 2958              	.LASF252:
 2959 0bda 7263556E 		.string	"rcUnrecognized"
 2959      7265636F 
 2959      676E697A 
 2959      656400
 2960              	.LASF68:
 2961 0be9 7263416C 		.string	"rcAlign"
 2961      69676E00 
 2962              	.LASF131:
 2963 0bf1 72635072 		.string	"rcProduction"
 2963      6F647563 
 2963      74696F6E 
 2963      00
 2964              	.LASF121:
 2965 0bfe 72635468 		.string	"rcThread"
 2965      72656164 
 2965      00
 2966              	.LASF169:
 2967 0c07 72634672 		.string	"rcFreezing"
 2967      65657A69 
 2967      6E6700
 2968              	.LASF44:
 2969 0c12 7365745F 		.string	"set_decrypt_key"
 2969      64656372 
 2969      7970745F 
 2969      6B657900 
GAS LISTING /tmp/cc3yHVm6.s 			page 70


 2970              	.LASF51:
 2971 0c22 62797465 		.string	"byte"
 2971      00
 2972              	.LASF37:
 2973 0c27 4B426C6F 		.string	"KBlockCipher_vt"
 2973      636B4369 
 2973      70686572 
 2973      5F767400 
 2974              	.LASF238:
 2975 0c37 72635365 		.string	"rcSeed"
 2975      656400
 2976              	.LASF195:
 2977 0c3e 72634C6F 		.string	"rcLoading"
 2977      6164696E 
 2977      6700
 2978              	.LASF1:
 2979 0c48 73686F72 		.string	"short int"
 2979      7420696E 
 2979      7400
 2980              	.LASF299:
 2981 0c52 4B4E756C 		.string	"KNullBlockCipherVecKeySize"
 2981      6C426C6F 
 2981      636B4369 
 2981      70686572 
 2981      5665634B 
 2982              	.LASF288:
 2983 0c6d 72634C61 		.string	"rcLastState_v1_0"
 2983      73745374 
 2983      6174655F 
 2983      76315F30 
 2983      00
 2984              	.LASF297:
 2985 0c7e 72634C61 		.string	"rcLastState_v1_1"
 2985      73745374 
 2985      6174655F 
 2985      76315F31 
 2985      00
 2986              	.LASF62:
 2987 0c8f 72635644 		.string	"rcVDB"
 2987      4200
 2988              	.LASF43:
 2989 0c95 7365745F 		.string	"set_encrypt_key"
 2989      656E6372 
 2989      7970745F 
 2989      6B657900 
 2990              	.LASF60:
 2991 0ca5 72635846 		.string	"rcXF"
 2991      00
 2992              	.LASF143:
 2993 0caa 72634465 		.string	"rcDestroying"
 2993      7374726F 
 2993      79696E67 
 2993      00
 2994              	.LASF248:
 2995 0cb7 7263446F 		.string	"rcDone"
 2995      6E6500
 2996              	.LASF78:
GAS LISTING /tmp/cc3yHVm6.s 			page 71


 2997 0cbe 7263546F 		.string	"rcToc"
 2997      6300
 2998              	.LASF152:
 2999 0cc4 7263416C 		.string	"rcAliasing"
 2999      69617369 
 2999      6E6700
 3000              	.LASF113:
 3001 0ccf 72635072 		.string	"rcProcess"
 3001      6F636573 
 3001      7300
 3002              	.LASF211:
 3003 0cd9 72634E6F 		.string	"rcNoObj"
 3003      4F626A00 
 3004              	.LASF250:
 3005 0ce1 7263556E 		.string	"rcUnsupported"
 3005      73757070 
 3005      6F727465 
 3005      6400
 3006              	.LASF305:
 3007 0cef 4B4E756C 		.string	"KNullBlockCipherVecSetDecryptKey"
 3007      6C426C6F 
 3007      636B4369 
 3007      70686572 
 3007      56656353 
 3008              	.LASF86:
 3009 0d10 7263436F 		.string	"rcColumn"
 3009      6C756D6E 
 3009      00
 3010              	.LASF251:
 3011 0d19 7263556E 		.string	"rcUnexpected"
 3011      65787065 
 3011      63746564 
 3011      00
 3012              	.LASF6:
 3013 0d26 75696E74 		.string	"uint32_t"
 3013      33325F74 
 3013      00
 3014              	.LASF72:
 3015 0d2f 72635646 		.string	"rcVFS"
 3015      5300
 3016              	.LASF24:
 3017 0d35 4442475F 		.string	"DBG_KRYPTO"
 3017      4B525950 
 3017      544F00
 3018              	.LASF321:
 3019 0d40 4B4E756C 		.string	"KNullBlockCipherVecMake"
 3019      6C426C6F 
 3019      636B4369 
 3019      70686572 
 3019      5665634D 
 3020              	.LASF296:
 3021 0d58 72635772 		.string	"rcWrongType"
 3021      6F6E6754 
 3021      79706500 
 3022              	.LASF231:
 3023 0d64 72634C69 		.string	"rcLibrary"
 3023      62726172 
GAS LISTING /tmp/cc3yHVm6.s 			page 72


 3023      7900
 3024              	.LASF264:
 3025 0d6e 72634361 		.string	"rcCanceled"
 3025      6E63656C 
 3025      656400
 3026              	.LASF135:
 3027 0d79 72634461 		.string	"rcData"
 3027      746100
 3028              	.LASF99:
 3029 0d80 72634865 		.string	"rcHeader"
 3029      61646572 
 3029      00
 3030              	.LASF4:
 3031 0d89 73686F72 		.string	"short unsigned int"
 3031      7420756E 
 3031      7369676E 
 3031      65642069 
 3031      6E7400
 3032              	.LASF89:
 3033 0d9c 72634461 		.string	"rcDatabase"
 3033      74616261 
 3033      736500
 3034              	.LASF165:
 3035 0da7 7263436F 		.string	"rcCommitting"
 3035      6D6D6974 
 3035      74696E67 
 3035      00
 3036              	.LASF193:
 3037 0db4 7263436C 		.string	"rcClassifying"
 3037      61737369 
 3037      6679696E 
 3037      6700
 3038              	.LASF124:
 3039 0dc2 72635472 		.string	"rcTree"
 3039      656500
 3040              	.LASF29:
 3041 0dc9 4442475F 		.string	"DBG_ARGS"
 3041      41524753 
 3041      00
 3042              	.LASF153:
 3043 0dd2 72635365 		.string	"rcSelecting"
 3043      6C656374 
 3043      696E6700 
 3044              	.LASF54:
 3045 0dde 72635465 		.string	"rcText"
 3045      787400
 3046              	.LASF290:
 3047 0de5 72634F75 		.string	"rcOutoforder"
 3047      746F666F 
 3047      72646572 
 3047      00
 3048              	.LASF308:
 3049 0df2 73746174 		.string	"state"
 3049      6500
 3050              	.LASF257:
 3051 0df8 7263496E 		.string	"rcInvalid"
 3051      76616C69 
GAS LISTING /tmp/cc3yHVm6.s 			page 73


 3051      6400
 3052              	.LASF303:
 3053 0e02 75736572 		.string	"user_key_size"
 3053      5F6B6579 
 3053      5F73697A 
 3053      6500
 3054              	.LASF204:
 3055 0e10 7263496E 		.string	"rcInitializing"
 3055      69746961 
 3055      6C697A69 
 3055      6E6700
 3056              	.LASF83:
 3057 0e1f 7263426C 		.string	"rcBlob"
 3057      6F6200
 3058              	.LASF181:
 3059 0e26 72635265 		.string	"rcReindexing"
 3059      696E6465 
 3059      78696E67 
 3059      00
 3060              	.LASF76:
 3061 0e33 72634E6F 		.string	"rcNoTarg"
 3061      54617267 
 3061      00
 3062              	.LASF258:
 3063 0e3c 7263436F 		.string	"rcCorrupt"
 3063      72727570 
 3063      7400
 3064              	.LASF287:
 3065 0e46 72634F75 		.string	"rcOutofrange"
 3065      746F6672 
 3065      616E6765 
 3065      00
 3066              	.LASF116:
 3067 0e53 72635363 		.string	"rcSchema"
 3067      68656D61 
 3067      00
 3068              	.LASF112:
 3069 0e5c 72635061 		.string	"rcPath"
 3069      746800
 3070              	.LASF163:
 3071 0e63 72635265 		.string	"rcReading"
 3071      6164696E 
 3071      6700
 3072              	.LASF42:
 3073 0e6d 6B65795F 		.string	"key_size"
 3073      73697A65 
 3073      00
 3074              	.LASF295:
 3075 0e76 72634E6F 		.string	"rcNotAvailable"
 3075      74417661 
 3075      696C6162 
 3075      6C6500
 3076              	.LASF253:
 3077 0e85 7263416D 		.string	"rcAmbiguous"
 3077      62696775 
 3077      6F757300 
 3078              		.ident	"GCC: (GNU) 4.4.2"
GAS LISTING /tmp/cc3yHVm6.s 			page 74


 3079              		.section	.note.GNU-stack,"",@progbits
GAS LISTING /tmp/cc3yHVm6.s 			page 75


DEFINED SYMBOLS
                            *ABS*:0000000000000000 null-ncbi.c
     /tmp/cc3yHVm6.s:13     .rodata:0000000000000000 KNullBlockCipherVecaes_ncbi_name
     /tmp/cc3yHVm6.s:17     .text:0000000000000000 KNullBlockCipherVecDestroy
     /tmp/cc3yHVm6.s:37     .text:000000000000000a KNullBlockCipherVecBlockSize
     /tmp/cc3yHVm6.s:57     .text:0000000000000015 KNullBlockCipherVecKeySize
     /tmp/cc3yHVm6.s:77     .text:0000000000000020 KNullBlockCipherVecSetEncryptKey
     /tmp/cc3yHVm6.s:100    .text:0000000000000036 KNullBlockCipherVecSetDecryptKey
     /tmp/cc3yHVm6.s:123    .text:000000000000004c KNullBlockCipherVecEncrypt
     /tmp/cc3yHVm6.s:145    .text:0000000000000060 KNullBlockCipherVecDecrypt
     /tmp/cc3yHVm6.s:167    .text:0000000000000074 KNullBlockCipherVecProcessorSupport
     /tmp/cc3yHVm6.s:190    .data.rel.ro.local:0000000000000000 KNullBlockCipherVec_vt_
     /tmp/cc3yHVm6.s:207    .text:000000000000007f KNullBlockCipherVecMake
     /tmp/cc3yHVm6.s:269    .rodata:0000000000000050 __func__.6558
     /tmp/cc3yHVm6.s:274    .rodata:0000000000000070 __PRETTY_FUNCTION__.6557

UNDEFINED SYMBOLS
_GLOBAL_OFFSET_TABLE_
SetRCFileFuncLine
